
uart_test.elf:     file format elf32-littlearm


Disassembly of section .text:

00000000 <__Vectors>:
       0:	20010000 	andcs	r0, r1, r0
       4:	000003c1 	andeq	r0, r0, r1, asr #7
       8:	00000405 	andeq	r0, r0, r5, lsl #8
       c:	00000403 	andeq	r0, r0, r3, lsl #8
      10:	00000405 	andeq	r0, r0, r5, lsl #8
      14:	00000405 	andeq	r0, r0, r5, lsl #8
      18:	00000405 	andeq	r0, r0, r5, lsl #8
	...
      2c:	00000405 	andeq	r0, r0, r5, lsl #8
      30:	00000405 	andeq	r0, r0, r5, lsl #8
      34:	00000000 	andeq	r0, r0, r0
      38:	00000405 	andeq	r0, r0, r5, lsl #8
      3c:	00000405 	andeq	r0, r0, r5, lsl #8
      40:	00000405 	andeq	r0, r0, r5, lsl #8
      44:	00000405 	andeq	r0, r0, r5, lsl #8
      48:	00000405 	andeq	r0, r0, r5, lsl #8
      4c:	00000405 	andeq	r0, r0, r5, lsl #8
      50:	00000405 	andeq	r0, r0, r5, lsl #8
      54:	00000405 	andeq	r0, r0, r5, lsl #8
      58:	00000405 	andeq	r0, r0, r5, lsl #8
      5c:	00000405 	andeq	r0, r0, r5, lsl #8
      60:	00000405 	andeq	r0, r0, r5, lsl #8
      64:	00000405 	andeq	r0, r0, r5, lsl #8
	...

000003c0 <Reset_Handler>:
     3c0:	f000 f82a 	bl	418 <SystemInit>
     3c4:	4c10      	ldr	r4, [pc, #64]	@ (408 <BusFault_Handler+0x4>)
     3c6:	4d11      	ldr	r5, [pc, #68]	@ (40c <BusFault_Handler+0x8>)
     3c8:	42ac      	cmp	r4, r5
     3ca:	da0a      	bge.n	3e2 <Reset_Handler+0x22>
     3cc:	6821      	ldr	r1, [r4, #0]
     3ce:	6862      	ldr	r2, [r4, #4]
     3d0:	68a3      	ldr	r3, [r4, #8]
     3d2:	009b      	lsls	r3, r3, #2
     3d4:	3b04      	subs	r3, #4
     3d6:	bfa2      	ittt	ge
     3d8:	58c8      	ldrge	r0, [r1, r3]
     3da:	50d0      	strge	r0, [r2, r3]
     3dc:	e7fa      	bge.n	3d4 <Reset_Handler+0x14>
     3de:	340c      	adds	r4, #12
     3e0:	e7f2      	b.n	3c8 <Reset_Handler+0x8>
     3e2:	4b0b      	ldr	r3, [pc, #44]	@ (410 <BusFault_Handler+0xc>)
     3e4:	4c0b      	ldr	r4, [pc, #44]	@ (414 <BusFault_Handler+0x10>)
     3e6:	42a3      	cmp	r3, r4
     3e8:	da09      	bge.n	3fe <Reset_Handler+0x3e>
     3ea:	6819      	ldr	r1, [r3, #0]
     3ec:	685a      	ldr	r2, [r3, #4]
     3ee:	0092      	lsls	r2, r2, #2
     3f0:	2000      	movs	r0, #0
     3f2:	3a04      	subs	r2, #4
     3f4:	bfa4      	itt	ge
     3f6:	5088      	strge	r0, [r1, r2]
     3f8:	e7fb      	bge.n	3f2 <Reset_Handler+0x32>
     3fa:	3308      	adds	r3, #8
     3fc:	e7f3      	b.n	3e6 <Reset_Handler+0x26>
     3fe:	f000 f81f 	bl	440 <main>

00000402 <HardFault_Handler>:
     402:	e7fe      	b.n	402 <HardFault_Handler>

00000404 <BusFault_Handler>:
     404:	e7fe      	b.n	404 <BusFault_Handler>
     406:	16540000 	ldrbne	r0, [r4], -r0
     40a:	16600000 	strbtne	r0, [r0], -r0
     40e:	16600000 	strbtne	r0, [r0], -r0
     412:	16600000 	strbtne	r0, [r0], -r0
	...

00000418 <SystemInit>:
     418:	b480      	push	{r7}
     41a:	af00      	add	r7, sp, #0
     41c:	4b04      	ldr	r3, [pc, #16]	@ (430 <SystemInit+0x18>)
     41e:	4a05      	ldr	r2, [pc, #20]	@ (434 <SystemInit+0x1c>)
     420:	609a      	str	r2, [r3, #8]
     422:	4b05      	ldr	r3, [pc, #20]	@ (438 <SystemInit+0x20>)
     424:	4a05      	ldr	r2, [pc, #20]	@ (43c <SystemInit+0x24>)
     426:	601a      	str	r2, [r3, #0]
     428:	bf00      	nop
     42a:	46bd      	mov	sp, r7
     42c:	bc80      	pop	{r7}
     42e:	4770      	bx	lr
     430:	e000ed00 	and	lr, r0, r0, lsl #26
     434:	00000000 	andeq	r0, r0, r0
     438:	20000000 	andcs	r0, r0, r0
     43c:	017d7840 	cmneq	sp, r0, asr #16

00000440 <main>:
     440:	b580      	push	{r7, lr}
     442:	af00      	add	r7, sp, #0
     444:	4802      	ldr	r0, [pc, #8]	@ (450 <main+0x10>)
     446:	f000 f815 	bl	474 <printString>
     44a:	bf00      	nop
     44c:	e7fd      	b.n	44a <main+0xa>
     44e:	bf00      	nop
     450:	0000153c 	andeq	r1, r0, ip, lsr r5

00000454 <__io_putchar>:
     454:	b480      	push	{r7}
     456:	b083      	sub	sp, #12
     458:	af00      	add	r7, sp, #0
     45a:	6078      	str	r0, [r7, #4]
     45c:	4a04      	ldr	r2, [pc, #16]	@ (470 <__io_putchar+0x1c>)
     45e:	687b      	ldr	r3, [r7, #4]
     460:	6013      	str	r3, [r2, #0]
     462:	687b      	ldr	r3, [r7, #4]
     464:	4618      	mov	r0, r3
     466:	370c      	adds	r7, #12
     468:	46bd      	mov	sp, r7
     46a:	bc80      	pop	{r7}
     46c:	4770      	bx	lr
     46e:	bf00      	nop
     470:	4000c000 	andmi	ip, r0, r0

00000474 <printString>:
     474:	b580      	push	{r7, lr}
     476:	b082      	sub	sp, #8
     478:	af00      	add	r7, sp, #0
     47a:	6078      	str	r0, [r7, #4]
     47c:	e007      	b.n	48e <printString+0x1a>
     47e:	687b      	ldr	r3, [r7, #4]
     480:	781b      	ldrb	r3, [r3, #0]
     482:	4618      	mov	r0, r3
     484:	f7ff ffe6 	bl	454 <__io_putchar>
     488:	687b      	ldr	r3, [r7, #4]
     48a:	3301      	adds	r3, #1
     48c:	607b      	str	r3, [r7, #4]
     48e:	687b      	ldr	r3, [r7, #4]
     490:	781b      	ldrb	r3, [r3, #0]
     492:	2b00      	cmp	r3, #0
     494:	d1f3      	bne.n	47e <printString+0xa>
     496:	bf00      	nop
     498:	bf00      	nop
     49a:	3708      	adds	r7, #8
     49c:	46bd      	mov	sp, r7
     49e:	bd80      	pop	{r7, pc}

000004a0 <selfrel_offset31>:
     4a0:	6803      	ldr	r3, [r0, #0]
     4a2:	005a      	lsls	r2, r3, #1
     4a4:	bf4c      	ite	mi
     4a6:	f043 4300 	orrmi.w	r3, r3, #2147483648	@ 0x80000000
     4aa:	f023 4300 	bicpl.w	r3, r3, #2147483648	@ 0x80000000
     4ae:	4418      	add	r0, r3
     4b0:	4770      	bx	lr
     4b2:	bf00      	nop

000004b4 <search_EIT_table>:
     4b4:	e92d 47f0 	stmdb	sp!, {r4, r5, r6, r7, r8, r9, sl, lr}
     4b8:	b341      	cbz	r1, 50c <search_EIT_table+0x58>
     4ba:	f101 38ff 	add.w	r8, r1, #4294967295	@ 0xffffffff
     4be:	4605      	mov	r5, r0
     4c0:	4616      	mov	r6, r2
     4c2:	4647      	mov	r7, r8
     4c4:	2400      	movs	r4, #0
     4c6:	19e1      	adds	r1, r4, r7
     4c8:	eb01 71d1 	add.w	r1, r1, r1, lsr #31
     4cc:	1049      	asrs	r1, r1, #1
     4ce:	eb05 0ac1 	add.w	sl, r5, r1, lsl #3
     4d2:	4650      	mov	r0, sl
     4d4:	f7ff ffe4 	bl	4a0 <selfrel_offset31>
     4d8:	4588      	cmp	r8, r1
     4da:	4603      	mov	r3, r0
     4dc:	ea4f 09c1 	mov.w	r9, r1, lsl #3
     4e0:	d00e      	beq.n	500 <search_EIT_table+0x4c>
     4e2:	f109 0008 	add.w	r0, r9, #8
     4e6:	42b3      	cmp	r3, r6
     4e8:	4428      	add	r0, r5
     4ea:	d80b      	bhi.n	504 <search_EIT_table+0x50>
     4ec:	f7ff ffd8 	bl	4a0 <selfrel_offset31>
     4f0:	3801      	subs	r0, #1
     4f2:	42b0      	cmp	r0, r6
     4f4:	f101 0401 	add.w	r4, r1, #1
     4f8:	d3e5      	bcc.n	4c6 <search_EIT_table+0x12>
     4fa:	4650      	mov	r0, sl
     4fc:	e8bd 87f0 	ldmia.w	sp!, {r4, r5, r6, r7, r8, r9, sl, pc}
     500:	42b0      	cmp	r0, r6
     502:	d9fa      	bls.n	4fa <search_EIT_table+0x46>
     504:	428c      	cmp	r4, r1
     506:	d001      	beq.n	50c <search_EIT_table+0x58>
     508:	1e4f      	subs	r7, r1, #1
     50a:	e7dc      	b.n	4c6 <search_EIT_table+0x12>
     50c:	f04f 0a00 	mov.w	sl, #0
     510:	4650      	mov	r0, sl
     512:	e8bd 87f0 	ldmia.w	sp!, {r4, r5, r6, r7, r8, r9, sl, pc}
     516:	bf00      	nop

00000518 <__gnu_unwind_get_pr_addr>:
     518:	2801      	cmp	r0, #1
     51a:	d009      	beq.n	530 <__gnu_unwind_get_pr_addr+0x18>
     51c:	2802      	cmp	r0, #2
     51e:	d005      	beq.n	52c <__gnu_unwind_get_pr_addr+0x14>
     520:	4b04      	ldr	r3, [pc, #16]	@ (534 <__gnu_unwind_get_pr_addr+0x1c>)
     522:	2800      	cmp	r0, #0
     524:	bf0c      	ite	eq
     526:	4618      	moveq	r0, r3
     528:	2000      	movne	r0, #0
     52a:	4770      	bx	lr
     52c:	4802      	ldr	r0, [pc, #8]	@ (538 <__gnu_unwind_get_pr_addr+0x20>)
     52e:	4770      	bx	lr
     530:	4802      	ldr	r0, [pc, #8]	@ (53c <__gnu_unwind_get_pr_addr+0x24>)
     532:	4770      	bx	lr
     534:	00000c09 	andeq	r0, r0, r9, lsl #24
     538:	00000c11 	andeq	r0, r0, r1, lsl ip
     53c:	00000c0d 	andeq	r0, r0, sp, lsl #24

00000540 <get_eit_entry>:
     540:	b530      	push	{r4, r5, lr}
     542:	4b22      	ldr	r3, [pc, #136]	@ (5cc <get_eit_entry+0x8c>)
     544:	4604      	mov	r4, r0
     546:	b083      	sub	sp, #12
     548:	1e8d      	subs	r5, r1, #2
     54a:	b33b      	cbz	r3, 59c <get_eit_entry+0x5c>
     54c:	4628      	mov	r0, r5
     54e:	a901      	add	r1, sp, #4
     550:	f3af 8000 	nop.w
     554:	b1e8      	cbz	r0, 592 <get_eit_entry+0x52>
     556:	9901      	ldr	r1, [sp, #4]
     558:	462a      	mov	r2, r5
     55a:	f7ff ffab 	bl	4b4 <search_EIT_table>
     55e:	4601      	mov	r1, r0
     560:	b1b8      	cbz	r0, 592 <get_eit_entry+0x52>
     562:	f7ff ff9d 	bl	4a0 <selfrel_offset31>
     566:	684b      	ldr	r3, [r1, #4]
     568:	64a0      	str	r0, [r4, #72]	@ 0x48
     56a:	2b01      	cmp	r3, #1
     56c:	d02b      	beq.n	5c6 <get_eit_entry+0x86>
     56e:	2b00      	cmp	r3, #0
     570:	db26      	blt.n	5c0 <get_eit_entry+0x80>
     572:	1d08      	adds	r0, r1, #4
     574:	f7ff ff94 	bl	4a0 <selfrel_offset31>
     578:	2300      	movs	r3, #0
     57a:	6523      	str	r3, [r4, #80]	@ 0x50
     57c:	6803      	ldr	r3, [r0, #0]
     57e:	64e0      	str	r0, [r4, #76]	@ 0x4c
     580:	2b00      	cmp	r3, #0
     582:	db12      	blt.n	5aa <get_eit_entry+0x6a>
     584:	f7ff ff8c 	bl	4a0 <selfrel_offset31>
     588:	4603      	mov	r3, r0
     58a:	2000      	movs	r0, #0
     58c:	6123      	str	r3, [r4, #16]
     58e:	b003      	add	sp, #12
     590:	bd30      	pop	{r4, r5, pc}
     592:	2300      	movs	r3, #0
     594:	2009      	movs	r0, #9
     596:	6123      	str	r3, [r4, #16]
     598:	b003      	add	sp, #12
     59a:	bd30      	pop	{r4, r5, pc}
     59c:	4b0c      	ldr	r3, [pc, #48]	@ (5d0 <get_eit_entry+0x90>)
     59e:	490d      	ldr	r1, [pc, #52]	@ (5d4 <get_eit_entry+0x94>)
     5a0:	4618      	mov	r0, r3
     5a2:	1ac9      	subs	r1, r1, r3
     5a4:	10c9      	asrs	r1, r1, #3
     5a6:	9101      	str	r1, [sp, #4]
     5a8:	e7d6      	b.n	558 <get_eit_entry+0x18>
     5aa:	f3c3 6003 	ubfx	r0, r3, #24, #4
     5ae:	f7ff ffb3 	bl	518 <__gnu_unwind_get_pr_addr>
     5b2:	1e03      	subs	r3, r0, #0
     5b4:	bf0c      	ite	eq
     5b6:	2009      	moveq	r0, #9
     5b8:	2000      	movne	r0, #0
     5ba:	6123      	str	r3, [r4, #16]
     5bc:	b003      	add	sp, #12
     5be:	bd30      	pop	{r4, r5, pc}
     5c0:	2301      	movs	r3, #1
     5c2:	1d08      	adds	r0, r1, #4
     5c4:	e7d9      	b.n	57a <get_eit_entry+0x3a>
     5c6:	2300      	movs	r3, #0
     5c8:	2005      	movs	r0, #5
     5ca:	e7df      	b.n	58c <get_eit_entry+0x4c>
     5cc:	00000000 	andeq	r0, r0, r0
     5d0:	00001594 	muleq	r0, r4, r5
     5d4:	00001654 	andeq	r1, r0, r4, asr r6

000005d8 <restore_non_core_regs>:
     5d8:	6803      	ldr	r3, [r0, #0]
     5da:	b510      	push	{r4, lr}
     5dc:	07da      	lsls	r2, r3, #31
     5de:	4604      	mov	r4, r0
     5e0:	d406      	bmi.n	5f0 <restore_non_core_regs+0x18>
     5e2:	079b      	lsls	r3, r3, #30
     5e4:	f100 0050 	add.w	r0, r0, #80	@ 0x50
     5e8:	d509      	bpl.n	5fe <restore_non_core_regs+0x26>
     5ea:	f000 fc9d 	bl	f28 <__gnu_Unwind_Restore_VFP_D>
     5ee:	6823      	ldr	r3, [r4, #0]
     5f0:	0759      	lsls	r1, r3, #29
     5f2:	d509      	bpl.n	608 <restore_non_core_regs+0x30>
     5f4:	071a      	lsls	r2, r3, #28
     5f6:	d50e      	bpl.n	616 <restore_non_core_regs+0x3e>
     5f8:	06db      	lsls	r3, r3, #27
     5fa:	d513      	bpl.n	624 <restore_non_core_regs+0x4c>
     5fc:	bd10      	pop	{r4, pc}
     5fe:	f000 fc8b 	bl	f18 <__gnu_Unwind_Restore_VFP>
     602:	6823      	ldr	r3, [r4, #0]
     604:	0759      	lsls	r1, r3, #29
     606:	d4f5      	bmi.n	5f4 <restore_non_core_regs+0x1c>
     608:	f104 00d8 	add.w	r0, r4, #216	@ 0xd8
     60c:	f000 fc94 	bl	f38 <__gnu_Unwind_Restore_VFP_D_16_to_31>
     610:	6823      	ldr	r3, [r4, #0]
     612:	071a      	lsls	r2, r3, #28
     614:	d4f0      	bmi.n	5f8 <restore_non_core_regs+0x20>
     616:	f504 70ac 	add.w	r0, r4, #344	@ 0x158
     61a:	f000 fc95 	bl	f48 <__gnu_Unwind_Restore_WMMXD>
     61e:	6823      	ldr	r3, [r4, #0]
     620:	06db      	lsls	r3, r3, #27
     622:	d4eb      	bmi.n	5fc <restore_non_core_regs+0x24>
     624:	f504 70ec 	add.w	r0, r4, #472	@ 0x1d8
     628:	e8bd 4010 	ldmia.w	sp!, {r4, lr}
     62c:	f000 bcd0 	b.w	fd0 <__gnu_Unwind_Restore_WMMXC>

00000630 <_Unwind_decode_typeinfo_ptr.constprop.0>:
     630:	4603      	mov	r3, r0
     632:	6800      	ldr	r0, [r0, #0]
     634:	b100      	cbz	r0, 638 <_Unwind_decode_typeinfo_ptr.constprop.0+0x8>
     636:	4418      	add	r0, r3
     638:	4770      	bx	lr
     63a:	bf00      	nop

0000063c <__gnu_unwind_24bit.isra.0>:
     63c:	2009      	movs	r0, #9
     63e:	4770      	bx	lr

00000640 <_Unwind_DebugHook>:
     640:	4770      	bx	lr
     642:	bf00      	nop

00000644 <unwind_phase2>:
     644:	b570      	push	{r4, r5, r6, lr}
     646:	4604      	mov	r4, r0
     648:	460e      	mov	r6, r1
     64a:	4620      	mov	r0, r4
     64c:	6c31      	ldr	r1, [r6, #64]	@ 0x40
     64e:	f7ff ff77 	bl	540 <get_eit_entry>
     652:	4605      	mov	r5, r0
     654:	b998      	cbnz	r0, 67e <unwind_phase2+0x3a>
     656:	f8d6 c040 	ldr.w	ip, [r6, #64]	@ 0x40
     65a:	4632      	mov	r2, r6
     65c:	4621      	mov	r1, r4
     65e:	2001      	movs	r0, #1
     660:	6923      	ldr	r3, [r4, #16]
     662:	f8c4 c014 	str.w	ip, [r4, #20]
     666:	4798      	blx	r3
     668:	2808      	cmp	r0, #8
     66a:	d0ee      	beq.n	64a <unwind_phase2+0x6>
     66c:	2807      	cmp	r0, #7
     66e:	d106      	bne.n	67e <unwind_phase2+0x3a>
     670:	4628      	mov	r0, r5
     672:	6c31      	ldr	r1, [r6, #64]	@ 0x40
     674:	f7ff ffe4 	bl	640 <_Unwind_DebugHook>
     678:	1d30      	adds	r0, r6, #4
     67a:	f000 fc41 	bl	f00 <__restore_core_regs>
     67e:	deff      	udf	#255	@ 0xff

00000680 <unwind_phase2_forced>:
     680:	e92d 47f0 	stmdb	sp!, {r4, r5, r6, r7, r8, r9, sl, lr}
     684:	f04f 0a00 	mov.w	sl, #0
     688:	f5ad 7d76 	sub.w	sp, sp, #984	@ 0x3d8
     68c:	f10d 0e0c 	add.w	lr, sp, #12
     690:	f101 0c04 	add.w	ip, r1, #4
     694:	68c7      	ldr	r7, [r0, #12]
     696:	f8d0 8018 	ldr.w	r8, [r0, #24]
     69a:	4606      	mov	r6, r0
     69c:	4614      	mov	r4, r2
     69e:	e8bc 000f 	ldmia.w	ip!, {r0, r1, r2, r3}
     6a2:	e8ae 000f 	stmia.w	lr!, {r0, r1, r2, r3}
     6a6:	e8bc 000f 	ldmia.w	ip!, {r0, r1, r2, r3}
     6aa:	e8ae 000f 	stmia.w	lr!, {r0, r1, r2, r3}
     6ae:	e8bc 000f 	ldmia.w	ip!, {r0, r1, r2, r3}
     6b2:	e8ae 000f 	stmia.w	lr!, {r0, r1, r2, r3}
     6b6:	e89c 000f 	ldmia.w	ip, {r0, r1, r2, r3}
     6ba:	ad02      	add	r5, sp, #8
     6bc:	e88e 000f 	stmia.w	lr, {r0, r1, r2, r3}
     6c0:	f8c5 a000 	str.w	sl, [r5]
     6c4:	e021      	b.n	70a <unwind_phase2_forced+0x8a>
     6c6:	6c2b      	ldr	r3, [r5, #64]	@ 0x40
     6c8:	f44f 72f4 	mov.w	r2, #488	@ 0x1e8
     6cc:	4629      	mov	r1, r5
     6ce:	6173      	str	r3, [r6, #20]
     6d0:	a87c      	add	r0, sp, #496	@ 0x1f0
     6d2:	f000 febd 	bl	1450 <memcpy>
     6d6:	4631      	mov	r1, r6
     6d8:	4650      	mov	r0, sl
     6da:	6933      	ldr	r3, [r6, #16]
     6dc:	aa7c      	add	r2, sp, #496	@ 0x1f0
     6de:	4798      	blx	r3
     6e0:	9c8a      	ldr	r4, [sp, #552]	@ 0x228
     6e2:	4682      	mov	sl, r0
     6e4:	64ac      	str	r4, [r5, #72]	@ 0x48
     6e6:	2001      	movs	r0, #1
     6e8:	4633      	mov	r3, r6
     6ea:	4632      	mov	r2, r6
     6ec:	4649      	mov	r1, r9
     6ee:	e9cd 5800 	strd	r5, r8, [sp]
     6f2:	47b8      	blx	r7
     6f4:	4604      	mov	r4, r0
     6f6:	bb30      	cbnz	r0, 746 <unwind_phase2_forced+0xc6>
     6f8:	f44f 72f4 	mov.w	r2, #488	@ 0x1e8
     6fc:	4628      	mov	r0, r5
     6fe:	a97c      	add	r1, sp, #496	@ 0x1f0
     700:	f000 fea6 	bl	1450 <memcpy>
     704:	f1ba 0f08 	cmp.w	sl, #8
     708:	d11a      	bne.n	740 <unwind_phase2_forced+0xc0>
     70a:	4630      	mov	r0, r6
     70c:	6c29      	ldr	r1, [r5, #64]	@ 0x40
     70e:	f7ff ff17 	bl	540 <get_eit_entry>
     712:	f104 0909 	add.w	r9, r4, #9
     716:	fa5f fa89 	uxtb.w	sl, r9
     71a:	4604      	mov	r4, r0
     71c:	2800      	cmp	r0, #0
     71e:	d0d2      	beq.n	6c6 <unwind_phase2_forced+0x46>
     720:	6ba9      	ldr	r1, [r5, #56]	@ 0x38
     722:	4633      	mov	r3, r6
     724:	64a9      	str	r1, [r5, #72]	@ 0x48
     726:	4632      	mov	r2, r6
     728:	2001      	movs	r0, #1
     72a:	e9cd 5800 	strd	r5, r8, [sp]
     72e:	f04a 0110 	orr.w	r1, sl, #16
     732:	47b8      	blx	r7
     734:	b938      	cbnz	r0, 746 <unwind_phase2_forced+0xc6>
     736:	4620      	mov	r0, r4
     738:	f50d 7d76 	add.w	sp, sp, #984	@ 0x3d8
     73c:	e8bd 87f0 	ldmia.w	sp!, {r4, r5, r6, r7, r8, r9, sl, pc}
     740:	f1ba 0f07 	cmp.w	sl, #7
     744:	d005      	beq.n	752 <unwind_phase2_forced+0xd2>
     746:	2409      	movs	r4, #9
     748:	4620      	mov	r0, r4
     74a:	f50d 7d76 	add.w	sp, sp, #984	@ 0x3d8
     74e:	e8bd 87f0 	ldmia.w	sp!, {r4, r5, r6, r7, r8, r9, sl, pc}
     752:	4620      	mov	r0, r4
     754:	6c29      	ldr	r1, [r5, #64]	@ 0x40
     756:	f7ff ff73 	bl	640 <_Unwind_DebugHook>
     75a:	a803      	add	r0, sp, #12
     75c:	f000 fbd0 	bl	f00 <__restore_core_regs>

00000760 <_Unwind_GetCFA>:
     760:	6c80      	ldr	r0, [r0, #72]	@ 0x48
     762:	4770      	bx	lr

00000764 <__gnu_Unwind_RaiseException>:
     764:	b5f0      	push	{r4, r5, r6, r7, lr}
     766:	f04f 37ff 	mov.w	r7, #4294967295	@ 0xffffffff
     76a:	6bcb      	ldr	r3, [r1, #60]	@ 0x3c
     76c:	b0fb      	sub	sp, #492	@ 0x1ec
     76e:	640b      	str	r3, [r1, #64]	@ 0x40
     770:	ac01      	add	r4, sp, #4
     772:	f101 0c04 	add.w	ip, r1, #4
     776:	460e      	mov	r6, r1
     778:	4605      	mov	r5, r0
     77a:	e8bc 000f 	ldmia.w	ip!, {r0, r1, r2, r3}
     77e:	c40f      	stmia	r4!, {r0, r1, r2, r3}
     780:	e8bc 000f 	ldmia.w	ip!, {r0, r1, r2, r3}
     784:	c40f      	stmia	r4!, {r0, r1, r2, r3}
     786:	e8bc 000f 	ldmia.w	ip!, {r0, r1, r2, r3}
     78a:	c40f      	stmia	r4!, {r0, r1, r2, r3}
     78c:	e89c 000f 	ldmia.w	ip, {r0, r1, r2, r3}
     790:	e884 000f 	stmia.w	r4, {r0, r1, r2, r3}
     794:	9700      	str	r7, [sp, #0]
     796:	e006      	b.n	7a6 <__gnu_Unwind_RaiseException+0x42>
     798:	466a      	mov	r2, sp
     79a:	4629      	mov	r1, r5
     79c:	692b      	ldr	r3, [r5, #16]
     79e:	4798      	blx	r3
     7a0:	2808      	cmp	r0, #8
     7a2:	4604      	mov	r4, r0
     7a4:	d108      	bne.n	7b8 <__gnu_Unwind_RaiseException+0x54>
     7a6:	4628      	mov	r0, r5
     7a8:	9910      	ldr	r1, [sp, #64]	@ 0x40
     7aa:	f7ff fec9 	bl	540 <get_eit_entry>
     7ae:	2800      	cmp	r0, #0
     7b0:	d0f2      	beq.n	798 <__gnu_Unwind_RaiseException+0x34>
     7b2:	2009      	movs	r0, #9
     7b4:	b07b      	add	sp, #492	@ 0x1ec
     7b6:	bdf0      	pop	{r4, r5, r6, r7, pc}
     7b8:	4668      	mov	r0, sp
     7ba:	f7ff ff0d 	bl	5d8 <restore_non_core_regs>
     7be:	2c06      	cmp	r4, #6
     7c0:	d1f7      	bne.n	7b2 <__gnu_Unwind_RaiseException+0x4e>
     7c2:	4631      	mov	r1, r6
     7c4:	4628      	mov	r0, r5
     7c6:	f7ff ff3d 	bl	644 <unwind_phase2>
     7ca:	bf00      	nop

000007cc <__gnu_Unwind_ForcedUnwind>:
     7cc:	b410      	push	{r4}
     7ce:	4614      	mov	r4, r2
     7d0:	6184      	str	r4, [r0, #24]
     7d2:	6bdc      	ldr	r4, [r3, #60]	@ 0x3c
     7d4:	60c1      	str	r1, [r0, #12]
     7d6:	2200      	movs	r2, #0
     7d8:	641c      	str	r4, [r3, #64]	@ 0x40
     7da:	4619      	mov	r1, r3
     7dc:	bc10      	pop	{r4}
     7de:	e74f      	b.n	680 <unwind_phase2_forced>

000007e0 <__gnu_Unwind_Resume>:
     7e0:	b570      	push	{r4, r5, r6, lr}
     7e2:	6943      	ldr	r3, [r0, #20]
     7e4:	68c6      	ldr	r6, [r0, #12]
     7e6:	640b      	str	r3, [r1, #64]	@ 0x40
     7e8:	b9ae      	cbnz	r6, 816 <__gnu_Unwind_Resume+0x36>
     7ea:	460a      	mov	r2, r1
     7ec:	6903      	ldr	r3, [r0, #16]
     7ee:	4604      	mov	r4, r0
     7f0:	460d      	mov	r5, r1
     7f2:	4601      	mov	r1, r0
     7f4:	2002      	movs	r0, #2
     7f6:	4798      	blx	r3
     7f8:	2807      	cmp	r0, #7
     7fa:	d005      	beq.n	808 <__gnu_Unwind_Resume+0x28>
     7fc:	2808      	cmp	r0, #8
     7fe:	d10e      	bne.n	81e <__gnu_Unwind_Resume+0x3e>
     800:	4629      	mov	r1, r5
     802:	4620      	mov	r0, r4
     804:	f7ff ff1e 	bl	644 <unwind_phase2>
     808:	4630      	mov	r0, r6
     80a:	6c29      	ldr	r1, [r5, #64]	@ 0x40
     80c:	f7ff ff18 	bl	640 <_Unwind_DebugHook>
     810:	1d28      	adds	r0, r5, #4
     812:	f000 fb75 	bl	f00 <__restore_core_regs>
     816:	2201      	movs	r2, #1
     818:	f7ff ff32 	bl	680 <unwind_phase2_forced>
     81c:	deff      	udf	#255	@ 0xff
     81e:	deff      	udf	#255	@ 0xff

00000820 <__gnu_Unwind_Resume_or_Rethrow>:
     820:	68c2      	ldr	r2, [r0, #12]
     822:	b12a      	cbz	r2, 830 <__gnu_Unwind_Resume_or_Rethrow+0x10>
     824:	f8d1 c03c 	ldr.w	ip, [r1, #60]	@ 0x3c
     828:	2200      	movs	r2, #0
     82a:	f8c1 c040 	str.w	ip, [r1, #64]	@ 0x40
     82e:	e727      	b.n	680 <unwind_phase2_forced>
     830:	e798      	b.n	764 <__gnu_Unwind_RaiseException>
     832:	bf00      	nop

00000834 <_Unwind_Complete>:
     834:	4770      	bx	lr
     836:	bf00      	nop

00000838 <_Unwind_DeleteException>:
     838:	6883      	ldr	r3, [r0, #8]
     83a:	4601      	mov	r1, r0
     83c:	b10b      	cbz	r3, 842 <_Unwind_DeleteException+0xa>
     83e:	2001      	movs	r0, #1
     840:	4718      	bx	r3
     842:	4770      	bx	lr

00000844 <_Unwind_VRS_Get>:
     844:	2905      	cmp	r1, #5
     846:	d815      	bhi.n	874 <_Unwind_VRS_Get+0x30>
     848:	e8df f001 	tbb	[pc, r1]
     84c:	0314030a 	tsteq	r4, #671088640	@ 0x28000000
     850:	20010503 	andcs	r0, r1, r3, lsl #10
     854:	4770      	bx	lr
     856:	6c43      	ldr	r3, [r0, #68]	@ 0x44
     858:	9a00      	ldr	r2, [sp, #0]
     85a:	2000      	movs	r0, #0
     85c:	6013      	str	r3, [r2, #0]
     85e:	4770      	bx	lr
     860:	b943      	cbnz	r3, 874 <_Unwind_VRS_Get+0x30>
     862:	2a0f      	cmp	r2, #15
     864:	d806      	bhi.n	874 <_Unwind_VRS_Get+0x30>
     866:	eb00 0282 	add.w	r2, r0, r2, lsl #2
     86a:	6853      	ldr	r3, [r2, #4]
     86c:	9a00      	ldr	r2, [sp, #0]
     86e:	2000      	movs	r0, #0
     870:	6013      	str	r3, [r2, #0]
     872:	4770      	bx	lr
     874:	2002      	movs	r0, #2
     876:	4770      	bx	lr

00000878 <_Unwind_GetGR>:
     878:	2300      	movs	r3, #0
     87a:	b500      	push	{lr}
     87c:	b085      	sub	sp, #20
     87e:	460a      	mov	r2, r1
     880:	a903      	add	r1, sp, #12
     882:	9100      	str	r1, [sp, #0]
     884:	4619      	mov	r1, r3
     886:	f7ff ffdd 	bl	844 <_Unwind_VRS_Get>
     88a:	9803      	ldr	r0, [sp, #12]
     88c:	b005      	add	sp, #20
     88e:	f85d fb04 	ldr.w	pc, [sp], #4
     892:	bf00      	nop

00000894 <_Unwind_VRS_Set>:
     894:	2905      	cmp	r1, #5
     896:	d815      	bhi.n	8c4 <_Unwind_VRS_Set+0x30>
     898:	e8df f001 	tbb	[pc, r1]
     89c:	0314030a 	tsteq	r4, #671088640	@ 0x28000000
     8a0:	20010503 	andcs	r0, r1, r3, lsl #10
     8a4:	4770      	bx	lr
     8a6:	9b00      	ldr	r3, [sp, #0]
     8a8:	681b      	ldr	r3, [r3, #0]
     8aa:	6443      	str	r3, [r0, #68]	@ 0x44
     8ac:	2000      	movs	r0, #0
     8ae:	4770      	bx	lr
     8b0:	b943      	cbnz	r3, 8c4 <_Unwind_VRS_Set+0x30>
     8b2:	2a0f      	cmp	r2, #15
     8b4:	d806      	bhi.n	8c4 <_Unwind_VRS_Set+0x30>
     8b6:	9b00      	ldr	r3, [sp, #0]
     8b8:	eb00 0282 	add.w	r2, r0, r2, lsl #2
     8bc:	681b      	ldr	r3, [r3, #0]
     8be:	2000      	movs	r0, #0
     8c0:	6053      	str	r3, [r2, #4]
     8c2:	4770      	bx	lr
     8c4:	2002      	movs	r0, #2
     8c6:	4770      	bx	lr

000008c8 <_Unwind_SetGR>:
     8c8:	2300      	movs	r3, #0
     8ca:	b510      	push	{r4, lr}
     8cc:	b084      	sub	sp, #16
     8ce:	ac03      	add	r4, sp, #12
     8d0:	9203      	str	r2, [sp, #12]
     8d2:	9400      	str	r4, [sp, #0]
     8d4:	460a      	mov	r2, r1
     8d6:	4619      	mov	r1, r3
     8d8:	f7ff ffdc 	bl	894 <_Unwind_VRS_Set>
     8dc:	b004      	add	sp, #16
     8de:	bd10      	pop	{r4, pc}

000008e0 <__gnu_Unwind_Backtrace>:
     8e0:	b570      	push	{r4, r5, r6, lr}
     8e2:	f04f 36ff 	mov.w	r6, #4294967295	@ 0xffffffff
     8e6:	6bd3      	ldr	r3, [r2, #60]	@ 0x3c
     8e8:	f5ad 7d10 	sub.w	sp, sp, #576	@ 0x240
     8ec:	6413      	str	r3, [r2, #64]	@ 0x40
     8ee:	f10d 0e5c 	add.w	lr, sp, #92	@ 0x5c
     8f2:	f102 0c04 	add.w	ip, r2, #4
     8f6:	4605      	mov	r5, r0
     8f8:	460c      	mov	r4, r1
     8fa:	e8bc 000f 	ldmia.w	ip!, {r0, r1, r2, r3}
     8fe:	e8ae 000f 	stmia.w	lr!, {r0, r1, r2, r3}
     902:	e8bc 000f 	ldmia.w	ip!, {r0, r1, r2, r3}
     906:	e8ae 000f 	stmia.w	lr!, {r0, r1, r2, r3}
     90a:	e8bc 000f 	ldmia.w	ip!, {r0, r1, r2, r3}
     90e:	e8ae 000f 	stmia.w	lr!, {r0, r1, r2, r3}
     912:	e89c 000f 	ldmia.w	ip, {r0, r1, r2, r3}
     916:	e88e 000f 	stmia.w	lr, {r0, r1, r2, r3}
     91a:	9616      	str	r6, [sp, #88]	@ 0x58
     91c:	e012      	b.n	944 <__gnu_Unwind_Backtrace+0x64>
     91e:	210c      	movs	r1, #12
     920:	a816      	add	r0, sp, #88	@ 0x58
     922:	466a      	mov	r2, sp
     924:	f7ff ffd0 	bl	8c8 <_Unwind_SetGR>
     928:	4621      	mov	r1, r4
     92a:	a816      	add	r0, sp, #88	@ 0x58
     92c:	47a8      	blx	r5
     92e:	b978      	cbnz	r0, 950 <__gnu_Unwind_Backtrace+0x70>
     930:	4669      	mov	r1, sp
     932:	2008      	movs	r0, #8
     934:	9b04      	ldr	r3, [sp, #16]
     936:	aa16      	add	r2, sp, #88	@ 0x58
     938:	4798      	blx	r3
     93a:	2805      	cmp	r0, #5
     93c:	4606      	mov	r6, r0
     93e:	d008      	beq.n	952 <__gnu_Unwind_Backtrace+0x72>
     940:	2809      	cmp	r0, #9
     942:	d005      	beq.n	950 <__gnu_Unwind_Backtrace+0x70>
     944:	4668      	mov	r0, sp
     946:	9926      	ldr	r1, [sp, #152]	@ 0x98
     948:	f7ff fdfa 	bl	540 <get_eit_entry>
     94c:	2800      	cmp	r0, #0
     94e:	d0e6      	beq.n	91e <__gnu_Unwind_Backtrace+0x3e>
     950:	2609      	movs	r6, #9
     952:	a816      	add	r0, sp, #88	@ 0x58
     954:	f7ff fe40 	bl	5d8 <restore_non_core_regs>
     958:	4630      	mov	r0, r6
     95a:	f50d 7d10 	add.w	sp, sp, #576	@ 0x240
     95e:	bd70      	pop	{r4, r5, r6, pc}

00000960 <__gnu_unwind_pr_common>:
     960:	e92d 4ff0 	stmdb	sp!, {r4, r5, r6, r7, r8, r9, sl, fp, lr}
     964:	4616      	mov	r6, r2
     966:	6cca      	ldr	r2, [r1, #76]	@ 0x4c
     968:	460d      	mov	r5, r1
     96a:	f852 1b04 	ldr.w	r1, [r2], #4
     96e:	b089      	sub	sp, #36	@ 0x24
     970:	f000 0c03 	and.w	ip, r0, #3
     974:	9206      	str	r2, [sp, #24]
     976:	2b00      	cmp	r3, #0
     978:	d079      	beq.n	a6e <__gnu_unwind_pr_common+0x10e>
     97a:	2402      	movs	r4, #2
     97c:	0c0f      	lsrs	r7, r1, #16
     97e:	f88d 701d 	strb.w	r7, [sp, #29]
     982:	0409      	lsls	r1, r1, #16
     984:	b2ff      	uxtb	r7, r7
     986:	9105      	str	r1, [sp, #20]
     988:	eb02 0287 	add.w	r2, r2, r7, lsl #2
     98c:	6d29      	ldr	r1, [r5, #80]	@ 0x50
     98e:	f1bc 0f02 	cmp.w	ip, #2
     992:	bf08      	it	eq
     994:	6baa      	ldreq	r2, [r5, #56]	@ 0x38
     996:	f011 0801 	ands.w	r8, r1, #1
     99a:	f88d 401c 	strb.w	r4, [sp, #28]
     99e:	d009      	beq.n	9b4 <__gnu_unwind_pr_common+0x54>
     9a0:	4630      	mov	r0, r6
     9a2:	a905      	add	r1, sp, #20
     9a4:	f000 fbae 	bl	1104 <__gnu_unwind_execute>
     9a8:	2800      	cmp	r0, #0
     9aa:	d156      	bne.n	a5a <__gnu_unwind_pr_common+0xfa>
     9ac:	2008      	movs	r0, #8
     9ae:	b009      	add	sp, #36	@ 0x24
     9b0:	e8bd 8ff0 	ldmia.w	sp!, {r4, r5, r6, r7, r8, r9, sl, fp, pc}
     9b4:	6817      	ldr	r7, [r2, #0]
     9b6:	2f00      	cmp	r7, #0
     9b8:	d0f2      	beq.n	9a0 <__gnu_unwind_pr_common+0x40>
     9ba:	46e3      	mov	fp, ip
     9bc:	469a      	mov	sl, r3
     9be:	f000 0108 	and.w	r1, r0, #8
     9c2:	e9cd 1801 	strd	r1, r8, [sp, #4]
     9c6:	f1ba 0f02 	cmp.w	sl, #2
     9ca:	d04c      	beq.n	a66 <__gnu_unwind_pr_common+0x106>
     9cc:	8817      	ldrh	r7, [r2, #0]
     9ce:	8854      	ldrh	r4, [r2, #2]
     9d0:	f102 0904 	add.w	r9, r2, #4
     9d4:	6caa      	ldr	r2, [r5, #72]	@ 0x48
     9d6:	f024 0301 	bic.w	r3, r4, #1
     9da:	210f      	movs	r1, #15
     9dc:	4630      	mov	r0, r6
     9de:	eb03 0802 	add.w	r8, r3, r2
     9e2:	f7ff ff49 	bl	878 <_Unwind_GetGR>
     9e6:	4580      	cmp	r8, r0
     9e8:	d83b      	bhi.n	a62 <__gnu_unwind_pr_common+0x102>
     9ea:	f027 0201 	bic.w	r2, r7, #1
     9ee:	eb02 0308 	add.w	r3, r2, r8
     9f2:	4283      	cmp	r3, r0
     9f4:	bf94      	ite	ls
     9f6:	2300      	movls	r3, #0
     9f8:	2301      	movhi	r3, #1
     9fa:	0064      	lsls	r4, r4, #1
     9fc:	f004 0402 	and.w	r4, r4, #2
     a00:	f007 0701 	and.w	r7, r7, #1
     a04:	4327      	orrs	r7, r4
     a06:	2f01      	cmp	r7, #1
     a08:	d04e      	beq.n	aa8 <__gnu_unwind_pr_common+0x148>
     a0a:	2f02      	cmp	r7, #2
     a0c:	d035      	beq.n	a7a <__gnu_unwind_pr_common+0x11a>
     a0e:	bb27      	cbnz	r7, a5a <__gnu_unwind_pr_common+0xfa>
     a10:	f1bb 0f00 	cmp.w	fp, #0
     a14:	d002      	beq.n	a1c <__gnu_unwind_pr_common+0xbc>
     a16:	2b00      	cmp	r3, #0
     a18:	f040 80d4 	bne.w	bc4 <__gnu_unwind_pr_common+0x264>
     a1c:	f109 0204 	add.w	r2, r9, #4
     a20:	6817      	ldr	r7, [r2, #0]
     a22:	2f00      	cmp	r7, #0
     a24:	d1cf      	bne.n	9c6 <__gnu_unwind_pr_common+0x66>
     a26:	4630      	mov	r0, r6
     a28:	a905      	add	r1, sp, #20
     a2a:	f8dd 8008 	ldr.w	r8, [sp, #8]
     a2e:	f000 fb69 	bl	1104 <__gnu_unwind_execute>
     a32:	b990      	cbnz	r0, a5a <__gnu_unwind_pr_common+0xfa>
     a34:	f1b8 0f00 	cmp.w	r8, #0
     a38:	d0b8      	beq.n	9ac <__gnu_unwind_pr_common+0x4c>
     a3a:	210f      	movs	r1, #15
     a3c:	4630      	mov	r0, r6
     a3e:	f7ff ff1b 	bl	878 <_Unwind_GetGR>
     a42:	210e      	movs	r1, #14
     a44:	4602      	mov	r2, r0
     a46:	4630      	mov	r0, r6
     a48:	f7ff ff3e 	bl	8c8 <_Unwind_SetGR>
     a4c:	210f      	movs	r1, #15
     a4e:	4630      	mov	r0, r6
     a50:	4a6c      	ldr	r2, [pc, #432]	@ (c04 <__HEAP_SIZE+0x4>)
     a52:	f7ff ff39 	bl	8c8 <_Unwind_SetGR>
     a56:	2007      	movs	r0, #7
     a58:	e000      	b.n	a5c <__gnu_unwind_pr_common+0xfc>
     a5a:	2009      	movs	r0, #9
     a5c:	b009      	add	sp, #36	@ 0x24
     a5e:	e8bd 8ff0 	ldmia.w	sp!, {r4, r5, r6, r7, r8, r9, sl, fp, pc}
     a62:	2300      	movs	r3, #0
     a64:	e7c9      	b.n	9fa <__gnu_unwind_pr_common+0x9a>
     a66:	6854      	ldr	r4, [r2, #4]
     a68:	f102 0908 	add.w	r9, r2, #8
     a6c:	e7b2      	b.n	9d4 <__gnu_unwind_pr_common+0x74>
     a6e:	0209      	lsls	r1, r1, #8
     a70:	2403      	movs	r4, #3
     a72:	9105      	str	r1, [sp, #20]
     a74:	f88d 301d 	strb.w	r3, [sp, #29]
     a78:	e788      	b.n	98c <__gnu_unwind_pr_common+0x2c>
     a7a:	f8d9 4000 	ldr.w	r4, [r9]
     a7e:	f024 4800 	bic.w	r8, r4, #2147483648	@ 0x80000000
     a82:	f1bb 0f00 	cmp.w	fp, #0
     a86:	d147      	bne.n	b18 <__gnu_unwind_pr_common+0x1b8>
     a88:	b12b      	cbz	r3, a96 <__gnu_unwind_pr_common+0x136>
     a8a:	9b01      	ldr	r3, [sp, #4]
     a8c:	2b00      	cmp	r3, #0
     a8e:	d05c      	beq.n	b4a <__gnu_unwind_pr_common+0x1ea>
     a90:	f1b8 0f00 	cmp.w	r8, #0
     a94:	d059      	beq.n	b4a <__gnu_unwind_pr_common+0x1ea>
     a96:	2c00      	cmp	r4, #0
     a98:	da01      	bge.n	a9e <__gnu_unwind_pr_common+0x13e>
     a9a:	f109 0904 	add.w	r9, r9, #4
     a9e:	f108 0201 	add.w	r2, r8, #1
     aa2:	eb09 0282 	add.w	r2, r9, r2, lsl #2
     aa6:	e7bb      	b.n	a20 <__gnu_unwind_pr_common+0xc0>
     aa8:	f1bb 0f00 	cmp.w	fp, #0
     aac:	d11c      	bne.n	ae8 <__gnu_unwind_pr_common+0x188>
     aae:	b1c3      	cbz	r3, ae2 <__gnu_unwind_pr_common+0x182>
     ab0:	f8d9 3004 	ldr.w	r3, [r9, #4]
     ab4:	f8d9 2000 	ldr.w	r2, [r9]
     ab8:	1c99      	adds	r1, r3, #2
     aba:	ea4f 72d2 	mov.w	r2, r2, lsr #31
     abe:	d0cc      	beq.n	a5a <__gnu_unwind_pr_common+0xfa>
     ac0:	f105 0458 	add.w	r4, r5, #88	@ 0x58
     ac4:	3301      	adds	r3, #1
     ac6:	9404      	str	r4, [sp, #16]
     ac8:	f000 808f 	beq.w	bea <__gnu_unwind_pr_common+0x28a>
     acc:	f109 0004 	add.w	r0, r9, #4
     ad0:	f7ff fdae 	bl	630 <_Unwind_decode_typeinfo_ptr.constprop.0>
     ad4:	ab04      	add	r3, sp, #16
     ad6:	4601      	mov	r1, r0
     ad8:	4628      	mov	r0, r5
     ada:	f3af 8000 	nop.w
     ade:	2800      	cmp	r0, #0
     ae0:	d159      	bne.n	b96 <__gnu_unwind_pr_common+0x236>
     ae2:	f109 0208 	add.w	r2, r9, #8
     ae6:	e79b      	b.n	a20 <__gnu_unwind_pr_common+0xc0>
     ae8:	210d      	movs	r1, #13
     aea:	4630      	mov	r0, r6
     aec:	f7ff fec4 	bl	878 <_Unwind_GetGR>
     af0:	6a2c      	ldr	r4, [r5, #32]
     af2:	4284      	cmp	r4, r0
     af4:	d1f5      	bne.n	ae2 <__gnu_unwind_pr_common+0x182>
     af6:	6aab      	ldr	r3, [r5, #40]	@ 0x28
     af8:	4599      	cmp	r9, r3
     afa:	d1f2      	bne.n	ae2 <__gnu_unwind_pr_common+0x182>
     afc:	4648      	mov	r0, r9
     afe:	f7ff fccf 	bl	4a0 <selfrel_offset31>
     b02:	210f      	movs	r1, #15
     b04:	4602      	mov	r2, r0
     b06:	4630      	mov	r0, r6
     b08:	f7ff fede 	bl	8c8 <_Unwind_SetGR>
     b0c:	462a      	mov	r2, r5
     b0e:	2100      	movs	r1, #0
     b10:	4630      	mov	r0, r6
     b12:	f7ff fed9 	bl	8c8 <_Unwind_SetGR>
     b16:	e79e      	b.n	a56 <__gnu_unwind_pr_common+0xf6>
     b18:	210d      	movs	r1, #13
     b1a:	4630      	mov	r0, r6
     b1c:	f7ff feac 	bl	878 <_Unwind_GetGR>
     b20:	6a2f      	ldr	r7, [r5, #32]
     b22:	4287      	cmp	r7, r0
     b24:	d1b7      	bne.n	a96 <__gnu_unwind_pr_common+0x136>
     b26:	6aab      	ldr	r3, [r5, #40]	@ 0x28
     b28:	4599      	cmp	r9, r3
     b2a:	d1b4      	bne.n	a96 <__gnu_unwind_pr_common+0x136>
     b2c:	2400      	movs	r4, #0
     b2e:	2304      	movs	r3, #4
     b30:	e9c5 430b 	strd	r4, r3, [r5, #44]	@ 0x2c
     b34:	444b      	add	r3, r9
     b36:	f8c5 8028 	str.w	r8, [r5, #40]	@ 0x28
     b3a:	636b      	str	r3, [r5, #52]	@ 0x34
     b3c:	f8d9 3000 	ldr.w	r3, [r9]
     b40:	42a3      	cmp	r3, r4
     b42:	db59      	blt.n	bf8 <__gnu_unwind_pr_common+0x298>
     b44:	2301      	movs	r3, #1
     b46:	9302      	str	r3, [sp, #8]
     b48:	e7a9      	b.n	a9e <__gnu_unwind_pr_common+0x13e>
     b4a:	f105 0358 	add.w	r3, r5, #88	@ 0x58
     b4e:	f8cd b00c 	str.w	fp, [sp, #12]
     b52:	2400      	movs	r4, #0
     b54:	46b3      	mov	fp, r6
     b56:	f109 0704 	add.w	r7, r9, #4
     b5a:	461e      	mov	r6, r3
     b5c:	e00b      	b.n	b76 <__gnu_unwind_pr_common+0x216>
     b5e:	4638      	mov	r0, r7
     b60:	9604      	str	r6, [sp, #16]
     b62:	f7ff fd65 	bl	630 <_Unwind_decode_typeinfo_ptr.constprop.0>
     b66:	2200      	movs	r2, #0
     b68:	4601      	mov	r1, r0
     b6a:	ab04      	add	r3, sp, #16
     b6c:	4628      	mov	r0, r5
     b6e:	f3af 8000 	nop.w
     b72:	3704      	adds	r7, #4
     b74:	bb00      	cbnz	r0, bb8 <__gnu_unwind_pr_common+0x258>
     b76:	4544      	cmp	r4, r8
     b78:	f104 0401 	add.w	r4, r4, #1
     b7c:	d1ef      	bne.n	b5e <__gnu_unwind_pr_common+0x1fe>
     b7e:	210d      	movs	r1, #13
     b80:	4658      	mov	r0, fp
     b82:	f7ff fe79 	bl	878 <_Unwind_GetGR>
     b86:	4602      	mov	r2, r0
     b88:	9b04      	ldr	r3, [sp, #16]
     b8a:	2006      	movs	r0, #6
     b8c:	e9c5 2308 	strd	r2, r3, [r5, #32]
     b90:	f8c5 9028 	str.w	r9, [r5, #40]	@ 0x28
     b94:	e762      	b.n	a5c <__gnu_unwind_pr_common+0xfc>
     b96:	4604      	mov	r4, r0
     b98:	210d      	movs	r1, #13
     b9a:	4630      	mov	r0, r6
     b9c:	f7ff fe6c 	bl	878 <_Unwind_GetGR>
     ba0:	9e04      	ldr	r6, [sp, #16]
     ba2:	2c02      	cmp	r4, #2
     ba4:	bf08      	it	eq
     ba6:	62ee      	streq	r6, [r5, #44]	@ 0x2c
     ba8:	6228      	str	r0, [r5, #32]
     baa:	bf08      	it	eq
     bac:	f105 062c 	addeq.w	r6, r5, #44	@ 0x2c
     bb0:	2006      	movs	r0, #6
     bb2:	e9c5 6909 	strd	r6, r9, [r5, #36]	@ 0x24
     bb6:	e751      	b.n	a5c <__gnu_unwind_pr_common+0xfc>
     bb8:	465e      	mov	r6, fp
     bba:	f8d9 4000 	ldr.w	r4, [r9]
     bbe:	f8dd b00c 	ldr.w	fp, [sp, #12]
     bc2:	e768      	b.n	a96 <__gnu_unwind_pr_common+0x136>
     bc4:	4648      	mov	r0, r9
     bc6:	f7ff fc6b 	bl	4a0 <selfrel_offset31>
     bca:	f109 0204 	add.w	r2, r9, #4
     bce:	4604      	mov	r4, r0
     bd0:	63aa      	str	r2, [r5, #56]	@ 0x38
     bd2:	4628      	mov	r0, r5
     bd4:	f3af 8000 	nop.w
     bd8:	2800      	cmp	r0, #0
     bda:	f43f af3e 	beq.w	a5a <__gnu_unwind_pr_common+0xfa>
     bde:	4622      	mov	r2, r4
     be0:	210f      	movs	r1, #15
     be2:	4630      	mov	r0, r6
     be4:	f7ff fe70 	bl	8c8 <_Unwind_SetGR>
     be8:	e735      	b.n	a56 <__gnu_unwind_pr_common+0xf6>
     bea:	4630      	mov	r0, r6
     bec:	210d      	movs	r1, #13
     bee:	f7ff fe43 	bl	878 <_Unwind_GetGR>
     bf2:	4626      	mov	r6, r4
     bf4:	6228      	str	r0, [r5, #32]
     bf6:	e7db      	b.n	bb0 <__gnu_unwind_pr_common+0x250>
     bf8:	f108 0201 	add.w	r2, r8, #1
     bfc:	eb09 0082 	add.w	r0, r9, r2, lsl #2
     c00:	e77d      	b.n	afe <__gnu_unwind_pr_common+0x19e>
     c02:	bf00      	nop
     c04:	00000000 	andeq	r0, r0, r0

00000c08 <__aeabi_unwind_cpp_pr0>:
     c08:	2300      	movs	r3, #0
     c0a:	e6a9      	b.n	960 <__gnu_unwind_pr_common>

00000c0c <__aeabi_unwind_cpp_pr1>:
     c0c:	2301      	movs	r3, #1
     c0e:	e6a7      	b.n	960 <__gnu_unwind_pr_common>

00000c10 <__aeabi_unwind_cpp_pr2>:
     c10:	2302      	movs	r3, #2
     c12:	e6a5      	b.n	960 <__gnu_unwind_pr_common>

00000c14 <_Unwind_VRS_Pop>:
     c14:	e92d 41f0 	stmdb	sp!, {r4, r5, r6, r7, r8, lr}
     c18:	4605      	mov	r5, r0
     c1a:	4614      	mov	r4, r2
     c1c:	b0c4      	sub	sp, #272	@ 0x110
     c1e:	2905      	cmp	r1, #5
     c20:	f200 80d7 	bhi.w	dd2 <_Unwind_VRS_Pop+0x1be>
     c24:	e8df f011 	tbh	[pc, r1, lsl #1]
     c28:	002a0012 	eoreq	r0, sl, r2, lsl r0
     c2c:	006900d5 	ldrdeq	r0, [r9], #-5	@ <UNPREDICTABLE>
     c30:	00060090 	muleq	r6, r0, r0
     c34:	6b83      	ldr	r3, [r0, #56]	@ 0x38
     c36:	2c00      	cmp	r4, #0
     c38:	f040 80cb 	bne.w	dd2 <_Unwind_VRS_Pop+0x1be>
     c3c:	f853 2b04 	ldr.w	r2, [r3], #4
     c40:	6442      	str	r2, [r0, #68]	@ 0x44
     c42:	6383      	str	r3, [r0, #56]	@ 0x38
     c44:	2000      	movs	r0, #0
     c46:	b044      	add	sp, #272	@ 0x110
     c48:	e8bd 81f0 	ldmia.w	sp!, {r4, r5, r6, r7, r8, pc}
     c4c:	2b00      	cmp	r3, #0
     c4e:	f040 80c0 	bne.w	dd2 <_Unwind_VRS_Pop+0x1be>
     c52:	f04f 0e01 	mov.w	lr, #1
     c56:	6b81      	ldr	r1, [r0, #56]	@ 0x38
     c58:	1d2a      	adds	r2, r5, #4
     c5a:	b2a0      	uxth	r0, r4
     c5c:	fa0e fc03 	lsl.w	ip, lr, r3
     c60:	ea1c 0f00 	tst.w	ip, r0
     c64:	bf1c      	itt	ne
     c66:	f851 6b04 	ldrne.w	r6, [r1], #4
     c6a:	f842 6023 	strne.w	r6, [r2, r3, lsl #2]
     c6e:	3301      	adds	r3, #1
     c70:	2b10      	cmp	r3, #16
     c72:	d1f3      	bne.n	c5c <_Unwind_VRS_Pop+0x48>
     c74:	04a0      	lsls	r0, r4, #18
     c76:	d4e5      	bmi.n	c44 <_Unwind_VRS_Pop+0x30>
     c78:	63a9      	str	r1, [r5, #56]	@ 0x38
     c7a:	e7e3      	b.n	c44 <_Unwind_VRS_Pop+0x30>
     c7c:	2b01      	cmp	r3, #1
     c7e:	ea4f 4714 	mov.w	r7, r4, lsr #16
     c82:	b2a4      	uxth	r4, r4
     c84:	f000 8085 	beq.w	d92 <_Unwind_VRS_Pop+0x17e>
     c88:	2b05      	cmp	r3, #5
     c8a:	f040 80a2 	bne.w	dd2 <_Unwind_VRS_Pop+0x1be>
     c8e:	eb07 0804 	add.w	r8, r7, r4
     c92:	f1b8 0f20 	cmp.w	r8, #32
     c96:	f200 809c 	bhi.w	dd2 <_Unwind_VRS_Pop+0x1be>
     c9a:	2f0f      	cmp	r7, #15
     c9c:	f240 809b 	bls.w	dd6 <_Unwind_VRS_Pop+0x1c2>
     ca0:	2c00      	cmp	r4, #0
     ca2:	d0cf      	beq.n	c44 <_Unwind_VRS_Pop+0x30>
     ca4:	6802      	ldr	r2, [r0, #0]
     ca6:	0756      	lsls	r6, r2, #29
     ca8:	f100 811a 	bmi.w	ee0 <_Unwind_VRS_Pop+0x2cc>
     cac:	9301      	str	r3, [sp, #4]
     cae:	ae02      	add	r6, sp, #8
     cb0:	4630      	mov	r0, r6
     cb2:	f000 f945 	bl	f40 <__gnu_Unwind_Save_VFP_D_16_to_31>
     cb6:	ea4f 0c44 	mov.w	ip, r4, lsl #1
     cba:	f1a7 0210 	sub.w	r2, r7, #16
     cbe:	6ba8      	ldr	r0, [r5, #56]	@ 0x38
     cc0:	9b01      	ldr	r3, [sp, #4]
     cc2:	f10c 3cff 	add.w	ip, ip, #4294967295	@ 0xffffffff
     cc6:	eb06 02c2 	add.w	r2, r6, r2, lsl #3
     cca:	f10c 0c01 	add.w	ip, ip, #1
     cce:	3a04      	subs	r2, #4
     cd0:	eb00 018c 	add.w	r1, r0, ip, lsl #2
     cd4:	f850 4b04 	ldr.w	r4, [r0], #4
     cd8:	4288      	cmp	r0, r1
     cda:	f842 4f04 	str.w	r4, [r2, #4]!
     cde:	d1f9      	bne.n	cd4 <_Unwind_VRS_Pop+0xc0>
     ce0:	2b01      	cmp	r3, #1
     ce2:	f000 80e0 	beq.w	ea6 <_Unwind_VRS_Pop+0x292>
     ce6:	2f0f      	cmp	r7, #15
     ce8:	63a8      	str	r0, [r5, #56]	@ 0x38
     cea:	d802      	bhi.n	cf2 <_Unwind_VRS_Pop+0xde>
     cec:	a822      	add	r0, sp, #136	@ 0x88
     cee:	f000 f91b 	bl	f28 <__gnu_Unwind_Restore_VFP_D>
     cf2:	4630      	mov	r0, r6
     cf4:	f000 f920 	bl	f38 <__gnu_Unwind_Restore_VFP_D_16_to_31>
     cf8:	e7a4      	b.n	c44 <_Unwind_VRS_Pop+0x30>
     cfa:	2b03      	cmp	r3, #3
     cfc:	d169      	bne.n	dd2 <_Unwind_VRS_Pop+0x1be>
     cfe:	fa1f f884 	uxth.w	r8, r4
     d02:	eb08 4314 	add.w	r3, r8, r4, lsr #16
     d06:	2b10      	cmp	r3, #16
     d08:	ea4f 4414 	mov.w	r4, r4, lsr #16
     d0c:	d861      	bhi.n	dd2 <_Unwind_VRS_Pop+0x1be>
     d0e:	6803      	ldr	r3, [r0, #0]
     d10:	0718      	lsls	r0, r3, #28
     d12:	f100 80c0 	bmi.w	e96 <_Unwind_VRS_Pop+0x282>
     d16:	ae22      	add	r6, sp, #136	@ 0x88
     d18:	4630      	mov	r0, r6
     d1a:	f000 f937 	bl	f8c <__gnu_Unwind_Save_WMMXD>
     d1e:	ea4f 0148 	mov.w	r1, r8, lsl #1
     d22:	6baf      	ldr	r7, [r5, #56]	@ 0x38
     d24:	eb06 02c4 	add.w	r2, r6, r4, lsl #3
     d28:	1e4b      	subs	r3, r1, #1
     d2a:	b141      	cbz	r1, d3e <_Unwind_VRS_Pop+0x12a>
     d2c:	1ab8      	subs	r0, r7, r2
     d2e:	5811      	ldr	r1, [r2, r0]
     d30:	3b01      	subs	r3, #1
     d32:	f842 1b04 	str.w	r1, [r2], #4
     d36:	1c59      	adds	r1, r3, #1
     d38:	d1f9      	bne.n	d2e <_Unwind_VRS_Pop+0x11a>
     d3a:	eb07 07c8 	add.w	r7, r7, r8, lsl #3
     d3e:	4630      	mov	r0, r6
     d40:	63af      	str	r7, [r5, #56]	@ 0x38
     d42:	f000 f901 	bl	f48 <__gnu_Unwind_Restore_WMMXD>
     d46:	e77d      	b.n	c44 <_Unwind_VRS_Pop+0x30>
     d48:	2b00      	cmp	r3, #0
     d4a:	d142      	bne.n	dd2 <_Unwind_VRS_Pop+0x1be>
     d4c:	2c10      	cmp	r4, #16
     d4e:	d840      	bhi.n	dd2 <_Unwind_VRS_Pop+0x1be>
     d50:	6803      	ldr	r3, [r0, #0]
     d52:	06de      	lsls	r6, r3, #27
     d54:	f100 8097 	bmi.w	e86 <_Unwind_VRS_Pop+0x272>
     d58:	ae22      	add	r6, sp, #136	@ 0x88
     d5a:	4630      	mov	r0, r6
     d5c:	f000 f942 	bl	fe4 <__gnu_Unwind_Save_WMMXC>
     d60:	2701      	movs	r7, #1
     d62:	2300      	movs	r3, #0
     d64:	4630      	mov	r0, r6
     d66:	6ba9      	ldr	r1, [r5, #56]	@ 0x38
     d68:	fa07 f203 	lsl.w	r2, r7, r3
     d6c:	4222      	tst	r2, r4
     d6e:	f103 0301 	add.w	r3, r3, #1
     d72:	d005      	beq.n	d80 <_Unwind_VRS_Pop+0x16c>
     d74:	460a      	mov	r2, r1
     d76:	f852 cb04 	ldr.w	ip, [r2], #4
     d7a:	4611      	mov	r1, r2
     d7c:	f8c0 c000 	str.w	ip, [r0]
     d80:	2b04      	cmp	r3, #4
     d82:	f100 0004 	add.w	r0, r0, #4
     d86:	d1ef      	bne.n	d68 <_Unwind_VRS_Pop+0x154>
     d88:	4630      	mov	r0, r6
     d8a:	63a9      	str	r1, [r5, #56]	@ 0x38
     d8c:	f000 f920 	bl	fd0 <__gnu_Unwind_Restore_WMMXC>
     d90:	e758      	b.n	c44 <_Unwind_VRS_Pop+0x30>
     d92:	193a      	adds	r2, r7, r4
     d94:	2a10      	cmp	r2, #16
     d96:	d81c      	bhi.n	dd2 <_Unwind_VRS_Pop+0x1be>
     d98:	2f10      	cmp	r7, #16
     d9a:	d01a      	beq.n	dd2 <_Unwind_VRS_Pop+0x1be>
     d9c:	6802      	ldr	r2, [r0, #0]
     d9e:	07d0      	lsls	r0, r2, #31
     da0:	d508      	bpl.n	db4 <_Unwind_VRS_Pop+0x1a0>
     da2:	4628      	mov	r0, r5
     da4:	f022 0203 	bic.w	r2, r2, #3
     da8:	f840 2b50 	str.w	r2, [r0], #80
     dac:	9301      	str	r3, [sp, #4]
     dae:	f000 f8b7 	bl	f20 <__gnu_Unwind_Save_VFP>
     db2:	9b01      	ldr	r3, [sp, #4]
     db4:	ae22      	add	r6, sp, #136	@ 0x88
     db6:	4630      	mov	r0, r6
     db8:	9301      	str	r3, [sp, #4]
     dba:	f000 f8b1 	bl	f20 <__gnu_Unwind_Save_VFP>
     dbe:	6ba9      	ldr	r1, [r5, #56]	@ 0x38
     dc0:	9b01      	ldr	r3, [sp, #4]
     dc2:	2c00      	cmp	r4, #0
     dc4:	d158      	bne.n	e78 <_Unwind_VRS_Pop+0x264>
     dc6:	3104      	adds	r1, #4
     dc8:	4630      	mov	r0, r6
     dca:	63a9      	str	r1, [r5, #56]	@ 0x38
     dcc:	f000 f8a4 	bl	f18 <__gnu_Unwind_Restore_VFP>
     dd0:	e738      	b.n	c44 <_Unwind_VRS_Pop+0x30>
     dd2:	2002      	movs	r0, #2
     dd4:	e737      	b.n	c46 <_Unwind_VRS_Pop+0x32>
     dd6:	f1b8 0f10 	cmp.w	r8, #16
     dda:	6802      	ldr	r2, [r0, #0]
     ddc:	d965      	bls.n	eaa <_Unwind_VRS_Pop+0x296>
     dde:	07d1      	lsls	r1, r2, #31
     de0:	d572      	bpl.n	ec8 <_Unwind_VRS_Pop+0x2b4>
     de2:	f022 0201 	bic.w	r2, r2, #1
     de6:	f042 0202 	orr.w	r2, r2, #2
     dea:	f840 2b50 	str.w	r2, [r0], #80
     dee:	9301      	str	r3, [sp, #4]
     df0:	f000 f89e 	bl	f30 <__gnu_Unwind_Save_VFP_D>
     df4:	682a      	ldr	r2, [r5, #0]
     df6:	9b01      	ldr	r3, [sp, #4]
     df8:	f012 0f04 	tst.w	r2, #4
     dfc:	d166      	bne.n	ecc <_Unwind_VRS_Pop+0x2b8>
     dfe:	ae22      	add	r6, sp, #136	@ 0x88
     e00:	4630      	mov	r0, r6
     e02:	9301      	str	r3, [sp, #4]
     e04:	f000 f894 	bl	f30 <__gnu_Unwind_Save_VFP_D>
     e08:	a802      	add	r0, sp, #8
     e0a:	f000 f899 	bl	f40 <__gnu_Unwind_Save_VFP_D_16_to_31>
     e0e:	f1c7 0210 	rsb	r2, r7, #16
     e12:	0052      	lsls	r2, r2, #1
     e14:	6ba9      	ldr	r1, [r5, #56]	@ 0x38
     e16:	9b01      	ldr	r3, [sp, #4]
     e18:	1e54      	subs	r4, r2, #1
     e1a:	f1a8 0c10 	sub.w	ip, r8, #16
     e1e:	eb06 02c7 	add.w	r2, r6, r7, lsl #3
     e22:	3401      	adds	r4, #1
     e24:	3a04      	subs	r2, #4
     e26:	eb01 0084 	add.w	r0, r1, r4, lsl #2
     e2a:	f851 4b04 	ldr.w	r4, [r1], #4
     e2e:	4281      	cmp	r1, r0
     e30:	f842 4f04 	str.w	r4, [r2, #4]!
     e34:	d1f9      	bne.n	e2a <_Unwind_VRS_Pop+0x216>
     e36:	f1bc 0f00 	cmp.w	ip, #0
     e3a:	d059      	beq.n	ef0 <_Unwind_VRS_Pop+0x2dc>
     e3c:	2f10      	cmp	r7, #16
     e3e:	463a      	mov	r2, r7
     e40:	bf38      	it	cc
     e42:	2210      	movcc	r2, #16
     e44:	ea4f 0c4c 	mov.w	ip, ip, lsl #1
     e48:	ae02      	add	r6, sp, #8
     e4a:	3a10      	subs	r2, #16
     e4c:	f10c 3cff 	add.w	ip, ip, #4294967295	@ 0xffffffff
     e50:	eb06 02c2 	add.w	r2, r6, r2, lsl #3
     e54:	e739      	b.n	cca <_Unwind_VRS_Pop+0xb6>
     e56:	4628      	mov	r0, r5
     e58:	f022 0201 	bic.w	r2, r2, #1
     e5c:	f042 0202 	orr.w	r2, r2, #2
     e60:	f840 2b50 	str.w	r2, [r0], #80
     e64:	ae22      	add	r6, sp, #136	@ 0x88
     e66:	9301      	str	r3, [sp, #4]
     e68:	f000 f862 	bl	f30 <__gnu_Unwind_Save_VFP_D>
     e6c:	4630      	mov	r0, r6
     e6e:	f000 f85f 	bl	f30 <__gnu_Unwind_Save_VFP_D>
     e72:	6ba9      	ldr	r1, [r5, #56]	@ 0x38
     e74:	b324      	cbz	r4, ec0 <_Unwind_VRS_Pop+0x2ac>
     e76:	9b01      	ldr	r3, [sp, #4]
     e78:	0064      	lsls	r4, r4, #1
     e7a:	f04f 0c00 	mov.w	ip, #0
     e7e:	3c01      	subs	r4, #1
     e80:	eb06 02c7 	add.w	r2, r6, r7, lsl #3
     e84:	e7cd      	b.n	e22 <_Unwind_VRS_Pop+0x20e>
     e86:	f023 0310 	bic.w	r3, r3, #16
     e8a:	6003      	str	r3, [r0, #0]
     e8c:	f500 70ec 	add.w	r0, r0, #472	@ 0x1d8
     e90:	f000 f8a8 	bl	fe4 <__gnu_Unwind_Save_WMMXC>
     e94:	e760      	b.n	d58 <_Unwind_VRS_Pop+0x144>
     e96:	f023 0308 	bic.w	r3, r3, #8
     e9a:	602b      	str	r3, [r5, #0]
     e9c:	f505 70ac 	add.w	r0, r5, #344	@ 0x158
     ea0:	f000 f874 	bl	f8c <__gnu_Unwind_Save_WMMXD>
     ea4:	e737      	b.n	d16 <_Unwind_VRS_Pop+0x102>
     ea6:	ae22      	add	r6, sp, #136	@ 0x88
     ea8:	e78d      	b.n	dc6 <_Unwind_VRS_Pop+0x1b2>
     eaa:	07d1      	lsls	r1, r2, #31
     eac:	d4d3      	bmi.n	e56 <_Unwind_VRS_Pop+0x242>
     eae:	ae22      	add	r6, sp, #136	@ 0x88
     eb0:	4630      	mov	r0, r6
     eb2:	9301      	str	r3, [sp, #4]
     eb4:	f000 f83c 	bl	f30 <__gnu_Unwind_Save_VFP_D>
     eb8:	6ba9      	ldr	r1, [r5, #56]	@ 0x38
     eba:	9b01      	ldr	r3, [sp, #4]
     ebc:	2c00      	cmp	r4, #0
     ebe:	d1db      	bne.n	e78 <_Unwind_VRS_Pop+0x264>
     ec0:	4630      	mov	r0, r6
     ec2:	f000 f831 	bl	f28 <__gnu_Unwind_Restore_VFP_D>
     ec6:	e6bd      	b.n	c44 <_Unwind_VRS_Pop+0x30>
     ec8:	0754      	lsls	r4, r2, #29
     eca:	d598      	bpl.n	dfe <_Unwind_VRS_Pop+0x1ea>
     ecc:	4628      	mov	r0, r5
     ece:	f022 0204 	bic.w	r2, r2, #4
     ed2:	f840 2bd8 	str.w	r2, [r0], #216
     ed6:	9301      	str	r3, [sp, #4]
     ed8:	f000 f832 	bl	f40 <__gnu_Unwind_Save_VFP_D_16_to_31>
     edc:	9b01      	ldr	r3, [sp, #4]
     ede:	e78e      	b.n	dfe <_Unwind_VRS_Pop+0x1ea>
     ee0:	f022 0204 	bic.w	r2, r2, #4
     ee4:	f840 2bd8 	str.w	r2, [r0], #216
     ee8:	9301      	str	r3, [sp, #4]
     eea:	f000 f829 	bl	f40 <__gnu_Unwind_Save_VFP_D_16_to_31>
     eee:	e6de      	b.n	cae <_Unwind_VRS_Pop+0x9a>
     ef0:	2b01      	cmp	r3, #1
     ef2:	f43f af68 	beq.w	dc6 <_Unwind_VRS_Pop+0x1b2>
     ef6:	2f0f      	cmp	r7, #15
     ef8:	63a9      	str	r1, [r5, #56]	@ 0x38
     efa:	f63f aea3 	bhi.w	c44 <_Unwind_VRS_Pop+0x30>
     efe:	e7df      	b.n	ec0 <_Unwind_VRS_Pop+0x2ac>

00000f00 <__restore_core_regs>:
     f00:	f100 0134 	add.w	r1, r0, #52	@ 0x34
     f04:	e891 0038 	ldmia.w	r1, {r3, r4, r5}
     f08:	469c      	mov	ip, r3
     f0a:	46a6      	mov	lr, r4
     f0c:	f84c 5d04 	str.w	r5, [ip, #-4]!
     f10:	e890 0fff 	ldmia.w	r0, {r0, r1, r2, r3, r4, r5, r6, r7, r8, r9, sl, fp}
     f14:	46e5      	mov	sp, ip
     f16:	bd00      	pop	{pc}

00000f18 <__gnu_Unwind_Restore_VFP>:
     f18:	ec90 0b21 	fldmiax	r0, {d0-d15}	@ Deprecated
     f1c:	4770      	bx	lr
     f1e:	bf00      	nop

00000f20 <__gnu_Unwind_Save_VFP>:
     f20:	ec80 0b21 	fstmiax	r0, {d0-d15}	@ Deprecated
     f24:	4770      	bx	lr
     f26:	bf00      	nop

00000f28 <__gnu_Unwind_Restore_VFP_D>:
     f28:	ec90 0b20 	vldmia	r0, {d0-d15}
     f2c:	4770      	bx	lr
     f2e:	bf00      	nop

00000f30 <__gnu_Unwind_Save_VFP_D>:
     f30:	ec80 0b20 	vstmia	r0, {d0-d15}
     f34:	4770      	bx	lr
     f36:	bf00      	nop

00000f38 <__gnu_Unwind_Restore_VFP_D_16_to_31>:
     f38:	ecd0 0b20 	vldmia	r0, {d16-d31}
     f3c:	4770      	bx	lr
     f3e:	bf00      	nop

00000f40 <__gnu_Unwind_Save_VFP_D_16_to_31>:
     f40:	ecc0 0b20 	vstmia	r0, {d16-d31}
     f44:	4770      	bx	lr
     f46:	bf00      	nop

00000f48 <__gnu_Unwind_Restore_WMMXD>:
     f48:	ecf0 0102 	ldfe	f0, [r0], #8
     f4c:	ecf0 1102 	ldfe	f1, [r0], #8
     f50:	ecf0 2102 	ldfe	f2, [r0], #8
     f54:	ecf0 3102 	ldfe	f3, [r0], #8
     f58:	ecf0 4102 	ldfe	f4, [r0], #8
     f5c:	ecf0 5102 	ldfe	f5, [r0], #8
     f60:	ecf0 6102 	ldfe	f6, [r0], #8
     f64:	ecf0 7102 	ldfe	f7, [r0], #8
     f68:	ecf0 8102 	ldfp	f0, [r0], #8
     f6c:	ecf0 9102 	ldfp	f1, [r0], #8
     f70:	ecf0 a102 	ldfp	f2, [r0], #8
     f74:	ecf0 b102 	ldfp	f3, [r0], #8
     f78:	ecf0 c102 	ldfp	f4, [r0], #8
     f7c:	ecf0 d102 	ldfp	f5, [r0], #8
     f80:	ecf0 e102 	ldfp	f6, [r0], #8
     f84:	ecf0 f102 	ldfp	f7, [r0], #8
     f88:	4770      	bx	lr
     f8a:	bf00      	nop

00000f8c <__gnu_Unwind_Save_WMMXD>:
     f8c:	ece0 0102 	stfe	f0, [r0], #8
     f90:	ece0 1102 	stfe	f1, [r0], #8
     f94:	ece0 2102 	stfe	f2, [r0], #8
     f98:	ece0 3102 	stfe	f3, [r0], #8
     f9c:	ece0 4102 	stfe	f4, [r0], #8
     fa0:	ece0 5102 	stfe	f5, [r0], #8
     fa4:	ece0 6102 	stfe	f6, [r0], #8
     fa8:	ece0 7102 	stfe	f7, [r0], #8
     fac:	ece0 8102 	stfp	f0, [r0], #8
     fb0:	ece0 9102 	stfp	f1, [r0], #8
     fb4:	ece0 a102 	stfp	f2, [r0], #8
     fb8:	ece0 b102 	stfp	f3, [r0], #8
     fbc:	ece0 c102 	stfp	f4, [r0], #8
     fc0:	ece0 d102 	stfp	f5, [r0], #8
     fc4:	ece0 e102 	stfp	f6, [r0], #8
     fc8:	ece0 f102 	stfp	f7, [r0], #8
     fcc:	4770      	bx	lr
     fce:	bf00      	nop

00000fd0 <__gnu_Unwind_Restore_WMMXC>:
     fd0:	fcb0 8101 	ldc2	1, cr8, [r0], #4
     fd4:	fcb0 9101 	ldc2	1, cr9, [r0], #4
     fd8:	fcb0 a101 	ldc2	1, cr10, [r0], #4
     fdc:	fcb0 b101 	ldc2	1, cr11, [r0], #4
     fe0:	4770      	bx	lr
     fe2:	bf00      	nop

00000fe4 <__gnu_Unwind_Save_WMMXC>:
     fe4:	fca0 8101 	stc2	1, cr8, [r0], #4
     fe8:	fca0 9101 	stc2	1, cr9, [r0], #4
     fec:	fca0 a101 	stc2	1, cr10, [r0], #4
     ff0:	fca0 b101 	stc2	1, cr11, [r0], #4
     ff4:	4770      	bx	lr
     ff6:	bf00      	nop

00000ff8 <_Unwind_RaiseException>:
     ff8:	46ec      	mov	ip, sp
     ffa:	b500      	push	{lr}
     ffc:	e92d 5000 	stmdb	sp!, {ip, lr}
    1000:	e92d 1fff 	stmdb	sp!, {r0, r1, r2, r3, r4, r5, r6, r7, r8, r9, sl, fp, ip}
    1004:	f04f 0300 	mov.w	r3, #0
    1008:	e92d 000c 	stmdb	sp!, {r2, r3}
    100c:	a901      	add	r1, sp, #4
    100e:	f7ff fba9 	bl	764 <__gnu_Unwind_RaiseException>
    1012:	f8dd e040 	ldr.w	lr, [sp, #64]	@ 0x40
    1016:	b012      	add	sp, #72	@ 0x48
    1018:	4770      	bx	lr
    101a:	bf00      	nop

0000101c <_Unwind_Resume>:
    101c:	46ec      	mov	ip, sp
    101e:	b500      	push	{lr}
    1020:	e92d 5000 	stmdb	sp!, {ip, lr}
    1024:	e92d 1fff 	stmdb	sp!, {r0, r1, r2, r3, r4, r5, r6, r7, r8, r9, sl, fp, ip}
    1028:	f04f 0300 	mov.w	r3, #0
    102c:	e92d 000c 	stmdb	sp!, {r2, r3}
    1030:	a901      	add	r1, sp, #4
    1032:	f7ff fbd5 	bl	7e0 <__gnu_Unwind_Resume>
    1036:	f8dd e040 	ldr.w	lr, [sp, #64]	@ 0x40
    103a:	b012      	add	sp, #72	@ 0x48
    103c:	4770      	bx	lr
    103e:	bf00      	nop

00001040 <_Unwind_Resume_or_Rethrow>:
    1040:	46ec      	mov	ip, sp
    1042:	b500      	push	{lr}
    1044:	e92d 5000 	stmdb	sp!, {ip, lr}
    1048:	e92d 1fff 	stmdb	sp!, {r0, r1, r2, r3, r4, r5, r6, r7, r8, r9, sl, fp, ip}
    104c:	f04f 0300 	mov.w	r3, #0
    1050:	e92d 000c 	stmdb	sp!, {r2, r3}
    1054:	a901      	add	r1, sp, #4
    1056:	f7ff fbe3 	bl	820 <__gnu_Unwind_Resume_or_Rethrow>
    105a:	f8dd e040 	ldr.w	lr, [sp, #64]	@ 0x40
    105e:	b012      	add	sp, #72	@ 0x48
    1060:	4770      	bx	lr
    1062:	bf00      	nop

00001064 <_Unwind_ForcedUnwind>:
    1064:	46ec      	mov	ip, sp
    1066:	b500      	push	{lr}
    1068:	e92d 5000 	stmdb	sp!, {ip, lr}
    106c:	e92d 1fff 	stmdb	sp!, {r0, r1, r2, r3, r4, r5, r6, r7, r8, r9, sl, fp, ip}
    1070:	f04f 0300 	mov.w	r3, #0
    1074:	e92d 000c 	stmdb	sp!, {r2, r3}
    1078:	ab01      	add	r3, sp, #4
    107a:	f7ff fba7 	bl	7cc <__gnu_Unwind_ForcedUnwind>
    107e:	f8dd e040 	ldr.w	lr, [sp, #64]	@ 0x40
    1082:	b012      	add	sp, #72	@ 0x48
    1084:	4770      	bx	lr
    1086:	bf00      	nop

00001088 <_Unwind_Backtrace>:
    1088:	46ec      	mov	ip, sp
    108a:	b500      	push	{lr}
    108c:	e92d 5000 	stmdb	sp!, {ip, lr}
    1090:	e92d 1fff 	stmdb	sp!, {r0, r1, r2, r3, r4, r5, r6, r7, r8, r9, sl, fp, ip}
    1094:	f04f 0300 	mov.w	r3, #0
    1098:	e92d 000c 	stmdb	sp!, {r2, r3}
    109c:	aa01      	add	r2, sp, #4
    109e:	f7ff fc1f 	bl	8e0 <__gnu_Unwind_Backtrace>
    10a2:	f8dd e040 	ldr.w	lr, [sp, #64]	@ 0x40
    10a6:	b012      	add	sp, #72	@ 0x48
    10a8:	4770      	bx	lr
    10aa:	bf00      	nop

000010ac <next_unwind_byte>:
    10ac:	7a02      	ldrb	r2, [r0, #8]
    10ae:	4603      	mov	r3, r0
    10b0:	b97a      	cbnz	r2, 10d2 <next_unwind_byte+0x26>
    10b2:	7a42      	ldrb	r2, [r0, #9]
    10b4:	b1a2      	cbz	r2, 10e0 <next_unwind_byte+0x34>
    10b6:	f04f 0c03 	mov.w	ip, #3
    10ba:	6841      	ldr	r1, [r0, #4]
    10bc:	3a01      	subs	r2, #1
    10be:	7242      	strb	r2, [r0, #9]
    10c0:	6808      	ldr	r0, [r1, #0]
    10c2:	1d0a      	adds	r2, r1, #4
    10c4:	605a      	str	r2, [r3, #4]
    10c6:	0202      	lsls	r2, r0, #8
    10c8:	f883 c008 	strb.w	ip, [r3, #8]
    10cc:	0e00      	lsrs	r0, r0, #24
    10ce:	601a      	str	r2, [r3, #0]
    10d0:	4770      	bx	lr
    10d2:	6800      	ldr	r0, [r0, #0]
    10d4:	3a01      	subs	r2, #1
    10d6:	721a      	strb	r2, [r3, #8]
    10d8:	0202      	lsls	r2, r0, #8
    10da:	601a      	str	r2, [r3, #0]
    10dc:	0e00      	lsrs	r0, r0, #24
    10de:	4770      	bx	lr
    10e0:	20b0      	movs	r0, #176	@ 0xb0
    10e2:	4770      	bx	lr

000010e4 <_Unwind_GetGR.constprop.0>:
    10e4:	2300      	movs	r3, #0
    10e6:	b500      	push	{lr}
    10e8:	b085      	sub	sp, #20
    10ea:	a903      	add	r1, sp, #12
    10ec:	9100      	str	r1, [sp, #0]
    10ee:	220c      	movs	r2, #12
    10f0:	4619      	mov	r1, r3
    10f2:	f7ff fba7 	bl	844 <_Unwind_VRS_Get>
    10f6:	9803      	ldr	r0, [sp, #12]
    10f8:	b005      	add	sp, #20
    10fa:	f85d fb04 	ldr.w	pc, [sp], #4
    10fe:	bf00      	nop

00001100 <unwind_UCB_from_context>:
    1100:	e7f0      	b.n	10e4 <_Unwind_GetGR.constprop.0>
    1102:	bf00      	nop

00001104 <__gnu_unwind_execute>:
    1104:	e92d 43f0 	stmdb	sp!, {r4, r5, r6, r7, r8, r9, lr}
    1108:	f04f 0800 	mov.w	r8, #0
    110c:	4606      	mov	r6, r0
    110e:	460d      	mov	r5, r1
    1110:	b085      	sub	sp, #20
    1112:	4628      	mov	r0, r5
    1114:	f7ff ffca 	bl	10ac <next_unwind_byte>
    1118:	28b0      	cmp	r0, #176	@ 0xb0
    111a:	4604      	mov	r4, r0
    111c:	f000 8112 	beq.w	1344 <__gnu_unwind_execute+0x240>
    1120:	0607      	lsls	r7, r0, #24
    1122:	d55c      	bpl.n	11de <__gnu_unwind_execute+0xda>
    1124:	f000 03f0 	and.w	r3, r0, #240	@ 0xf0
    1128:	2ba0      	cmp	r3, #160	@ 0xa0
    112a:	d01a      	beq.n	1162 <__gnu_unwind_execute+0x5e>
    112c:	d830      	bhi.n	1190 <__gnu_unwind_execute+0x8c>
    112e:	2b80      	cmp	r3, #128	@ 0x80
    1130:	f000 8083 	beq.w	123a <__gnu_unwind_execute+0x136>
    1134:	2b90      	cmp	r3, #144	@ 0x90
    1136:	d127      	bne.n	1188 <__gnu_unwind_execute+0x84>
    1138:	f000 030d 	and.w	r3, r0, #13
    113c:	2b0d      	cmp	r3, #13
    113e:	d023      	beq.n	1188 <__gnu_unwind_execute+0x84>
    1140:	2300      	movs	r3, #0
    1142:	af02      	add	r7, sp, #8
    1144:	4619      	mov	r1, r3
    1146:	f000 020f 	and.w	r2, r0, #15
    114a:	9700      	str	r7, [sp, #0]
    114c:	4630      	mov	r0, r6
    114e:	f7ff fb79 	bl	844 <_Unwind_VRS_Get>
    1152:	2300      	movs	r3, #0
    1154:	220d      	movs	r2, #13
    1156:	4619      	mov	r1, r3
    1158:	4630      	mov	r0, r6
    115a:	9700      	str	r7, [sp, #0]
    115c:	f7ff fb9a 	bl	894 <_Unwind_VRS_Set>
    1160:	e7d7      	b.n	1112 <__gnu_unwind_execute+0xe>
    1162:	43c3      	mvns	r3, r0
    1164:	f44f 627f 	mov.w	r2, #4080	@ 0xff0
    1168:	f003 0307 	and.w	r3, r3, #7
    116c:	411a      	asrs	r2, r3
    116e:	0701      	lsls	r1, r0, #28
    1170:	f402 627f 	and.w	r2, r2, #4080	@ 0xff0
    1174:	d501      	bpl.n	117a <__gnu_unwind_execute+0x76>
    1176:	f442 4280 	orr.w	r2, r2, #16384	@ 0x4000
    117a:	2300      	movs	r3, #0
    117c:	4630      	mov	r0, r6
    117e:	4619      	mov	r1, r3
    1180:	f7ff fd48 	bl	c14 <_Unwind_VRS_Pop>
    1184:	2800      	cmp	r0, #0
    1186:	d0c4      	beq.n	1112 <__gnu_unwind_execute+0xe>
    1188:	2009      	movs	r0, #9
    118a:	b005      	add	sp, #20
    118c:	e8bd 83f0 	ldmia.w	sp!, {r4, r5, r6, r7, r8, r9, pc}
    1190:	2bb0      	cmp	r3, #176	@ 0xb0
    1192:	d069      	beq.n	1268 <__gnu_unwind_execute+0x164>
    1194:	2bc0      	cmp	r3, #192	@ 0xc0
    1196:	d13e      	bne.n	1216 <__gnu_unwind_execute+0x112>
    1198:	28c6      	cmp	r0, #198	@ 0xc6
    119a:	f000 80bf 	beq.w	131c <__gnu_unwind_execute+0x218>
    119e:	28c7      	cmp	r0, #199	@ 0xc7
    11a0:	f000 80d5 	beq.w	134e <__gnu_unwind_execute+0x24a>
    11a4:	f000 03f8 	and.w	r3, r0, #248	@ 0xf8
    11a8:	2bc0      	cmp	r3, #192	@ 0xc0
    11aa:	f000 80e2 	beq.w	1372 <__gnu_unwind_execute+0x26e>
    11ae:	28c8      	cmp	r0, #200	@ 0xc8
    11b0:	f000 80ed 	beq.w	138e <__gnu_unwind_execute+0x28a>
    11b4:	28c9      	cmp	r0, #201	@ 0xc9
    11b6:	d1e7      	bne.n	1188 <__gnu_unwind_execute+0x84>
    11b8:	4628      	mov	r0, r5
    11ba:	f7ff ff77 	bl	10ac <next_unwind_byte>
    11be:	2305      	movs	r3, #5
    11c0:	2101      	movs	r1, #1
    11c2:	4604      	mov	r4, r0
    11c4:	0322      	lsls	r2, r4, #12
    11c6:	f004 040f 	and.w	r4, r4, #15
    11ca:	f402 2270 	and.w	r2, r2, #983040	@ 0xf0000
    11ce:	440c      	add	r4, r1
    11d0:	4630      	mov	r0, r6
    11d2:	4322      	orrs	r2, r4
    11d4:	f7ff fd1e 	bl	c14 <_Unwind_VRS_Pop>
    11d8:	2800      	cmp	r0, #0
    11da:	d09a      	beq.n	1112 <__gnu_unwind_execute+0xe>
    11dc:	e7d4      	b.n	1188 <__gnu_unwind_execute+0x84>
    11de:	0083      	lsls	r3, r0, #2
    11e0:	b2db      	uxtb	r3, r3
    11e2:	1d1f      	adds	r7, r3, #4
    11e4:	2300      	movs	r3, #0
    11e6:	f10d 0908 	add.w	r9, sp, #8
    11ea:	4619      	mov	r1, r3
    11ec:	220d      	movs	r2, #13
    11ee:	4630      	mov	r0, r6
    11f0:	f8cd 9000 	str.w	r9, [sp]
    11f4:	f7ff fb26 	bl	844 <_Unwind_VRS_Get>
    11f8:	9b02      	ldr	r3, [sp, #8]
    11fa:	0660      	lsls	r0, r4, #25
    11fc:	bf4c      	ite	mi
    11fe:	1bdf      	submi	r7, r3, r7
    1200:	18ff      	addpl	r7, r7, r3
    1202:	2300      	movs	r3, #0
    1204:	220d      	movs	r2, #13
    1206:	4630      	mov	r0, r6
    1208:	4619      	mov	r1, r3
    120a:	f8cd 9000 	str.w	r9, [sp]
    120e:	9702      	str	r7, [sp, #8]
    1210:	f7ff fb40 	bl	894 <_Unwind_VRS_Set>
    1214:	e77d      	b.n	1112 <__gnu_unwind_execute+0xe>
    1216:	f000 03f8 	and.w	r3, r0, #248	@ 0xf8
    121a:	2bd0      	cmp	r3, #208	@ 0xd0
    121c:	d1b4      	bne.n	1188 <__gnu_unwind_execute+0x84>
    121e:	f000 0207 	and.w	r2, r0, #7
    1222:	3201      	adds	r2, #1
    1224:	2305      	movs	r3, #5
    1226:	2101      	movs	r1, #1
    1228:	4630      	mov	r0, r6
    122a:	f442 2200 	orr.w	r2, r2, #524288	@ 0x80000
    122e:	f7ff fcf1 	bl	c14 <_Unwind_VRS_Pop>
    1232:	2800      	cmp	r0, #0
    1234:	f43f af6d 	beq.w	1112 <__gnu_unwind_execute+0xe>
    1238:	e7a6      	b.n	1188 <__gnu_unwind_execute+0x84>
    123a:	4628      	mov	r0, r5
    123c:	f7ff ff36 	bl	10ac <next_unwind_byte>
    1240:	0224      	lsls	r4, r4, #8
    1242:	4320      	orrs	r0, r4
    1244:	f5b0 4f00 	cmp.w	r0, #32768	@ 0x8000
    1248:	d09e      	beq.n	1188 <__gnu_unwind_execute+0x84>
    124a:	2300      	movs	r3, #0
    124c:	0104      	lsls	r4, r0, #4
    124e:	4619      	mov	r1, r3
    1250:	4630      	mov	r0, r6
    1252:	b2a2      	uxth	r2, r4
    1254:	f7ff fcde 	bl	c14 <_Unwind_VRS_Pop>
    1258:	2800      	cmp	r0, #0
    125a:	d195      	bne.n	1188 <__gnu_unwind_execute+0x84>
    125c:	f414 4f00 	tst.w	r4, #32768	@ 0x8000
    1260:	bf18      	it	ne
    1262:	f04f 0801 	movne.w	r8, #1
    1266:	e754      	b.n	1112 <__gnu_unwind_execute+0xe>
    1268:	f1a0 03b1 	sub.w	r3, r0, #177	@ 0xb1
    126c:	2b04      	cmp	r3, #4
    126e:	f200 80b3 	bhi.w	13d8 <__gnu_unwind_execute+0x2d4>
    1272:	e8df f003 	tbb	[pc, r3]
    1276:	0c161d49 	ldceq	13, cr1, [r6], {73}	@ 0x49
    127a:	23000003 	movwcs	r0, #3
    127e:	aa03      	add	r2, sp, #12
    1280:	9200      	str	r2, [sp, #0]
    1282:	4630      	mov	r0, r6
    1284:	220d      	movs	r2, #13
    1286:	4619      	mov	r1, r3
    1288:	f7ff fadc 	bl	844 <_Unwind_VRS_Get>
    128c:	e741      	b.n	1112 <__gnu_unwind_execute+0xe>
    128e:	2300      	movs	r3, #0
    1290:	2105      	movs	r1, #5
    1292:	4630      	mov	r0, r6
    1294:	461a      	mov	r2, r3
    1296:	f7ff fcbd 	bl	c14 <_Unwind_VRS_Pop>
    129a:	2800      	cmp	r0, #0
    129c:	f43f af39 	beq.w	1112 <__gnu_unwind_execute+0xe>
    12a0:	e772      	b.n	1188 <__gnu_unwind_execute+0x84>
    12a2:	4628      	mov	r0, r5
    12a4:	f7ff ff02 	bl	10ac <next_unwind_byte>
    12a8:	2301      	movs	r3, #1
    12aa:	4604      	mov	r4, r0
    12ac:	4619      	mov	r1, r3
    12ae:	e789      	b.n	11c4 <__gnu_unwind_execute+0xc0>
    12b0:	2300      	movs	r3, #0
    12b2:	f10d 0908 	add.w	r9, sp, #8
    12b6:	220d      	movs	r2, #13
    12b8:	4619      	mov	r1, r3
    12ba:	4630      	mov	r0, r6
    12bc:	f8cd 9000 	str.w	r9, [sp]
    12c0:	f7ff fac0 	bl	844 <_Unwind_VRS_Get>
    12c4:	4628      	mov	r0, r5
    12c6:	f7ff fef1 	bl	10ac <next_unwind_byte>
    12ca:	0602      	lsls	r2, r0, #24
    12cc:	f04f 0702 	mov.w	r7, #2
    12d0:	9c02      	ldr	r4, [sp, #8]
    12d2:	d50b      	bpl.n	12ec <__gnu_unwind_execute+0x1e8>
    12d4:	f000 007f 	and.w	r0, r0, #127	@ 0x7f
    12d8:	40b8      	lsls	r0, r7
    12da:	4404      	add	r4, r0
    12dc:	4628      	mov	r0, r5
    12de:	9402      	str	r4, [sp, #8]
    12e0:	f7ff fee4 	bl	10ac <next_unwind_byte>
    12e4:	0603      	lsls	r3, r0, #24
    12e6:	f107 0707 	add.w	r7, r7, #7
    12ea:	d4f3      	bmi.n	12d4 <__gnu_unwind_execute+0x1d0>
    12ec:	2300      	movs	r3, #0
    12ee:	40b8      	lsls	r0, r7
    12f0:	f504 7401 	add.w	r4, r4, #516	@ 0x204
    12f4:	4404      	add	r4, r0
    12f6:	220d      	movs	r2, #13
    12f8:	4630      	mov	r0, r6
    12fa:	4619      	mov	r1, r3
    12fc:	f8cd 9000 	str.w	r9, [sp]
    1300:	9402      	str	r4, [sp, #8]
    1302:	f7ff fac7 	bl	894 <_Unwind_VRS_Set>
    1306:	e704      	b.n	1112 <__gnu_unwind_execute+0xe>
    1308:	4628      	mov	r0, r5
    130a:	f7ff fecf 	bl	10ac <next_unwind_byte>
    130e:	1e43      	subs	r3, r0, #1
    1310:	b2db      	uxtb	r3, r3
    1312:	2b0e      	cmp	r3, #14
    1314:	4602      	mov	r2, r0
    1316:	f67f af30 	bls.w	117a <__gnu_unwind_execute+0x76>
    131a:	e735      	b.n	1188 <__gnu_unwind_execute+0x84>
    131c:	4628      	mov	r0, r5
    131e:	f7ff fec5 	bl	10ac <next_unwind_byte>
    1322:	4604      	mov	r4, r0
    1324:	2303      	movs	r3, #3
    1326:	0322      	lsls	r2, r4, #12
    1328:	f004 040f 	and.w	r4, r4, #15
    132c:	f402 2270 	and.w	r2, r2, #983040	@ 0xf0000
    1330:	3401      	adds	r4, #1
    1332:	4619      	mov	r1, r3
    1334:	4630      	mov	r0, r6
    1336:	4322      	orrs	r2, r4
    1338:	f7ff fc6c 	bl	c14 <_Unwind_VRS_Pop>
    133c:	2800      	cmp	r0, #0
    133e:	f43f aee8 	beq.w	1112 <__gnu_unwind_execute+0xe>
    1342:	e721      	b.n	1188 <__gnu_unwind_execute+0x84>
    1344:	f1b8 0f00 	cmp.w	r8, #0
    1348:	d036      	beq.n	13b8 <__gnu_unwind_execute+0x2b4>
    134a:	2000      	movs	r0, #0
    134c:	e71d      	b.n	118a <__gnu_unwind_execute+0x86>
    134e:	4628      	mov	r0, r5
    1350:	f7ff feac 	bl	10ac <next_unwind_byte>
    1354:	1e43      	subs	r3, r0, #1
    1356:	b2db      	uxtb	r3, r3
    1358:	2b0e      	cmp	r3, #14
    135a:	4602      	mov	r2, r0
    135c:	f63f af14 	bhi.w	1188 <__gnu_unwind_execute+0x84>
    1360:	2300      	movs	r3, #0
    1362:	2104      	movs	r1, #4
    1364:	4630      	mov	r0, r6
    1366:	f7ff fc55 	bl	c14 <_Unwind_VRS_Pop>
    136a:	2800      	cmp	r0, #0
    136c:	f43f aed1 	beq.w	1112 <__gnu_unwind_execute+0xe>
    1370:	e70a      	b.n	1188 <__gnu_unwind_execute+0x84>
    1372:	2303      	movs	r3, #3
    1374:	f000 020f 	and.w	r2, r0, #15
    1378:	3201      	adds	r2, #1
    137a:	4630      	mov	r0, r6
    137c:	4619      	mov	r1, r3
    137e:	f442 2220 	orr.w	r2, r2, #655360	@ 0xa0000
    1382:	f7ff fc47 	bl	c14 <_Unwind_VRS_Pop>
    1386:	2800      	cmp	r0, #0
    1388:	f43f aec3 	beq.w	1112 <__gnu_unwind_execute+0xe>
    138c:	e6fc      	b.n	1188 <__gnu_unwind_execute+0x84>
    138e:	4628      	mov	r0, r5
    1390:	f7ff fe8c 	bl	10ac <next_unwind_byte>
    1394:	4602      	mov	r2, r0
    1396:	2101      	movs	r1, #1
    1398:	f002 04f0 	and.w	r4, r2, #240	@ 0xf0
    139c:	f002 020f 	and.w	r2, r2, #15
    13a0:	3410      	adds	r4, #16
    13a2:	440a      	add	r2, r1
    13a4:	2305      	movs	r3, #5
    13a6:	4630      	mov	r0, r6
    13a8:	ea42 3204 	orr.w	r2, r2, r4, lsl #12
    13ac:	f7ff fc32 	bl	c14 <_Unwind_VRS_Pop>
    13b0:	2800      	cmp	r0, #0
    13b2:	f43f aeae 	beq.w	1112 <__gnu_unwind_execute+0xe>
    13b6:	e6e7      	b.n	1188 <__gnu_unwind_execute+0x84>
    13b8:	ac02      	add	r4, sp, #8
    13ba:	4643      	mov	r3, r8
    13bc:	4641      	mov	r1, r8
    13be:	220e      	movs	r2, #14
    13c0:	4630      	mov	r0, r6
    13c2:	9400      	str	r4, [sp, #0]
    13c4:	f7ff fa3e 	bl	844 <_Unwind_VRS_Get>
    13c8:	220f      	movs	r2, #15
    13ca:	4643      	mov	r3, r8
    13cc:	4641      	mov	r1, r8
    13ce:	4630      	mov	r0, r6
    13d0:	9400      	str	r4, [sp, #0]
    13d2:	f7ff fa5f 	bl	894 <_Unwind_VRS_Set>
    13d6:	e7b8      	b.n	134a <__gnu_unwind_execute+0x246>
    13d8:	f000 03fc 	and.w	r3, r0, #252	@ 0xfc
    13dc:	2bb4      	cmp	r3, #180	@ 0xb4
    13de:	f43f aed3 	beq.w	1188 <__gnu_unwind_execute+0x84>
    13e2:	2301      	movs	r3, #1
    13e4:	f000 0207 	and.w	r2, r0, #7
    13e8:	441a      	add	r2, r3
    13ea:	4630      	mov	r0, r6
    13ec:	4619      	mov	r1, r3
    13ee:	f442 2200 	orr.w	r2, r2, #524288	@ 0x80000
    13f2:	f7ff fc0f 	bl	c14 <_Unwind_VRS_Pop>
    13f6:	2800      	cmp	r0, #0
    13f8:	f43f ae8b 	beq.w	1112 <__gnu_unwind_execute+0xe>
    13fc:	e6c4      	b.n	1188 <__gnu_unwind_execute+0x84>
    13fe:	bf00      	nop

00001400 <__gnu_unwind_frame>:
    1400:	460b      	mov	r3, r1
    1402:	f04f 0c03 	mov.w	ip, #3
    1406:	b500      	push	{lr}
    1408:	6cc2      	ldr	r2, [r0, #76]	@ 0x4c
    140a:	4618      	mov	r0, r3
    140c:	6853      	ldr	r3, [r2, #4]
    140e:	b085      	sub	sp, #20
    1410:	3208      	adds	r2, #8
    1412:	9202      	str	r2, [sp, #8]
    1414:	a901      	add	r1, sp, #4
    1416:	0e1a      	lsrs	r2, r3, #24
    1418:	021b      	lsls	r3, r3, #8
    141a:	f88d c00c 	strb.w	ip, [sp, #12]
    141e:	9301      	str	r3, [sp, #4]
    1420:	f88d 200d 	strb.w	r2, [sp, #13]
    1424:	f7ff fe6e 	bl	1104 <__gnu_unwind_execute>
    1428:	b005      	add	sp, #20
    142a:	f85d fb04 	ldr.w	pc, [sp], #4
    142e:	bf00      	nop

00001430 <_Unwind_GetRegionStart>:
    1430:	b508      	push	{r3, lr}
    1432:	f7ff fe65 	bl	1100 <unwind_UCB_from_context>
    1436:	6c80      	ldr	r0, [r0, #72]	@ 0x48
    1438:	bd08      	pop	{r3, pc}
    143a:	bf00      	nop

0000143c <_Unwind_GetLanguageSpecificData>:
    143c:	b508      	push	{r3, lr}
    143e:	f7ff fe5f 	bl	1100 <unwind_UCB_from_context>
    1442:	6cc0      	ldr	r0, [r0, #76]	@ 0x4c
    1444:	79c3      	ldrb	r3, [r0, #7]
    1446:	eb00 0083 	add.w	r0, r0, r3, lsl #2
    144a:	3008      	adds	r0, #8
    144c:	bd08      	pop	{r3, pc}
    144e:	bf00      	nop

00001450 <memcpy>:
    1450:	4684      	mov	ip, r0
    1452:	ea41 0300 	orr.w	r3, r1, r0
    1456:	f013 0303 	ands.w	r3, r3, #3
    145a:	d149      	bne.n	14f0 <memcpy+0xa0>
    145c:	3a40      	subs	r2, #64	@ 0x40
    145e:	d323      	bcc.n	14a8 <memcpy+0x58>
    1460:	680b      	ldr	r3, [r1, #0]
    1462:	6003      	str	r3, [r0, #0]
    1464:	684b      	ldr	r3, [r1, #4]
    1466:	6043      	str	r3, [r0, #4]
    1468:	688b      	ldr	r3, [r1, #8]
    146a:	6083      	str	r3, [r0, #8]
    146c:	68cb      	ldr	r3, [r1, #12]
    146e:	60c3      	str	r3, [r0, #12]
    1470:	690b      	ldr	r3, [r1, #16]
    1472:	6103      	str	r3, [r0, #16]
    1474:	694b      	ldr	r3, [r1, #20]
    1476:	6143      	str	r3, [r0, #20]
    1478:	698b      	ldr	r3, [r1, #24]
    147a:	6183      	str	r3, [r0, #24]
    147c:	69cb      	ldr	r3, [r1, #28]
    147e:	61c3      	str	r3, [r0, #28]
    1480:	6a0b      	ldr	r3, [r1, #32]
    1482:	6203      	str	r3, [r0, #32]
    1484:	6a4b      	ldr	r3, [r1, #36]	@ 0x24
    1486:	6243      	str	r3, [r0, #36]	@ 0x24
    1488:	6a8b      	ldr	r3, [r1, #40]	@ 0x28
    148a:	6283      	str	r3, [r0, #40]	@ 0x28
    148c:	6acb      	ldr	r3, [r1, #44]	@ 0x2c
    148e:	62c3      	str	r3, [r0, #44]	@ 0x2c
    1490:	6b0b      	ldr	r3, [r1, #48]	@ 0x30
    1492:	6303      	str	r3, [r0, #48]	@ 0x30
    1494:	6b4b      	ldr	r3, [r1, #52]	@ 0x34
    1496:	6343      	str	r3, [r0, #52]	@ 0x34
    1498:	6b8b      	ldr	r3, [r1, #56]	@ 0x38
    149a:	6383      	str	r3, [r0, #56]	@ 0x38
    149c:	6bcb      	ldr	r3, [r1, #60]	@ 0x3c
    149e:	63c3      	str	r3, [r0, #60]	@ 0x3c
    14a0:	3040      	adds	r0, #64	@ 0x40
    14a2:	3140      	adds	r1, #64	@ 0x40
    14a4:	3a40      	subs	r2, #64	@ 0x40
    14a6:	d2db      	bcs.n	1460 <memcpy+0x10>
    14a8:	3230      	adds	r2, #48	@ 0x30
    14aa:	d30b      	bcc.n	14c4 <memcpy+0x74>
    14ac:	680b      	ldr	r3, [r1, #0]
    14ae:	6003      	str	r3, [r0, #0]
    14b0:	684b      	ldr	r3, [r1, #4]
    14b2:	6043      	str	r3, [r0, #4]
    14b4:	688b      	ldr	r3, [r1, #8]
    14b6:	6083      	str	r3, [r0, #8]
    14b8:	68cb      	ldr	r3, [r1, #12]
    14ba:	60c3      	str	r3, [r0, #12]
    14bc:	3010      	adds	r0, #16
    14be:	3110      	adds	r1, #16
    14c0:	3a10      	subs	r2, #16
    14c2:	d2f3      	bcs.n	14ac <memcpy+0x5c>
    14c4:	320c      	adds	r2, #12
    14c6:	d305      	bcc.n	14d4 <memcpy+0x84>
    14c8:	f851 3b04 	ldr.w	r3, [r1], #4
    14cc:	f840 3b04 	str.w	r3, [r0], #4
    14d0:	3a04      	subs	r2, #4
    14d2:	d2f9      	bcs.n	14c8 <memcpy+0x78>
    14d4:	3204      	adds	r2, #4
    14d6:	d008      	beq.n	14ea <memcpy+0x9a>
    14d8:	07d2      	lsls	r2, r2, #31
    14da:	bf1c      	itt	ne
    14dc:	f811 3b01 	ldrbne.w	r3, [r1], #1
    14e0:	f800 3b01 	strbne.w	r3, [r0], #1
    14e4:	d301      	bcc.n	14ea <memcpy+0x9a>
    14e6:	880b      	ldrh	r3, [r1, #0]
    14e8:	8003      	strh	r3, [r0, #0]
    14ea:	4660      	mov	r0, ip
    14ec:	4770      	bx	lr
    14ee:	bf00      	nop
    14f0:	2a08      	cmp	r2, #8
    14f2:	d313      	bcc.n	151c <memcpy+0xcc>
    14f4:	078b      	lsls	r3, r1, #30
    14f6:	d0b1      	beq.n	145c <memcpy+0xc>
    14f8:	f010 0303 	ands.w	r3, r0, #3
    14fc:	d0ae      	beq.n	145c <memcpy+0xc>
    14fe:	f1c3 0304 	rsb	r3, r3, #4
    1502:	1ad2      	subs	r2, r2, r3
    1504:	07db      	lsls	r3, r3, #31
    1506:	bf1c      	itt	ne
    1508:	f811 3b01 	ldrbne.w	r3, [r1], #1
    150c:	f800 3b01 	strbne.w	r3, [r0], #1
    1510:	d3a4      	bcc.n	145c <memcpy+0xc>
    1512:	f831 3b02 	ldrh.w	r3, [r1], #2
    1516:	f820 3b02 	strh.w	r3, [r0], #2
    151a:	e79f      	b.n	145c <memcpy+0xc>
    151c:	3a04      	subs	r2, #4
    151e:	d3d9      	bcc.n	14d4 <memcpy+0x84>
    1520:	3a01      	subs	r2, #1
    1522:	f811 3b01 	ldrb.w	r3, [r1], #1
    1526:	f800 3b01 	strb.w	r3, [r0], #1
    152a:	d2f9      	bcs.n	1520 <memcpy+0xd0>
    152c:	780b      	ldrb	r3, [r1, #0]
    152e:	7003      	strb	r3, [r0, #0]
    1530:	784b      	ldrb	r3, [r1, #1]
    1532:	7043      	strb	r3, [r0, #1]
    1534:	788b      	ldrb	r3, [r1, #2]
    1536:	7083      	strb	r3, [r0, #2]
    1538:	4660      	mov	r0, ip
    153a:	4770      	bx	lr
    153c:	6c6c6548 	cfstr64vs	mvdx6, [ip], #-288	@ 0xfffffee0
    1540:	55202c6f 	strpl	r2, [r0, #-3183]!	@ 0xfffff391
    1544:	20545241 	subscs	r5, r4, r1, asr #4
    1548:	6c726f57 	ldclvs	15, cr6, [r2], #-348	@ 0xfffffea4
    154c:	000a2164 	andeq	r2, sl, r4, ror #2
    1550:	00000010 	andeq	r0, r0, r0, lsl r0
    1554:	00000000 	andeq	r0, r0, r0
    1558:	00527a01 	subseq	r7, r2, r1, lsl #20
    155c:	010e7c02 	tsteq	lr, r2, lsl #24
    1560:	000d0c1b 	andeq	r0, sp, fp, lsl ip
    1564:	00000014 	andeq	r0, r0, r4, lsl r0
    1568:	00000018 	andeq	r0, r0, r8, lsl r0
    156c:	fffffee4 			@ <UNDEFINED> instruction: 0xfffffee4
    1570:	000000ec 	andeq	r0, r0, ip, ror #1
    1574:	0a4d0200 	beq	1341d7c <__ROM_SIZE+0x1301d7c>
    1578:	00000b43 	andeq	r0, r0, r3, asr #22

Disassembly of section .ARM.extab:

0000157c <__exidx_start-0x18>:
    157c:	8101b108 	tsthi	r1, r8, lsl #2
    1580:	8400b0b0 	strhi	fp, [r0], #-176	@ 0xffffff50
    1584:	00000000 	andeq	r0, r0, r0
    1588:	8101b108 	tsthi	r1, r8, lsl #2
    158c:	8400b0b0 	strhi	fp, [r0], #-176	@ 0xffffff50
    1590:	00000000 	andeq	r0, r0, r0

Disassembly of section .ARM.exidx:

00001594 <__exidx_end-0xc0>:
    1594:	7fffee2c 	svcvc	0x00ffee2c
    1598:	80b0b0b0 	ldrhthi	fp, [r0], r0
    159c:	7fffee7c 	svcvc	0x00ffee7c
    15a0:	00000001 	andeq	r0, r0, r1
    15a4:	7fffef9c 	svcvc	0x00ffef9c
    15a8:	8002a9b0 			@ <UNDEFINED> instruction: 0x8002a9b0
    15ac:	7ffff02c 	svcvc	0x00fff02c
    15b0:	80a8b0b0 	strhthi	fp, [r8], r0
    15b4:	7ffff07c 	svcvc	0x00fff07c
    15b8:	00000001 	andeq	r0, r0, r1
    15bc:	7ffff088 	svcvc	0x00fff088
    15c0:	80aab0b0 	strhthi	fp, [sl], r0
    15c4:	7ffff0bc 	svcvc	0x00fff0bc
    15c8:	80b275ae 	adcshi	r7, r2, lr, lsr #11
    15cc:	7ffff194 	svcvc	0x00fff194
    15d0:	00000001 	andeq	r0, r0, r1
    15d4:	7ffff190 	svcvc	0x00fff190
    15d8:	803a3fab 	eorshi	r3, sl, fp, lsr #31
    15dc:	7ffff1f0 	svcvc	0x00fff1f0
    15e0:	00000001 	andeq	r0, r0, r1
    15e4:	7ffff1fc 	svcvc	0x00fff1fc
    15e8:	80aab0b0 	strhthi	fp, [sl], r0
    15ec:	7ffff234 	svcvc	0x00fff234
    15f0:	00000001 	andeq	r0, r0, r1
    15f4:	7ffff2ec 	svcvc	0x00fff2ec
    15f8:	80b20faa 	adcshi	r0, r2, sl, lsr #31
    15fc:	7ffff364 	svcvc	0x00fff364
    1600:	8008afb0 			@ <UNDEFINED> instruction: 0x8008afb0
    1604:	7ffff604 	svcvc	0x00fff604
    1608:	00000001 	andeq	r0, r0, r1
    160c:	7ffff608 	svcvc	0x00fff608
    1610:	80033fac 	andhi	r3, r3, ip, lsr #31
    1614:	7ffff8ec 	svcvc	0x00fff8ec
    1618:	00000001 	andeq	r0, r0, r1
    161c:	7ffffac8 	svcvc	0x00fffac8
    1620:	80048400 	andhi	r8, r4, r0, lsl #8
    1624:	7ffffadc 	svcvc	0x00fffadc
    1628:	00000001 	andeq	r0, r0, r1
    162c:	7ffffad8 	svcvc	0x00fffad8
    1630:	8004adb0 			@ <UNDEFINED> instruction: 0x8004adb0
    1634:	7ffffdcc 	svcvc	0x00fffdcc
    1638:	80048400 	andhi	r8, r4, r0, lsl #8
    163c:	7ffffdf4 	svcvc	0x00fffdf4
    1640:	7fffff3c 	svcvc	0x00ffff3c
    1644:	7ffffdf8 	svcvc	0x00fffdf8
    1648:	7fffff40 	svcvc	0x00ffff40
    164c:	7ffffe04 	svcvc	0x00fffe04
    1650:	00000001 	andeq	r0, r0, r1

Disassembly of section .copy.table:

00001654 <__copy_table_start__>:
    1654:	00001660 	andeq	r1, r0, r0, ror #12
    1658:	20000000 	andcs	r0, r0, r0
    165c:	00000004 	andeq	r0, r0, r4

Disassembly of section .data:

20000000 <SystemCoreClock>:
20000000:	017d7840 	cmneq	sp, r0, asr #16

Disassembly of section .heap:

20000004 <__end__-0x4>:
20000004:	00000000 	andeq	r0, r0, r0

20000008 <__end__>:
	...

Disassembly of section .stack:

2000fc00 <__StackLimit>:
	...

Disassembly of section .ARM.attributes:

00000000 <.ARM.attributes>:
   0:	00002841 	andeq	r2, r0, r1, asr #16
   4:	61656100 	cmnvs	r5, r0, lsl #2
   8:	01006962 	tsteq	r0, r2, ror #18
   c:	0000001e 	andeq	r0, r0, lr, lsl r0
  10:	4d2d3705 	stcmi	7, cr3, [sp, #-20]!	@ 0xffffffec
  14:	070a0600 	streq	r0, [sl, -r0, lsl #12]
  18:	1202094d 	andne	r0, r2, #1261568	@ 0x134000
  1c:	15011404 	strne	r1, [r1, #-1028]	@ 0xfffffbfc
  20:	18031701 	stmdane	r3, {r0, r8, r9, sl, ip}
  24:	22011a01 	andcs	r1, r1, #4096	@ 0x1000
  28:	Address 0x28 is out of bounds.


Disassembly of section .comment:

00000000 <.comment>:
   0:	3a434347 	bcc	10d0d24 <__ROM_SIZE+0x1090d24>
   4:	35312820 	ldrcc	r2, [r1, #-2080]!	@ 0xfffff7e0
   8:	2e33313a 	mrccs	1, 1, r3, cr3, cr10, {1}
   c:	65722e32 	ldrbvs	r2, [r2, #-3634]!	@ 0xfffff1ce
  10:	322d316c 	eorcc	r3, sp, #108, 2
  14:	33312029 	teqcc	r1, #41	@ 0x29
  18:	312e322e 			@ <UNDEFINED> instruction: 0x312e322e
  1c:	32303220 	eorscc	r3, r0, #32, 4
  20:	30303133 	eorscc	r3, r0, r3, lsr r1
  24:	Address 0x24 is out of bounds.


Disassembly of section .debug_line:

00000000 <.debug_line>:
       0:	00000073 	andeq	r0, r0, r3, ror r0
       4:	00040005 	andeq	r0, r4, r5
       8:	0000002e 	andeq	r0, r0, lr, lsr #32
       c:	fb010102 	blx	4041e <__ROM_SIZE+0x41e>
      10:	01000d0e 	tsteq	r0, lr, lsl #26
      14:	00010101 	andeq	r0, r1, r1, lsl #2
      18:	00010000 	andeq	r0, r1, r0
      1c:	01010100 	mrseq	r0, (UNDEF: 17)
      20:	0000021f 	andeq	r0, r0, pc, lsl r2
      24:	003c0000 	eorseq	r0, ip, r0
      28:	01020000 	mrseq	r0, (UNDEF: 2)
      2c:	020f021f 	andeq	r0, pc, #-268435455	@ 0xf0000001
      30:	00000064 	andeq	r0, r0, r4, rrx
      34:	00006401 	andeq	r6, r0, r1, lsl #8
      38:	05000100 	streq	r0, [r0, #-256]	@ 0xffffff00
      3c:	0003c002 	andeq	ip, r3, r2
      40:	00cd0300 	sbceq	r0, sp, r0, lsl #6
      44:	23213001 			@ <UNDEFINED> instruction: 0x23213001
      48:	21212121 			@ <UNDEFINED> instruction: 0x21212121
      4c:	21212321 			@ <UNDEFINED> instruction: 0x21212321
      50:	21222121 			@ <UNDEFINED> instruction: 0x21222121
      54:	21232123 			@ <UNDEFINED> instruction: 0x21232123
      58:	21212121 			@ <UNDEFINED> instruction: 0x21212121
      5c:	21212123 			@ <UNDEFINED> instruction: 0x21212123
      60:	03232122 			@ <UNDEFINED> instruction: 0x03232122
      64:	09032e0d 	stmdbeq	r3, {r0, r2, r3, r9, sl, fp, sp}
      68:	7fbf0320 	svcvc	0x00bf0320
      6c:	15032f2e 	strne	r2, [r3, #-3886]	@ 0xfffff0d2
      70:	02022f2e 	andeq	r2, r2, #46, 30	@ 0xb8
      74:	21010100 	mrscs	r0, (UNDEF: 17)
      78:	03000001 	movweq	r0, #1
      7c:	0000e400 	andeq	lr, r0, r0, lsl #8
      80:	fb010200 	blx	4088a <__ROM_SIZE+0x88a>
      84:	01000d0e 	tsteq	r0, lr, lsl #26
      88:	00010101 	andeq	r0, r1, r1, lsl #2
      8c:	00010000 	andeq	r0, r1, r0
      90:	2e2e0100 	sufcse	f0, f6, f0
      94:	534d432f 	movtpl	r4, #54063	@ 0xd32f
      98:	355f5349 	ldrbcc	r5, [pc, #-841]	@ fffffd57 <__StackTop+0xdffefd57>
      9c:	7665442f 	strbtvc	r4, [r5], -pc, lsr #8
      a0:	2f656369 	svccs	0x00656369
      a4:	2f4d5241 	svccs	0x004d5241
      a8:	434d5241 	movtmi	r5, #53825	@ 0xd241
      ac:	532f334d 			@ <UNDEFINED> instruction: 0x532f334d
      b0:	6372756f 	cmnvs	r2, #465567744	@ 0x1bc00000
      b4:	752f0065 	strvc	r0, [pc, #-101]!	@ 57 <__Vectors+0x57>
      b8:	6c2f7273 	sfmvs	f7, 4, [pc], #-460	@ fffffef4 <__StackTop+0xdffefef4>
      bc:	672f6269 	strvs	r6, [pc, -r9, ror #4]!
      c0:	612f6363 			@ <UNDEFINED> instruction: 0x612f6363
      c4:	6e2d6d72 	mcrvs	13, 1, r6, cr13, cr2, {3}
      c8:	2d656e6f 	stclcs	14, cr6, [r5, #-444]!	@ 0xfffffe44
      cc:	69626165 	stmdbvs	r2!, {r0, r2, r5, r6, r8, sp, lr}^
      d0:	2e33312f 	rsfcssp	f3, f3, #10.0
      d4:	2f312e32 	svccs	0x00312e32
      d8:	6c636e69 	stclvs	14, cr6, [r3], #-420	@ 0xfffffe5c
      dc:	00656475 	rsbeq	r6, r5, r5, ror r4
      e0:	432f2e2e 			@ <UNDEFINED> instruction: 0x432f2e2e
      e4:	5349534d 	movtpl	r5, #37709	@ 0x934d
      e8:	432f355f 			@ <UNDEFINED> instruction: 0x432f355f
      ec:	5349534d 	movtpl	r5, #37709	@ 0x934d
      f0:	726f432f 	rsbvc	r4, pc, #-1140850688	@ 0xbc000000
      f4:	6e492f65 	cdpvs	15, 4, cr2, cr9, cr5, {3}
      f8:	64756c63 	ldrbtvs	r6, [r5], #-3171	@ 0xfffff39d
      fc:	2e2e0065 	cdpcs	0, 2, cr0, cr14, cr5, {3}
     100:	534d432f 	movtpl	r4, #54063	@ 0xd32f
     104:	355f5349 	ldrbcc	r5, [pc, #-841]	@ fffffdc3 <__StackTop+0xdffefdc3>
     108:	7665442f 	strbtvc	r4, [r5], -pc, lsr #8
     10c:	2f656369 	svccs	0x00656369
     110:	2f4d5241 	svccs	0x004d5241
     114:	434d5241 	movtmi	r5, #53825	@ 0xd241
     118:	492f334d 	stmdbmi	pc!, {r0, r2, r3, r6, r8, r9, ip, sp}	@ <UNPREDICTABLE>
     11c:	756c636e 	strbvc	r6, [ip, #-878]!	@ 0xfffffc92
     120:	00006564 	andeq	r6, r0, r4, ror #10
     124:	74737973 	ldrbtvc	r7, [r3], #-2419	@ 0xfffff68d
     128:	415f6d65 	cmpmi	pc, r5, ror #26
     12c:	4d434d52 	stclmi	13, cr4, [r3, #-328]	@ 0xfffffeb8
     130:	00632e33 	rsbeq	r2, r3, r3, lsr lr
     134:	73000001 	movwvc	r0, #1
     138:	6e696474 	mcrvs	4, 3, r6, cr9, cr4, {3}
     13c:	00682e74 	rsbeq	r2, r8, r4, ror lr
     140:	63000002 	movwvs	r0, #2
     144:	5f65726f 	svcpl	0x0065726f
     148:	2e336d63 	cdpcs	13, 3, cr6, cr3, cr3, {3}
     14c:	00030068 	andeq	r0, r3, r8, rrx
     150:	73797300 	cmnvc	r9, #0, 6
     154:	5f6d6574 	svcpl	0x006d6574
     158:	434d5241 	movtmi	r5, #53825	@ 0xd241
     15c:	682e334d 	stmdavs	lr!, {r0, r2, r3, r6, r8, r9, ip, sp}
     160:	00000400 	andeq	r0, r0, r0, lsl #8
     164:	00010500 	andeq	r0, r1, r0, lsl #10
     168:	00000205 	andeq	r0, r0, r5, lsl #4
     16c:	31030000 	mrscc	r0, (UNDEF: 3)
     170:	2f130501 	svccs	0x00130501
     174:	023d0105 	eorseq	r0, sp, #1073741825	@ 0x40000001
     178:	01010009 	tsteq	r1, r9
     17c:	05000105 	streq	r0, [r0, #-261]	@ 0xfffffefb
     180:	00041802 	andeq	r1, r4, r2, lsl #16
     184:	01390300 	teqeq	r9, r0, lsl #6
     188:	05310605 	ldreq	r0, [r1, #-1541]!	@ 0xfffff9fb
     18c:	0d05200f 	stceq	0, cr2, [r5, #-60]	@ 0xffffffc4
     190:	23130520 	tstcs	r3, #32, 10	@ 0x8000000
     194:	023d0105 	eorseq	r0, sp, #1073741825	@ 0x40000001
     198:	0101000c 	tsteq	r1, ip
     19c:	00000042 	andeq	r0, r0, r2, asr #32
     1a0:	00270003 	eoreq	r0, r7, r3
     1a4:	01020000 	mrseq	r0, (UNDEF: 2)
     1a8:	000d0efb 	strdeq	r0, [sp], -fp
     1ac:	01010101 	tsteq	r1, r1, lsl #2
     1b0:	01000000 	mrseq	r0, (UNDEF: 0)
     1b4:	00010000 	andeq	r0, r1, r0
     1b8:	6e69616d 	powvsez	f6, f1, #5.0
     1bc:	0000632e 	andeq	r6, r0, lr, lsr #6
     1c0:	61750000 	cmnvs	r5, r0
     1c4:	682e7472 	stmdavs	lr!, {r1, r4, r5, r6, sl, ip, sp, lr}
     1c8:	00000000 	andeq	r0, r0, r0
     1cc:	00100500 	andseq	r0, r0, r0, lsl #10
     1d0:	04400205 	strbeq	r0, [r0], #-517	@ 0xfffffdfb
     1d4:	05150000 	ldreq	r0, [r5, #-0]
     1d8:	0b052f05 	bleq	14bdf4 <__ROM_SIZE+0x10bdf4>
     1dc:	0005023d 	andeq	r0, r5, sp, lsr r2
     1e0:	009a0101 	addseq	r0, sl, r1, lsl #2
     1e4:	00030000 	andeq	r0, r3, r0
     1e8:	00000053 	andeq	r0, r0, r3, asr r0
     1ec:	0efb0102 	cdpeq	1, 15, cr0, cr11, cr2, {0}
     1f0:	0101000d 	tsteq	r1, sp
     1f4:	00000101 	andeq	r0, r0, r1, lsl #2
     1f8:	00000100 	andeq	r0, r0, r0, lsl #2
     1fc:	73752f01 	cmnvc	r5, #1, 30
     200:	696c2f72 	stmdbvs	ip!, {r1, r4, r5, r6, r8, r9, sl, fp, sp}^
     204:	63672f62 	cmnvs	r7, #392	@ 0x188
     208:	72612f63 	rsbvc	r2, r1, #396	@ 0x18c
     20c:	6f6e2d6d 	svcvs	0x006e2d6d
     210:	652d656e 	strvs	r6, [sp, #-1390]!	@ 0xfffffa92
     214:	2f696261 	svccs	0x00696261
     218:	322e3331 	eorcc	r3, lr, #-1006632960	@ 0xc4000000
     21c:	692f312e 	stmdbvs	pc!, {r1, r2, r3, r5, r8, ip, sp}	@ <UNPREDICTABLE>
     220:	756c636e 	strbvc	r6, [ip, #-878]!	@ 0xfffffc92
     224:	00006564 	andeq	r6, r0, r4, ror #10
     228:	74726175 	ldrbtvc	r6, [r2], #-373	@ 0xfffffe8b
     22c:	0000632e 	andeq	r6, r0, lr, lsr #6
     230:	74730000 	ldrbtvc	r0, [r3], #-0
     234:	746e6964 	strbtvc	r6, [lr], #-2404	@ 0xfffff69c
     238:	0100682e 	tsteq	r0, lr, lsr #16
     23c:	05000000 	streq	r0, [r0, #-0]
     240:	02050001 	andeq	r0, r5, #1
     244:	00000454 	andeq	r0, r0, r4, asr r4
     248:	05011003 	streq	r1, [r1, #-3]
     24c:	18054b05 	stmdane	r5, {r0, r2, r8, r9, fp, lr}
     250:	2f0c0520 	svccs	0x000c0520
     254:	02210105 	eoreq	r0, r1, #1073741825	@ 0x40000001
     258:	01010008 	tsteq	r1, r8
     25c:	05000105 	streq	r0, [r0, #-261]	@ 0xfffffefb
     260:	00047402 	andeq	r7, r4, r2, lsl #8
     264:	01160300 	tsteq	r6, r0, lsl #6
     268:	054b0b05 	strbeq	r0, [fp, #-2821]	@ 0xfffff4fb
     26c:	09052116 	stmdbeq	r5, {r1, r2, r4, r8, sp}
     270:	3d0c052e 	cfstr32cc	mvfx0, [ip, #-184]	@ 0xffffff48
     274:	2e11053a 	mrccs	5, 0, r0, cr1, cr10, {1}
     278:	02320105 	eorseq	r0, r2, #1073741825	@ 0x40000001
     27c:	01010005 	tsteq	r1, r5
     280:	00001182 	andeq	r1, r0, r2, lsl #3
     284:	00fa0003 	rscseq	r0, sl, r3
     288:	01020000 	mrseq	r0, (UNDEF: 2)
     28c:	000d0efb 	strdeq	r0, [sp], -fp
     290:	01010101 	tsteq	r1, r1, lsl #2
     294:	01000000 	mrseq	r0, (UNDEF: 0)
     298:	2e010000 	cdpcs	0, 0, cr0, cr1, cr0, {0}
     29c:	2e2e2f2e 	cdpcs	15, 2, cr2, cr14, cr14, {1}
     2a0:	2f2e2e2f 	svccs	0x002e2e2f
     2a4:	2e2f2e2e 	cdpcs	14, 2, cr2, cr15, cr14, {1}
     2a8:	2e2e2f2e 	cdpcs	15, 2, cr2, cr14, cr14, {1}
     2ac:	62696c2f 	rsbvs	r6, r9, #12032	@ 0x2f00
     2b0:	2f636367 	svccs	0x00636367
     2b4:	666e6f63 	strbtvs	r6, [lr], -r3, ror #30
     2b8:	612f6769 			@ <UNDEFINED> instruction: 0x612f6769
     2bc:	2e006d72 	mcrcs	13, 0, r6, cr0, cr2, {3}
     2c0:	2e2e2f2e 	cdpcs	15, 2, cr2, cr14, cr14, {1}
     2c4:	2f2e2e2f 	svccs	0x002e2e2f
     2c8:	2e2f2e2e 	cdpcs	14, 2, cr2, cr15, cr14, {1}
     2cc:	2e2e2f2e 	cdpcs	15, 2, cr2, cr14, cr14, {1}
     2d0:	62696c2f 	rsbvs	r6, r9, #12032	@ 0x2f00
     2d4:	00636367 	rsbeq	r6, r3, r7, ror #6
     2d8:	622f002e 	eorvs	r0, pc, #46	@ 0x2e
     2dc:	646c6975 	strbtvs	r6, [ip], #-2421	@ 0xfffff68b
     2e0:	6363672f 	cmnvs	r3, #12320768	@ 0xbc0000
     2e4:	6d72612d 	ldfvse	f6, [r2, #-180]!	@ 0xffffff4c
     2e8:	6e6f6e2d 	cdpvs	14, 6, cr6, cr15, cr13, {1}
     2ec:	61652d65 	cmnvs	r5, r5, ror #26
     2f0:	542d6962 	strtpl	r6, [sp], #-2402	@ 0xfffff69e
     2f4:	4e5a5475 	mrcmi	4, 2, r5, cr10, cr5, {3}
     2f8:	63672f30 	cmnvs	r7, #48, 30	@ 0xc0
     2fc:	72612d63 	rsbvc	r2, r1, #6336	@ 0x18c0
     300:	6f6e2d6d 	svcvs	0x006e2d6d
     304:	652d656e 	strvs	r6, [sp, #-1390]!	@ 0xfffffa92
     308:	2d696261 	sfmcs	f6, 2, [r9, #-388]!	@ 0xfffffe7c
     30c:	322e3331 	eorcc	r3, lr, #-1006632960	@ 0xc4000000
     310:	6c65722e 	sfmvs	f7, 2, [r5], #-184	@ 0xffffff48
     314:	75622f31 	strbvc	r2, [r2, #-3889]!	@ 0xfffff0cf
     318:	2f646c69 	svccs	0x00646c69
     31c:	2f636367 	svccs	0x00636367
     320:	6c636e69 	stclvs	14, cr6, [r3], #-420	@ 0xfffffe5c
     324:	00656475 	rsbeq	r6, r5, r5, ror r4
     328:	776e7500 	strbvc	r7, [lr, -r0, lsl #10]!
     32c:	2d646e69 	stclcs	14, cr6, [r4, #-420]!	@ 0xfffffe5c
     330:	2e6d7261 	cdpcs	2, 6, cr7, cr13, cr1, {3}
     334:	00010063 	andeq	r0, r1, r3, rrx
     338:	776e7500 	strbvc	r7, [lr, -r0, lsl #10]!
     33c:	2d646e69 	stclcs	14, cr6, [r4, #-420]!	@ 0xfffffe5c
     340:	2d6d7261 	sfmcs	f7, 2, [sp, #-388]!	@ 0xfffffe7c
     344:	6d6d6f63 	stclvs	15, cr6, [sp, #-396]!	@ 0xfffffe74
     348:	692e6e6f 	stmdbvs	lr!, {r0, r1, r2, r3, r5, r6, r9, sl, fp, sp, lr}
     34c:	0200636e 	andeq	r6, r0, #-1207959551	@ 0xb8000001
     350:	6e750000 	cdpvs	0, 7, cr0, cr5, cr0, {0}
     354:	646e6977 	strbtvs	r6, [lr], #-2423	@ 0xfffff689
     358:	0300682e 	movweq	r6, #2094	@ 0x82e
     35c:	6e750000 	cdpvs	0, 7, cr0, cr5, cr0, {0}
     360:	646e6977 	strbtvs	r6, [lr], #-2423	@ 0xfffff689
     364:	6d72612d 	ldfvse	f6, [r2, #-180]!	@ 0xffffff4c
     368:	6d6f632d 	stclvs	3, cr6, [pc, #-180]!	@ 2bc <__Vectors+0x2bc>
     36c:	2e6e6f6d 	cdpcs	15, 6, cr6, cr14, cr13, {3}
     370:	00040068 	andeq	r0, r4, r8, rrx
     374:	75623c00 	strbvc	r3, [r2, #-3072]!	@ 0xfffff400
     378:	2d746c69 	ldclcs	12, cr6, [r4, #-420]!	@ 0xfffffe5c
     37c:	003e6e69 	eorseq	r6, lr, r9, ror #28
     380:	00000000 	andeq	r0, r0, r0
     384:	05000105 	streq	r0, [r0, #-261]	@ 0xfffffefb
     388:	0004a002 	andeq	sl, r4, r2
     38c:	03e30300 	mvneq	r0, #0, 6
     390:	13030501 	movwne	r0, #13569	@ 0x3501
     394:	060a0514 			@ <UNDEFINED> instruction: 0x060a0514
     398:	06030501 	streq	r0, [r3], -r1, lsl #10
     39c:	06060522 	streq	r0, [r6], -r2, lsr #10
     3a0:	06050501 	streq	r0, [r5], -r1, lsl #10
     3a4:	060c0521 	streq	r0, [ip], -r1, lsr #10
     3a8:	06050501 	streq	r0, [r5], -r1, lsl #10
     3ac:	060c053e 			@ <UNDEFINED> instruction: 0x060c053e
     3b0:	06030501 	streq	r0, [r3], -r1, lsl #10
     3b4:	06010530 			@ <UNDEFINED> instruction: 0x06010530
     3b8:	02042013 	andeq	r2, r4, #19
     3bc:	7dca0306 	stclvc	3, cr0, [sl, #24]
     3c0:	1303052e 	movwne	r0, #13614	@ 0x352e
     3c4:	05141313 	ldreq	r1, [r4, #-787]	@ 0xfffffced
     3c8:	050d0601 	streq	r0, [sp, #-1537]	@ 0xfffff9ff
     3cc:	09053306 	stmdbeq	r5, {r1, r2, r8, r9, ip, sp}
     3d0:	06030524 	streq	r0, [r3], -r4, lsr #10
     3d4:	09051349 	stmdbeq	r5, {r0, r3, r6, r8, r9, ip}
     3d8:	08050106 	stmdaeq	r5, {r1, r2, r8}
     3dc:	0603051f 			@ <UNDEFINED> instruction: 0x0603051f
     3e0:	14070523 	strne	r0, [r7], #-1315	@ 0xfffffadd
     3e4:	01061105 	tsteq	r6, r5, lsl #2
     3e8:	05200905 	streq	r0, [r0, #-2309]!	@ 0xfffff6fb
     3ec:	053d0607 	ldreq	r0, [sp, #-1543]!	@ 0xfffff9f9
     3f0:	05010629 	streq	r0, [r1, #-1577]	@ 0xfffff9d7
     3f4:	02052e11 	andeq	r2, r5, #272	@ 0x110
     3f8:	07053e06 	streq	r3, [r5, -r6, lsl #28]
     3fc:	14040516 	strne	r0, [r4], #-1302	@ 0xfffffaea
     400:	060a0514 			@ <UNDEFINED> instruction: 0x060a0514
     404:	05017703 	streq	r7, [r1, #-1795]	@ 0xfffff8fd
     408:	07051f11 	smladeq	r5, r1, pc, r1	@ <UNPREDICTABLE>
     40c:	29052106 	stmdbcs	r5, {r1, r2, r8, sp}
     410:	0a051106 	beq	144830 <__ROM_SIZE+0x104830>
     414:	2124052f 			@ <UNDEFINED> instruction: 0x2124052f
     418:	05320a05 	ldreq	r0, [r2, #-2565]!	@ 0xfffff5fb
     41c:	0a051c0c 	beq	147454 <__ROM_SIZE+0x107454>
     420:	1c0c0524 	cfstr32ne	mvfx0, [ip], {36}	@ 0x24
     424:	2e0a0306 	cdpcs	3, 0, cr0, cr10, cr6, {0}
     428:	05150205 	ldreq	r0, [r5, #-517]	@ 0xfffffdfb
     42c:	0402000a 	streq	r0, [r2], #-10
     430:	73030601 	movwvc	r0, #13825	@ 0x3601
     434:	030f0501 	movweq	r0, #62721	@ 0xf501
     438:	0705200a 	streq	r2, [r5, -sl]
     43c:	2b0f0523 	blcs	3c18d0 <__ROM_SIZE+0x3818d0>
     440:	05250105 	streq	r0, [r5, #-261]!	@ 0xfffffefb
     444:	75030607 	strvc	r0, [r3, #-1543]	@ 0xfffff9f9
     448:	060a053c 			@ <UNDEFINED> instruction: 0x060a053c
     44c:	30070501 	andcc	r0, r7, r1, lsl #10
     450:	20300a05 	eorscs	r0, r0, r5, lsl #20
     454:	6e030c05 	cdpvs	12, 0, cr0, cr3, cr5, {0}
     458:	03010520 	movweq	r0, #5408	@ 0x1520
     45c:	01042e19 	tsteq	r4, r9, lsl lr
     460:	029b0306 	addseq	r0, fp, #402653184	@ 0x18000000
     464:	1303054a 	movwne	r0, #13642	@ 0x354a
     468:	4d060e05 	stcmi	14, cr0, [r6, #-20]	@ 0xffffffec
     46c:	0607054a 	streq	r0, [r7], -sl, asr #10
     470:	060e0534 			@ <UNDEFINED> instruction: 0x060e0534
     474:	25010501 	strcs	r0, [r1, #-1281]	@ 0xfffffaff
     478:	03060705 	movweq	r0, #26373	@ 0x6705
     47c:	0e052078 	mcreq	0, 0, r2, cr5, cr8, {3}
     480:	04200106 	strteq	r0, [r0], #-262	@ 0xfffffefa
     484:	06010502 	streq	r0, [r1], -r2, lsl #10
     488:	747e8d03 	ldrbtvc	r8, [lr], #-3331	@ 0xfffff2fd
     48c:	13130305 	tstne	r3, #335544320	@ 0x14000000
     490:	06010519 			@ <UNDEFINED> instruction: 0x06010519
     494:	05017703 	streq	r7, [r1, #-1795]	@ 0xfffff8fd
     498:	200b0306 	andcs	r0, fp, r6, lsl #6
     49c:	75030105 	strvc	r0, [r3, #-261]	@ 0xfffffefb
     4a0:	03120520 	tsteq	r2, #32, 10	@ 0x8000000
     4a4:	03052e09 	movweq	r2, #24073	@ 0x5e09
     4a8:	06052206 	streq	r2, [r5], -r6, lsl #4
     4ac:	07050106 	streq	r0, [r5, -r6, lsl #2]
     4b0:	24052206 	strcs	r2, [r5], #-518	@ 0xfffffdfa
     4b4:	05200106 	streq	r0, [r0, #-262]!	@ 0xfffffefa
     4b8:	053e0607 	ldreq	r0, [lr, #-1543]!	@ 0xfffff9f9
     4bc:	0301060a 	movweq	r0, #5642	@ 0x160a
     4c0:	03052021 	movweq	r2, #20513	@ 0x5021
     4c4:	0a052006 	beq	1484e4 <__ROM_SIZE+0x1084e4>
     4c8:	03050106 	movweq	r0, #20742	@ 0x5106
     4cc:	06053e06 	streq	r3, [r5], -r6, lsl #28
     4d0:	03050106 	movweq	r0, #20742	@ 0x5106
     4d4:	2e1a0306 	cdpcs	3, 1, cr0, cr10, cr6, {0}
     4d8:	01061c05 	tsteq	r6, r5, lsl #24
     4dc:	05310b05 	ldreq	r0, [r1, #-2821]!	@ 0xfffff4fb
     4e0:	0402001a 	streq	r0, [r2], #-26	@ 0xffffffe6
     4e4:	03051d01 	movweq	r1, #23809	@ 0x5d01
     4e8:	06052306 	streq	r2, [r5], -r6, lsl #6
     4ec:	03050106 	movweq	r0, #20742	@ 0x5106
     4f0:	2e1d0306 	cdpcs	3, 1, cr0, cr13, cr6, {0}
     4f4:	01060605 	tsteq	r6, r5, lsl #12
     4f8:	03060705 	movweq	r0, #26373	@ 0x6705
     4fc:	19052e0a 	stmdbne	r5, {r1, r3, r9, sl, fp, sp}
     500:	02051306 	andeq	r1, r5, #402653184	@ 0x18000000
     504:	01040200 	mrseq	r0, R12_usr
     508:	0607053c 			@ <UNDEFINED> instruction: 0x0607053c
     50c:	06210521 	strteq	r0, [r1], -r1, lsr #10
     510:	05017803 	streq	r7, [r1, #-2051]	@ 0xfffff7fd
     514:	0c030603 	stceq	6, cr0, [r3], {3}
     518:	06070520 	streq	r0, [r7], -r0, lsr #10
     51c:	031b0501 	tsteq	fp, #4194304	@ 0x400000
     520:	06052073 			@ <UNDEFINED> instruction: 0x06052073
     524:	05200d03 	streq	r0, [r0, #-3331]!	@ 0xfffff2fd
     528:	1c030607 	stcne	6, cr0, [r3], {7}
     52c:	061c052e 	ldreq	r0, [ip], -lr, lsr #10
     530:	420a0501 	andmi	r0, sl, #4194304	@ 0x400000
     534:	02001a05 	andeq	r1, r0, #20480	@ 0x5000
     538:	6f030104 	svcvs	0x00030104
     53c:	03010520 	movweq	r0, #5408	@ 0x1520
     540:	04052012 	streq	r2, [r5], #-18	@ 0xffffffee
     544:	7f870306 	svcvc	0x00870306
     548:	0b05132e 	bleq	145208 <__ROM_SIZE+0x105208>
     54c:	1a050106 	bne	14096c <__ROM_SIZE+0x10096c>
     550:	01040200 	mrseq	r0, R12_usr
     554:	2e00e603 	cfmadd32cs	mvax0, mvfx14, mvfx0, mvfx3
     558:	12030105 	andne	r0, r3, #1073741825	@ 0x40000001
     55c:	06070520 	streq	r0, [r7], -r0, lsr #10
     560:	2e7f8d03 	cdpcs	13, 7, cr8, cr15, cr3, {0}
     564:	061b0513 			@ <UNDEFINED> instruction: 0x061b0513
     568:	2d0c0501 	cfstr32cs	mvfx0, [ip, #-4]
     56c:	05211b05 	streq	r1, [r1, #-2821]!	@ 0xfffff4fb
     570:	07052e0c 	streq	r2, [r5, -ip, lsl #28]
     574:	00d20306 	sbcseq	r0, r2, r6, lsl #6
     578:	010e032e 	tsteq	lr, lr, lsr #6
     57c:	01061c05 	tsteq	r6, r5, lsl #24
     580:	4c060705 	stcmi	7, cr0, [r6], {5}
     584:	03060a05 	movweq	r0, #27141	@ 0x6a05
     588:	1a05010f 	bne	1409cc <__ROM_SIZE+0x1009cc>
     58c:	01040200 	mrseq	r0, R12_usr
     590:	054a6f03 	strbeq	r6, [sl, #-3843]	@ 0xfffff0fd
     594:	20120301 	andscs	r0, r2, r1, lsl #6
     598:	03060705 	movweq	r0, #26373	@ 0x6705
     59c:	33052e50 	movwcc	r2, #24144	@ 0x5e50
     5a0:	07052006 	streq	r2, [r5, -r6]
     5a4:	20062106 	andcs	r2, r6, r6, lsl #2
     5a8:	77030e05 	strvc	r0, [r3, -r5, lsl #28]
     5ac:	05010420 	streq	r0, [r1, #-1056]	@ 0xfffffbe0
     5b0:	05000601 	streq	r0, [r0, #-1537]	@ 0xfffff9ff
     5b4:	0005d802 	andeq	sp, r5, r2, lsl #16
     5b8:	7e9a0300 	cdpvc	3, 9, cr0, cr10, cr0, {0}
     5bc:	13030501 	movwne	r0, #13569	@ 0x3501
     5c0:	01060b05 	tsteq	r6, r5, lsl #22
     5c4:	051f0105 	ldreq	r0, [pc, #-261]	@ 4c7 <search_EIT_table+0x13>
     5c8:	01052106 	tsteq	r5, r6, lsl #2
     5cc:	2106051f 	tstcs	r6, pc, lsl r5
     5d0:	22060705 	andcs	r0, r6, #1310720	@ 0x140000
     5d4:	01060a05 	tsteq	r6, r5, lsl #20
     5d8:	05210905 	streq	r0, [r1, #-2309]!	@ 0xfffff6fb
     5dc:	09052d0a 	stmdbeq	r5, {r1, r3, r8, sl, fp, sp}
     5e0:	0b052106 	bleq	148a00 <__ROM_SIZE+0x108a00>
     5e4:	03053306 	movweq	r3, #21254	@ 0x5306
     5e8:	06052006 	streq	r2, [r5], -r6
     5ec:	03050106 	movweq	r0, #20742	@ 0x5106
     5f0:	06053106 	streq	r3, [r5], -r6, lsl #2
     5f4:	03050106 	movweq	r0, #20742	@ 0x5106
     5f8:	06053006 	streq	r3, [r5], -r6
     5fc:	01050106 	tsteq	r5, r6, lsl #2
     600:	06090530 			@ <UNDEFINED> instruction: 0x06090530
     604:	05207603 	streq	r7, [r0, #-1539]!	@ 0xfffff9fd
     608:	0531060b 	ldreq	r0, [r1, #-1547]!	@ 0xfffff9f5
     60c:	05200603 	streq	r0, [r0, #-1539]!	@ 0xfffff9fd
     610:	05010606 	streq	r0, [r1, #-1542]	@ 0xfffff9fa
     614:	052f0605 	streq	r0, [pc, #-1541]!	@ 17 <__Vectors+0x17>
     618:	054c060b 	strbeq	r0, [ip, #-1547]	@ 0xfffff9f5
     61c:	05200603 	streq	r0, [r0, #-1539]!	@ 0xfffff9fd
     620:	05010606 	streq	r0, [r1, #-1542]	@ 0xfffff9fa
     624:	052f0605 	streq	r0, [pc, #-1541]!	@ 27 <__Vectors+0x27>
     628:	054b060b 	strbeq	r0, [fp, #-1547]	@ 0xfffff9f5
     62c:	05200603 	streq	r0, [r0, #-1539]!	@ 0xfffff9fd
     630:	05010606 	streq	r0, [r1, #-1542]	@ 0xfffff9fa
     634:	052f0605 	streq	r0, [pc, #-1541]!	@ 37 <__Vectors+0x37>
     638:	052f0601 	streq	r0, [pc, #-1537]!	@ 3f <__Vectors+0x3f>
     63c:	042e2d05 	strteq	r2, [lr], #-3333	@ 0xfffff2fb
     640:	06030503 	streq	r0, [r3], -r3, lsl #10
     644:	30020500 	andcc	r0, r2, r0, lsl #10
     648:	03000006 	movweq	r0, #6
     64c:	05017fa6 	streq	r7, [r1, #-4006]	@ 0xfffff05a
     650:	05141507 	ldreq	r1, [r4, #-1287]	@ 0xfffffaf9
     654:	050d0603 	streq	r0, [sp, #-1539]	@ 0xfffff9fd
     658:	0705250b 	streq	r2, [r5, -fp, lsl #10]
     65c:	0a052206 	beq	148e7c <__ROM_SIZE+0x108e7c>
     660:	07050106 	streq	r0, [r5, -r6, lsl #2]
     664:	20140306 	andscs	r0, r4, r6, lsl #6
     668:	01060b05 	tsteq	r6, r5, lsl #22
     66c:	22060705 	andcs	r0, r6, #1310720	@ 0x140000
     670:	13060505 	movwne	r0, #25861	@ 0x6505
     674:	31060305 	tstcc	r6, r5, lsl #6
     678:	05160705 	ldreq	r0, [r6, #-1797]	@ 0xfffff8fb
     67c:	04130605 	ldreq	r0, [r3], #-1541	@ 0xfffff9fb
     680:	06010502 	streq	r0, [r1], -r2, lsl #10
     684:	40020500 	andmi	r0, r2, r0, lsl #10
     688:	03000006 	movweq	r0, #6
     68c:	03050136 	movweq	r0, #20790	@ 0x5136
     690:	06010518 			@ <UNDEFINED> instruction: 0x06010518
     694:	8c030614 	stchi	6, cr0, [r3], {20}
     698:	01062e02 	tsteq	r6, r2, lsl #28
     69c:	3d060305 	stccc	3, cr0, [r6, #-20]	@ 0xffffffec
     6a0:	15070514 	strne	r0, [r7, #-1300]	@ 0xfffffaec
     6a4:	01060b05 	tsteq	r6, r5, lsl #22
     6a8:	02000a05 	andeq	r0, r0, #20480	@ 0x5000
     6ac:	054a0104 	strbeq	r0, [sl, #-260]	@ 0xfffffefc
     6b0:	05310607 	ldreq	r0, [r1, #-1543]!	@ 0xfffff9f9
     6b4:	05010626 	streq	r0, [r1, #-1574]	@ 0xfffff9da
     6b8:	2e0c0314 	mcrcs	3, 0, r0, cr12, cr4, {0}
     6bc:	74032605 	strvc	r2, [r3], #-1541	@ 0xfffff9fb
     6c0:	0607054a 	streq	r0, [r7], -sl, asr #10
     6c4:	052e0c03 	streq	r0, [lr, #-3075]!	@ 0xfffff3fd
     6c8:	06010614 			@ <UNDEFINED> instruction: 0x06010614
     6cc:	30030524 	andcc	r0, r3, r4, lsr #10
     6d0:	01060605 	tsteq	r6, r5, lsl #12
     6d4:	36060305 	strcc	r0, [r6], -r5, lsl #6
     6d8:	04020001 	streq	r0, [r2], #-1
     6dc:	02000101 	andeq	r0, r0, #1073741824	@ 0x40000000
     6e0:	20060104 	andcs	r0, r6, r4, lsl #2
     6e4:	02040200 	andeq	r0, r4, #0, 4
     6e8:	02003c06 	andeq	r3, r0, #1536	@ 0x600
     6ec:	3c060204 	sfmcc	f0, 4, [r6], {4}
     6f0:	03060205 	movweq	r0, #25093	@ 0x6205
     6f4:	01050164 	tsteq	r5, r4, ror #2
     6f8:	05202403 	streq	r2, [r0, #-1027]!	@ 0xfffffbfd
     6fc:	01051303 	tsteq	r5, r3, lsl #6
     700:	1f051106 	svcne	0x00051106
     704:	052e0c03 	streq	r0, [lr, #-3075]!	@ 0xfffff3fd
     708:	2e740301 	cdpcs	3, 7, cr0, cr4, cr1, {0}
     70c:	09031205 	stmdbeq	r3, {r0, r2, r9, ip}
     710:	0313052e 	tsteq	r3, #192937984	@ 0xb800000
     714:	03054a78 	movweq	r4, #23160	@ 0x5a78
     718:	09052106 	stmdbeq	r5, {r1, r2, r8, sp}
     71c:	03050106 	movweq	r0, #20742	@ 0x5106
     720:	15152f06 	ldrne	r2, [r5, #-3846]	@ 0xfffff0fa
     724:	03060105 	movweq	r0, #24837	@ 0x6105
     728:	12050177 	andne	r0, r5, #-1073741795	@ 0xc000001d
     72c:	2e2e0903 	vmulcs.f16	s0, s28, s6	@ <UNPREDICTABLE>
     730:	03054a4a 	movweq	r4, #23114	@ 0x5a4a
     734:	1f057706 	svcne	0x00057706
     738:	04050106 	streq	r0, [r5], #-262	@ 0xfffffefa
     73c:	3c160306 	ldccc	3, cr0, [r6], {6}
     740:	01062305 	tsteq	r6, r5, lsl #6
     744:	05220d05 	streq	r0, [r2, #-3333]!	@ 0xfffff2fb
     748:	04053a23 	streq	r3, [r5], #-2595	@ 0xfffff5dd
     74c:	0d052206 	sfmeq	f2, 4, [r5, #-24]	@ 0xffffffe8
     750:	05200106 	streq	r0, [r0, #-262]!	@ 0xfffffefa
     754:	0c030604 	stceq	6, cr0, [r3], {4}
     758:	0611052e 	ldreq	r0, [r1], -lr, lsr #10
     75c:	5c160501 	cfldr32pl	mvfx0, [r6], {1}
     760:	051c1105 	ldreq	r1, [ip, #-261]	@ 0xfffffefb
     764:	13052416 	movwne	r2, #21526	@ 0x5416
     768:	05201003 	streq	r1, [r0, #-3]!
     76c:	70030604 	andvc	r0, r3, r4, lsl #12
     770:	03070566 	movweq	r0, #30054	@ 0x7566
     774:	13050110 	movwne	r0, #20752	@ 0x5110
     778:	07050106 	streq	r0, [r5, -r6, lsl #2]
     77c:	0a052206 	beq	148f9c <__ROM_SIZE+0x108f9c>
     780:	07050106 	streq	r0, [r5, -r6, lsl #2]
     784:	11053406 	tstne	r5, r6, lsl #8
     788:	053c0106 	ldreq	r0, [ip, #-262]!	@ 0xfffffefa
     78c:	053e0614 	ldreq	r0, [lr, #-1556]!	@ 0xfffff9ec
     790:	3c410303 	mcrrcc	3, 0, r0, r1, cr3
     794:	13140705 	tstne	r4, #1310720	@ 0x140000
     798:	14051513 	strne	r1, [r5], #-1299	@ 0xfffffaed
     79c:	07050106 	streq	r0, [r5, -r6, lsl #2]
     7a0:	05524c06 	ldrbeq	r4, [r2, #-3078]	@ 0xfffff3fa
     7a4:	0501060a 	streq	r0, [r1, #-1546]	@ 0xfffff9f6
     7a8:	1f030604 	svcne	0x00030604
     7ac:	1605143c 			@ <UNDEFINED> instruction: 0x1605143c
     7b0:	13050106 	movwne	r0, #20742	@ 0x5106
     7b4:	1d160523 	cfldr32ne	mvfx0, [r6, #-140]	@ 0xffffff74
     7b8:	23060705 	movwcs	r0, #26373	@ 0x6705
     7bc:	01061305 	tsteq	r6, r5, lsl #6
     7c0:	0607052e 	streq	r0, [r7], -lr, lsr #10
     7c4:	060a055a 			@ <UNDEFINED> instruction: 0x060a055a
     7c8:	06030501 	streq	r0, [r3], -r1, lsl #10
     7cc:	05201603 	streq	r1, [r0, #-1539]!	@ 0xfffff9fd
     7d0:	20130601 	andscs	r0, r3, r1, lsl #12
     7d4:	03060305 	movweq	r0, #25349	@ 0x6305
     7d8:	06054a73 			@ <UNDEFINED> instruction: 0x06054a73
     7dc:	09050106 	stmdbeq	r5, {r1, r2, r8}
     7e0:	053c7703 	ldreq	r7, [ip, #-1795]!	@ 0xfffff8fd
     7e4:	15030603 	strne	r0, [r3, #-1539]	@ 0xfffff9fd
     7e8:	06010520 	streq	r0, [r1], -r0, lsr #10
     7ec:	06030513 			@ <UNDEFINED> instruction: 0x06030513
     7f0:	02000157 	andeq	r0, r0, #-1073741803	@ 0xc0000015
     7f4:	00010104 	andeq	r0, r1, r4, lsl #2
     7f8:	4a020402 	bmi	81808 <__ROM_SIZE+0x41808>
     7fc:	02040200 	andeq	r0, r4, #0, 4
     800:	01053c06 	tsteq	r5, r6, lsl #24
     804:	02050006 	andeq	r0, r5, #6
     808:	00000760 	andeq	r0, r0, r0, ror #14
     80c:	05010c03 	streq	r0, [r1, #-3075]	@ 0xfffff3fd
     810:	01051303 	tsteq	r5, r3, lsl #6
     814:	06201306 	strteq	r1, [r0], -r6, lsl #6
     818:	05200b03 	streq	r0, [r0, #-2819]!	@ 0xfffff4fd
     81c:	15131303 	ldrne	r1, [r3, #-771]	@ 0xfffffcfd
     820:	0d060105 	stfeqs	f0, [r6, #-20]	@ 0xffffffec
     824:	0a031f05 	beq	c8440 <__ROM_SIZE+0x88440>
     828:	29160520 	ldmdbcs	r6, {r5, r8, sl}
     82c:	051b0105 	ldreq	r0, [fp, #-261]	@ 0xfffffefb
     830:	03052516 	movweq	r2, #21782	@ 0x5516
     834:	12052306 	andne	r2, r5, #402653184	@ 0x18000000
     838:	01050106 	tsteq	r5, r6, lsl #2
     83c:	053c7803 	ldreq	r7, [ip, #-2051]!	@ 0xfffff7fd
     840:	052e3612 	streq	r3, [lr, #-1554]!	@ 0xfffff9ee
     844:	05ae0603 	streq	r0, [lr, #1539]!	@ 0x603
     848:	0501061f 	streq	r0, [r1, #-1567]	@ 0xfffff9e1
     84c:	13030607 	movwne	r0, #13831	@ 0x3607
     850:	0614052e 	ldreq	r0, [r4], -lr, lsr #10
     854:	061c4e01 	ldreq	r4, [ip], -r1, lsl #28
     858:	03030524 	movweq	r0, #13604	@ 0x3524
     85c:	0705206c 	streq	r2, [r5, -ip, rrx]
     860:	060b0515 			@ <UNDEFINED> instruction: 0x060b0515
     864:	000a0501 	andeq	r0, sl, r1, lsl #10
     868:	4a010402 	bmi	41878 <__ROM_SIZE+0x1878>
     86c:	1e030105 	adfnes	f0, f3, f5
     870:	0603052e 	streq	r0, [r3], -lr, lsr #10
     874:	063c7703 	ldrteq	r7, [ip], -r3, lsl #14
     878:	052f0620 	streq	r0, [pc, #-1568]!	@ 260 <__Vectors+0x260>
     87c:	05010606 	streq	r0, [r1, #-1542]	@ 0xfffff9fa
     880:	05350603 	ldreq	r0, [r5, #-1539]!	@ 0xfffff9fd
     884:	580e0301 	stmdapl	lr, {r0, r8, r9}
     888:	05130305 	ldreq	r0, [r3, #-773]	@ 0xfffffcfb
     88c:	20110601 	andscs	r0, r1, r1, lsl #12
     890:	05221e05 	streq	r1, [r2, #-3589]!	@ 0xfffff1fb
     894:	1d052316 	stcne	3, cr2, [r5, #-88]	@ 0xffffffa8
     898:	0603051c 			@ <UNDEFINED> instruction: 0x0603051c
     89c:	0a051521 	beq	145d28 <__ROM_SIZE+0x105d28>
     8a0:	16051406 	strne	r1, [r5], -r6, lsl #8
     8a4:	0603051e 			@ <UNDEFINED> instruction: 0x0603051e
     8a8:	060a0522 	streq	r0, [sl], -r2, lsr #10
     8ac:	21010501 	tstcs	r1, r1, lsl #10
     8b0:	201f0a05 	andscs	r0, pc, r5, lsl #20
     8b4:	00060105 	andeq	r0, r6, r5, lsl #2
     8b8:	07e00205 	strbeq	r0, [r0, r5, lsl #4]!
     8bc:	051a0000 	ldreq	r0, [sl, #-0]
     8c0:	05151303 	ldreq	r1, [r5, #-771]	@ 0xfffffcfd
     8c4:	050e0601 	streq	r0, [lr, #-1537]	@ 0xfffff9ff
     8c8:	06052416 			@ <UNDEFINED> instruction: 0x06052416
     8cc:	1e160522 	cfmul64ne	mvdx0, mvdx6, mvdx2
     8d0:	22060305 	andcs	r0, r6, #335544320	@ 0x14000000
     8d4:	01060605 	tsteq	r6, r5, lsl #12
     8d8:	12031005 	andne	r1, r3, #5
     8dc:	06030520 	streq	r0, [r3], -r0, lsr #10
     8e0:	0610054a 	ldreq	r0, [r0], -sl, asr #10
     8e4:	05202001 	streq	r2, [r0, #-1]!
     8e8:	05240603 	streq	r0, [r4, #-1539]!	@ 0xfffff9fd
     8ec:	06165207 	ldreq	r5, [r6], -r7, lsl #4
     8f0:	012a062e 			@ <UNDEFINED> instruction: 0x012a062e
     8f4:	01040200 	mrseq	r0, R12_usr
     8f8:	04020001 	streq	r0, [r2], #-1
     8fc:	00200601 	eoreq	r0, r0, r1, lsl #12
     900:	06020402 	streq	r0, [r2], -r2, lsl #8
     904:	0402003c 	streq	r0, [r2], #-60	@ 0xffffffc4
     908:	063c0602 	ldrteq	r0, [ip], -r2, lsl #12
     90c:	3f016403 	svccc	0x00016403
     910:	05202003 	streq	r2, [r0, #-3]!
     914:	200a0301 	andcs	r0, sl, r1, lsl #6
     918:	05130305 	ldreq	r0, [r3, #-773]	@ 0xfffffcfb
     91c:	05010606 	streq	r0, [r1, #-1542]	@ 0xfffff9fa
     920:	05320603 	ldreq	r0, [r2, #-1539]!	@ 0xfffff9fd
     924:	05010616 	streq	r0, [r1, #-1558]	@ 0xfffff9ea
     928:	1605300a 	strne	r3, [r5], -sl
     92c:	0603051e 			@ <UNDEFINED> instruction: 0x0603051e
     930:	060a0530 			@ <UNDEFINED> instruction: 0x060a0530
     934:	06050501 	streq	r0, [r5], -r1, lsl #10
     938:	060c051b 			@ <UNDEFINED> instruction: 0x060c051b
     93c:	01052001 	tsteq	r5, r1
     940:	02050006 	andeq	r0, r5, #6
     944:	00000834 	andeq	r0, r0, r4, lsr r8
     948:	13010b03 	movwne	r0, #6915	@ 0x1b03
     94c:	13030535 	movwne	r0, #13621	@ 0x3535
     950:	01060a05 	tsteq	r6, r5, lsl #20
     954:	051f0105 	ldreq	r0, [pc, #-261]	@ 857 <_Unwind_VRS_Get+0x13>
     958:	05052106 	streq	r2, [r5, #-262]	@ 0xfffffefa
     95c:	06052106 	streq	r2, [r5], -r6, lsl #2
     960:	05200106 	streq	r0, [r0, #-262]!	@ 0xfffffefa
     964:	01042101 	tsteq	r4, r1, lsl #2
     968:	7bc70306 	blvc	ff1c1588 <__StackTop+0xdf1b1588>
     96c:	13030520 	movwne	r0, #13600	@ 0x3520
     970:	060e0514 			@ <UNDEFINED> instruction: 0x060e0514
     974:	20740c03 	rsbscs	r0, r4, r3, lsl #24
     978:	23060705 	movwcs	r0, #26373	@ 0x6705
     97c:	01062405 	tsteq	r6, r5, lsl #8
     980:	05201705 	streq	r1, [r0, #-1797]!	@ 0xfffff8fb
     984:	2078030e 	rsbscs	r0, r8, lr, lsl #6
     988:	05281705 	streq	r1, [r8, #-1797]!	@ 0xfffff8fb
     98c:	03210607 			@ <UNDEFINED> instruction: 0x03210607
     990:	0a052073 	beq	148b64 <__ROM_SIZE+0x108b64>
     994:	04050106 	streq	r0, [r5], #-262	@ 0xfffffefa
     998:	06070521 	streq	r0, [r7], -r1, lsr #10
     99c:	06240530 			@ <UNDEFINED> instruction: 0x06240530
     9a0:	17052e01 	strne	r2, [r5, -r1, lsl #28]
     9a4:	210e0520 	tstcs	lr, r0, lsr #10
     9a8:	051f1705 	ldreq	r1, [pc, #-1797]	@ 2ab <__Vectors+0x2ab>
     9ac:	06210607 	strteq	r0, [r1], -r7, lsl #12
     9b0:	03010520 	movweq	r0, #5408	@ 0x1520
     9b4:	0404200e 	streq	r2, [r4], #-14
     9b8:	03060505 	movweq	r0, #25861	@ 0x6505
     9bc:	0705201b 	smladeq	r5, fp, r0, r2
     9c0:	05051313 	streq	r1, [r5, #-787]	@ 0xfffffced
     9c4:	052e1e06 	streq	r1, [lr, #-3590]!	@ 0xfffff1fa
     9c8:	06202207 	strteq	r2, [r0], -r7, lsl #4
     9cc:	0605054b 	streq	r0, [r5], -fp, asr #10
     9d0:	05010413 	streq	r0, [r1, #-1043]	@ 0xfffffbed
     9d4:	05000601 	streq	r0, [r0, #-1537]	@ 0xfffff9ff
     9d8:	00089402 	andeq	r9, r8, r2, lsl #8
     9dc:	016b0300 	cmneq	fp, r0, lsl #6
     9e0:	14130305 	ldrne	r0, [r3], #-773	@ 0xfffffcfb
     9e4:	03060e05 	movweq	r0, #28165	@ 0x6e05
     9e8:	0520740d 	streq	r7, [r0, #-1037]!	@ 0xfffffbf3
     9ec:	05230607 	streq	r0, [r3, #-1543]!	@ 0xfffff9f9
     9f0:	20010619 	andcs	r0, r1, r9, lsl r6
     9f4:	05201705 	streq	r1, [r0, #-1797]!	@ 0xfffff8fb
     9f8:	05210607 	streq	r0, [r1, #-1543]!	@ 0xfffff9f9
     9fc:	7703060e 	strvc	r0, [r3, -lr, lsl #12]
     a00:	07052001 	streq	r2, [r5, -r1]
     a04:	0a051b06 	beq	147624 <__ROM_SIZE+0x107624>
     a08:	04050106 	streq	r0, [r5], #-262	@ 0xfffffefa
     a0c:	06070521 	streq	r0, [r7], -r1, lsr #10
     a10:	061c0531 			@ <UNDEFINED> instruction: 0x061c0531
     a14:	201a0501 	andscs	r0, sl, r1, lsl #10
     a18:	052e1c05 	streq	r1, [lr, #-3077]!	@ 0xfffff3fb
     a1c:	1a05210e 	bne	148e5c <__ROM_SIZE+0x108e5c>
     a20:	0607051f 			@ <UNDEFINED> instruction: 0x0607051f
     a24:	05200621 	streq	r0, [r0, #-1569]!	@ 0xfffff9df
     a28:	200e0301 	andcs	r0, lr, r1, lsl #6
     a2c:	05050404 	streq	r0, [r5, #-1028]	@ 0xfffffbfc
     a30:	07052306 	streq	r2, [r5, -r6, lsl #6]
     a34:	06050513 			@ <UNDEFINED> instruction: 0x06050513
     a38:	2f07051f 	svccs	0x0007051f
     a3c:	051f0505 	ldreq	r0, [pc, #-1285]	@ 53f <__gnu_unwind_get_pr_addr+0x27>
     a40:	202e2107 	eorcs	r2, lr, r7, lsl #2
     a44:	042f0505 	strteq	r0, [pc], #-1285	@ a4c <__gnu_unwind_pr_common+0xec>
     a48:	06010502 	streq	r0, [r1], -r2, lsl #10
     a4c:	e0020500 	and	r0, r2, r0, lsl #10
     a50:	03000008 	movweq	r0, #8
     a54:	05010483 	streq	r0, [r1, #-1155]	@ 0xfffffb7d
     a58:	14131303 	ldrne	r1, [r3], #-771	@ 0xfffffcfd
     a5c:	06010513 			@ <UNDEFINED> instruction: 0x06010513
     a60:	031f050d 	tsteq	pc, #54525952	@ 0x3400000
     a64:	1605200d 	strne	r2, [r5], -sp
     a68:	03010529 	movweq	r0, #5417	@ 0x1529
     a6c:	03052078 	movweq	r2, #20600	@ 0x5078
     a70:	16053606 	strne	r3, [r5], -r6, lsl #12
     a74:	03050106 	movweq	r0, #20742	@ 0x5106
     a78:	12052306 	andne	r2, r5, #402653184	@ 0x18000000
     a7c:	01050106 	tsteq	r5, r6, lsl #2
     a80:	054a7503 	strbeq	r7, [sl, #-1283]	@ 0xfffffafd
     a84:	2e0b0312 	mcrcs	3, 0, r0, cr11, cr2, {0}
     a88:	054a4a2e 	strbeq	r4, [sl, #-2606]	@ 0xfffff5d2
     a8c:	05680603 	strbeq	r0, [r8, #-1539]!	@ 0xfffff9fd
     a90:	0501061f 	streq	r0, [r1, #-1567]	@ 0xfffff9e1
     a94:	2e100307 	cdpcs	3, 1, cr0, cr0, cr7, {0}
     a98:	0c055b06 			@ <UNDEFINED> instruction: 0x0c055b06
     a9c:	07050106 	streq	r0, [r5, -r6, lsl #2]
     aa0:	3c120306 	ldccc	3, cr0, [r2], {6}
     aa4:	02000a05 	andeq	r0, r0, #20480	@ 0x5000
     aa8:	03060104 	movweq	r0, #24836	@ 0x6104
     aac:	0f05016e 	svceq	0x0005016e
     ab0:	05201203 	streq	r1, [r0, #-515]!	@ 0xfffffdfd
     ab4:	0f055e03 	svceq	0x00055e03
     ab8:	05207a03 	streq	r7, [r0, #-2563]!	@ 0xfffff5fd
     abc:	00260603 	eoreq	r0, r6, r3, lsl #12
     ac0:	06010402 	streq	r0, [r1], -r2, lsl #8
     ac4:	57030620 	strpl	r0, [r3, -r0, lsr #12]
     ac8:	1507052e 	strne	r0, [r7, #-1326]	@ 0xfffffad2
     acc:	01060b05 	tsteq	r6, r5, lsl #22
     ad0:	03060705 	movweq	r0, #26373	@ 0x6705
     ad4:	0a054a0b 	beq	153308 <__ROM_SIZE+0x113308>
     ad8:	01040200 	mrseq	r0, R12_usr
     adc:	01750306 	cmneq	r5, r6, lsl #6
     ae0:	05300905 	ldreq	r0, [r0, #-2309]!	@ 0xfffff6fb
     ae4:	26030603 	strcs	r0, [r3], -r3, lsl #12
     ae8:	01053d20 	tsteq	r5, r0, lsr #26
     aec:	203c1306 	eorscs	r1, ip, r6, lsl #6
     af0:	02050006 	andeq	r0, r5, #6
     af4:	00000960 	andeq	r0, r0, r0, ror #18
     af8:	05010c03 	streq	r0, [r1, #-3075]	@ 0xfffff3fd
     afc:	13131303 	tstne	r3, #201326592	@ 0xc000000
     b00:	13131313 	tstne	r3, #1275068416	@ 0x4c000000
     b04:	06010513 			@ <UNDEFINED> instruction: 0x06010513
     b08:	05017803 	streq	r7, [r1, #-2051]	@ 0xfffff7fd
     b0c:	3c0d0314 	stccc	3, cr0, [sp], {20}
     b10:	73030105 	movwvc	r0, #12549	@ 0x3105
     b14:	06030520 	streq	r0, [r3], -r0, lsr #10
     b18:	05200a03 	streq	r0, [r0, #-2563]!	@ 0xfffff5fd
     b1c:	0515060e 	ldreq	r0, [r5, #-1550]	@ 0xfffff9f2
     b20:	2e730301 	cdpcs	3, 7, cr0, cr3, cr1, {0}
     b24:	0a030905 	beq	c2f40 <__ROM_SIZE+0x82f40>
     b28:	06030520 	streq	r0, [r3], -r0, lsr #10
     b2c:	05131330 	ldreq	r1, [r3, #-816]	@ 0xfffffcd0
     b30:	0501060c 	streq	r0, [r1, #-1548]	@ 0xfffff9f4
     b34:	05210603 	streq	r0, [r1, #-1539]!	@ 0xfffff9fd
     b38:	05010606 	streq	r0, [r1, #-1542]	@ 0xfffff9fa
     b3c:	05340608 	ldreq	r0, [r4, #-1544]!	@ 0xfffff9f8
     b40:	0c051407 	cfstrseq	mvf1, [r5], {7}
     b44:	22051506 	andcs	r1, r5, #25165824	@ 0x1800000
     b48:	2016051d 	andscs	r0, r6, sp, lsl r5
     b4c:	2f060705 	svccs	0x00060705
     b50:	10051313 	andne	r1, r5, r3, lsl r3
     b54:	0c051006 	stceq	0, cr1, [r5], {6}
     b58:	1e100522 	cfmul64ne	mvdx0, mvdx0, mvdx2
     b5c:	05220c05 	streq	r0, [r2, #-3077]!	@ 0xfffff3fb
     b60:	06053522 	streq	r3, [r5], -r2, lsr #10
     b64:	2f0a051d 	svccs	0x000a051d
     b68:	05300605 	ldreq	r0, [r0, #-1541]!	@ 0xfffff9fb
     b6c:	2e720316 	mrccs	3, 3, r0, cr2, cr6, {0}
     b70:	03060305 	movweq	r0, #25349	@ 0x6305
     b74:	05052e0b 	streq	r2, [r5, #-3595]	@ 0xfffff1f5
     b78:	14030513 	strne	r0, [r3], #-1299	@ 0xfffffaed
     b7c:	01060605 	tsteq	r6, r5, lsl #12
     b80:	03060705 	movweq	r0, #26373	@ 0x6705
     b84:	052001c7 	streq	r0, [r0, #-455]!	@ 0xfffffe39
     b88:	2001060b 	andcs	r0, r1, fp, lsl #12
     b8c:	02000a05 	andeq	r0, r0, #20480	@ 0x5000
     b90:	033c0104 	teqeq	ip, #4, 2
     b94:	01052e0c 	tsteq	r5, ip, lsl #28
     b98:	060e0521 	streq	r0, [lr], -r1, lsr #10
     b9c:	3c7eaf03 	ldclcc	15, cr10, [lr], #-12
     ba0:	13920405 	orrsne	r0, r2, #83886080	@ 0x5000000
     ba4:	06070514 			@ <UNDEFINED> instruction: 0x06070514
     ba8:	06080501 	streq	r0, [r8], -r1, lsl #10
     bac:	060c0544 	streq	r0, [ip], -r4, asr #10
     bb0:	06080501 	streq	r0, [r8], -r1, lsl #10
     bb4:	060f0521 	streq	r0, [pc], -r1, lsr #10
     bb8:	06080501 	streq	r0, [r8], -r1, lsl #10
     bbc:	060c0521 	streq	r0, [ip], -r1, lsr #10
     bc0:	06040501 	streq	r0, [r4], -r1, lsl #10
     bc4:	060c0531 			@ <UNDEFINED> instruction: 0x060c0531
     bc8:	202f0501 	eorcs	r0, pc, r1, lsl #10
     bcc:	052f0b05 	streq	r0, [pc, #-2821]!	@ cf <__Vectors+0xcf>
     bd0:	04052d0c 	streq	r2, [r5], #-3340	@ 0xfffff2f4
     bd4:	0b052f06 	bleq	14c7f4 <__ROM_SIZE+0x10c7f4>
     bd8:	04050106 	streq	r0, [r5], #-262	@ 0xfffffefa
     bdc:	20052f06 	andcs	r2, r5, r6, lsl #30
     be0:	39050106 	stmdbcc	r5, {r1, r2, r8}
     be4:	01040200 	mrseq	r0, R12_usr
     be8:	0032052e 	eorseq	r0, r2, lr, lsr #10
     bec:	2e010402 	cdpcs	4, 0, cr0, cr1, cr2, {0}
     bf0:	02002005 	andeq	r2, r0, #5
     bf4:	052e0104 	streq	r0, [lr, #-260]!	@ 0xfffffefc
     bf8:	054c0604 	strbeq	r0, [ip, #-1540]	@ 0xfffff9fc
     bfc:	2001061a 	andcs	r0, r1, sl, lsl r6
     c00:	052e2705 	streq	r2, [lr, #-1797]!	@ 0xfffff8fb
     c04:	04052e20 	streq	r2, [r5], #-3616	@ 0xfffff1e0
     c08:	06080520 	streq	r0, [r8], -r0, lsr #10
     c0c:	060b055c 			@ <UNDEFINED> instruction: 0x060b055c
     c10:	3d050501 	cfstr32cc	mvfx0, [r5, #-4]
     c14:	03060805 	movweq	r0, #26629	@ 0x6805
     c18:	0c053c11 	stceq	12, cr3, [r5], {17}
     c1c:	08050106 	stmdaeq	r5, {r1, r2, r8}
     c20:	01062f06 	tsteq	r6, r6, lsl #30
     c24:	03060e05 	movweq	r0, #28165	@ 0x6e05
     c28:	07050153 	smlsdeq	r5, r3, r1, r0
     c2c:	3c01c403 	cfstrscc	mvf12, [r1], {3}
     c30:	01060b05 	tsteq	r6, r5, lsl #22
     c34:	02000a05 	andeq	r0, r0, #20480	@ 0x5000
     c38:	05660104 	strbeq	r0, [r6, #-260]!	@ 0xfffffefc
     c3c:	05240603 	streq	r0, [r4, #-1539]!	@ 0xfffff9fd
     c40:	05010606 	streq	r0, [r1, #-1542]	@ 0xfffff9fa
     c44:	003f0607 	eorseq	r0, pc, r7, lsl #12
     c48:	06010402 	streq	r0, [r1], -r2, lsl #8
     c4c:	0200204a 	andeq	r2, r0, #74	@ 0x4a
     c50:	06200104 	strteq	r0, [r0], -r4, lsl #2
     c54:	0c05593d 			@ <UNDEFINED> instruction: 0x0c05593d
     c58:	7edc0306 	cdpvc	3, 13, cr0, cr12, cr6, {0}
     c5c:	2b052e01 	blcs	14c468 <__ROM_SIZE+0x10c468>
     c60:	01018403 	tsteq	r1, r3, lsl #8
     c64:	03010520 	movweq	r0, #5408	@ 0x1520
     c68:	20050124 	andcs	r0, r5, r4, lsr #2
     c6c:	04040200 	streq	r0, [r4], #-512	@ 0xfffffe00
     c70:	3c7ec303 	ldclcc	3, cr12, [lr], #-12
     c74:	03060805 	movweq	r0, #26629	@ 0x6805
     c78:	05132e73 	ldreq	r2, [r3, #-3699]	@ 0xfffff18d
     c7c:	0501060f 	streq	r0, [r1, #-1551]	@ 0xfffff9f1
     c80:	05210608 	streq	r0, [r1, #-1544]!	@ 0xfffff9f8
     c84:	2e01060d 	cfmadd32cs	mvax0, mvfx0, mvfx1, mvfx13
     c88:	06070520 	streq	r0, [r7], -r0, lsr #10
     c8c:	05016403 	streq	r6, [r1, #-1027]	@ 0xfffffbfd
     c90:	05010610 	streq	r0, [r1, #-1552]	@ 0xfffff9f0
     c94:	053d0607 	ldreq	r0, [sp, #-1543]!	@ 0xfffff9f9
     c98:	05010616 	streq	r0, [r1, #-1558]	@ 0xfffff9ea
     c9c:	052f0607 	streq	r0, [pc, #-1543]!	@ 69d <unwind_phase2_forced+0x1d>
     ca0:	01870308 	orreq	r0, r7, r8, lsl #6
     ca4:	06190520 	ldreq	r0, [r9], -r0, lsr #10
     ca8:	2e130501 	cfmul32cs	mvfx0, mvfx3, mvfx1
     cac:	30060805 	andcc	r0, r6, r5, lsl #16
     cb0:	01060b05 	tsteq	r6, r5, lsl #22
     cb4:	3e060505 	cfsh32cc	mvfx0, mvfx6, #5
     cb8:	01060805 	tsteq	r6, r5, lsl #16
     cbc:	02001205 	andeq	r1, r0, #1342177280	@ 0x50000000
     cc0:	00200104 	eoreq	r0, r0, r4, lsl #2
     cc4:	20010402 	andcs	r0, r1, r2, lsl #8
     cc8:	02002505 	andeq	r2, r0, #20971520	@ 0x1400000
     ccc:	052e0204 	streq	r0, [lr, #-516]!	@ 0xfffffdfc
     cd0:	35030608 	strcc	r0, [r3, #-1544]	@ 0xfffff9f8
     cd4:	060b053c 			@ <UNDEFINED> instruction: 0x060b053c
     cd8:	06030501 	streq	r0, [r3], -r1, lsl #10
     cdc:	0607052f 	streq	r0, [r7], -pc, lsr #10
     ce0:	06080501 	streq	r0, [r8], -r1, lsl #10
     ce4:	060d052f 	streq	r0, [sp], -pc, lsr #10
     ce8:	06080501 	streq	r0, [r8], -r1, lsl #10
     cec:	7eff034b 	cdpvc	3, 15, cr0, cr15, cr11, {2}
     cf0:	060b0520 	streq	r0, [fp], -r0, lsr #10
     cf4:	06050501 	streq	r0, [r5], -r1, lsl #10
     cf8:	0608053e 			@ <UNDEFINED> instruction: 0x0608053e
     cfc:	06090501 	streq	r0, [r9], -r1, lsl #10
     d00:	11051323 	tstne	r5, r3, lsr #6
     d04:	38051706 	stmdacc	r5, {r1, r2, r8, r9, sl, ip}
     d08:	330c0529 	movwcc	r0, #50473	@ 0xc529
     d0c:	051b0e05 	ldreq	r0, [fp, #-3589]	@ 0xfffff1fb
     d10:	132f0609 			@ <UNDEFINED> instruction: 0x132f0609
     d14:	060c0515 			@ <UNDEFINED> instruction: 0x060c0515
     d18:	06090501 	streq	r0, [r9], -r1, lsl #10
     d1c:	06210524 	strteq	r0, [r1], -r4, lsr #10
     d20:	2f0c0501 	svccs	0x000c0501
     d24:	051f1105 	ldreq	r1, [pc, #-261]	@ c27 <_Unwind_VRS_Pop+0x13>
     d28:	05210609 	streq	r0, [r1, #-1545]!	@ 0xfffff9f7
     d2c:	0501060c 	streq	r0, [r1, #-1548]	@ 0xfffff9f4
     d30:	05310606 	ldreq	r0, [r1, #-1542]!	@ 0xfffff9fa
     d34:	2e01060d 	cfmadd32cs	mvax0, mvfx0, mvfx1, mvfx13
     d38:	05301305 	ldreq	r1, [r0, #-773]!	@ 0xfffffcfb
     d3c:	06051e0d 	streq	r1, [r5], -sp, lsl #28
     d40:	13052206 	movwne	r2, #20998	@ 0x5206
     d44:	05200106 	streq	r0, [r0, #-262]!	@ 0xfffffefa
     d48:	05360609 	ldreq	r0, [r6, #-1545]!	@ 0xfffff9f7
     d4c:	2e01060c 	cfmadd32cs	mvax0, mvfx0, mvfx1, mvfx12
     d50:	03060805 	movweq	r0, #26629	@ 0x6805
     d54:	0d050124 	stfeqs	f0, [r5, #-144]	@ 0xffffff70
     d58:	08050106 	stmdaeq	r5, {r1, r2, r8}
     d5c:	0d052f06 	stceq	15, cr2, [r5, #-24]	@ 0xffffffe8
     d60:	05207203 	streq	r7, [r0, #-515]!	@ 0xfffffdfd
     d64:	2e01062b 	cfmadd32cs	mvax1, mvfx0, mvfx1, mvfx11
     d68:	052e2405 	streq	r2, [lr, #-1029]!	@ 0xfffffbfb
     d6c:	04020010 	streq	r0, [r2], #-16
     d70:	0a052001 	beq	148d7c <__ROM_SIZE+0x108d7c>
     d74:	0605052f 	streq	r0, [r5], -pc, lsr #10
     d78:	0a05153f 	beq	14627c <__ROM_SIZE+0x10627c>
     d7c:	05200106 	streq	r0, [r0, #-262]!	@ 0xfffffefa
     d80:	0a052f05 	beq	14c99c <__ROM_SIZE+0x10c99c>
     d84:	0605051f 			@ <UNDEFINED> instruction: 0x0605051f
     d88:	06200621 	strteq	r0, [r0], -r1, lsr #12
     d8c:	0c05592f 			@ <UNDEFINED> instruction: 0x0c05592f
     d90:	05200106 	streq	r0, [r0, #-262]!	@ 0xfffffefa
     d94:	2803060d 	stmdacs	r3, {r0, r2, r3, r9, sl}
     d98:	062b0501 	strteq	r0, [fp], -r1, lsl #10
     d9c:	24052e01 	strcs	r2, [r5], #-3585	@ 0xfffff1ff
     da0:	0010052e 	andseq	r0, r0, lr, lsr #10
     da4:	20010402 	andcs	r0, r1, r2, lsl #8
     da8:	052f0a05 	streq	r0, [pc, #-2565]!	@ 3ab <__Vectors+0x3ab>
     dac:	143f0605 	ldrtne	r0, [pc], #-1541	@ db4 <_Unwind_VRS_Pop+0x1a0>
     db0:	13062705 	movwne	r2, #26373	@ 0x6705
     db4:	2f051f21 	svccs	0x00051f21
     db8:	1d270530 	cfstr32ne	mvfx0, [r7, #-192]!	@ 0xffffff40
     dbc:	2f060505 	svccs	0x00060505
     dc0:	27051313 	smladcs	r5, r3, r3, r1
     dc4:	05050106 	streq	r0, [r5, #-262]	@ 0xfffffefa
     dc8:	08052206 	stmdaeq	r5, {r1, r2, r9, sp}
     dcc:	2b050106 	blcs	1411ec <__ROM_SIZE+0x1011ec>
     dd0:	3c4a0b03 	mcrrcc	11, 0, r0, sl, cr3
     dd4:	56031e05 	strpl	r1, [r3], -r5, lsl #28
     dd8:	310a0501 	tstcc	sl, r1, lsl #10
     ddc:	5a030d05 	bpl	c41f8 <__ROM_SIZE+0x841f8>
     de0:	030a052e 	movweq	r0, #42286	@ 0xa52e
     de4:	054a2026 	strbeq	r2, [sl, #-38]	@ 0xffffffda
     de8:	0e051e0d 	cdpeq	14, 0, cr1, cr5, cr13, {0}
     dec:	0606051f 			@ <UNDEFINED> instruction: 0x0606051f
     df0:	060d0521 	streq	r0, [sp], -r1, lsr #10
     df4:	300a0501 	andcc	r0, sl, r1, lsl #10
     df8:	051e0d05 	ldreq	r0, [lr, #-3333]	@ 0xfffff2fb
     dfc:	05220606 	streq	r0, [r2, #-1542]!	@ 0xfffff9fa
     e00:	2e01060a 	cfmadd32cs	mvax0, mvfx0, mvfx1, mvfx10
     e04:	02000905 	andeq	r0, r0, #81920	@ 0x14000
     e08:	052e0104 	streq	r0, [lr, #-260]!	@ 0xfffffefc
     e0c:	052b0606 	streq	r0, [fp, #-1542]!	@ 0xfffff9fa
     e10:	04020017 	streq	r0, [r2], #-23	@ 0xffffffe9
     e14:	15051001 	strne	r1, [r5, #-1]
     e18:	17052406 	strne	r2, [r5, -r6, lsl #8]
     e1c:	01040200 	mrseq	r0, R12_usr
     e20:	0609052a 	streq	r0, [r9], -sl, lsr #10
     e24:	05200a03 	streq	r0, [r0, #-2563]!	@ 0xfffff5fd
     e28:	08051506 	stmdaeq	r5, {r1, r2, r8, sl, ip}
     e2c:	28051306 	stmdacs	r5, {r1, r2, r8, r9, ip}
     e30:	220d0559 	andcs	r0, sp, #373293056	@ 0x16400000
     e34:	051e2805 	ldreq	r2, [lr, #-2053]	@ 0xfffff7fb
     e38:	052f0606 	streq	r0, [pc, #-1542]!	@ 83a <_Unwind_DeleteException+0x2>
     e3c:	05010628 	streq	r0, [r1, #-1576]	@ 0xfffff9d8
     e40:	062f0606 	strteq	r0, [pc], -r6, lsl #12
     e44:	03080520 	movweq	r0, #34080	@ 0x8520
     e48:	3c017fbf 	stccc	15, cr7, [r1], {191}	@ 0xbf
     e4c:	05360705 	ldreq	r0, [r6, #-1797]!	@ 0xfffff8fb
     e50:	77030606 	strvc	r0, [r3, -r6, lsl #12]
     e54:	06090520 	streq	r0, [r9], -r0, lsr #10
     e58:	23050518 	movwcs	r0, #21784	@ 0x5518
     e5c:	77031d05 	strvc	r1, [r3, -r5, lsl #26]
     e60:	0606052e 	streq	r0, [r6], -lr, lsr #10
     e64:	140a0526 	strne	r0, [sl], #-1318	@ 0xfffffada
     e68:	060d0514 			@ <UNDEFINED> instruction: 0x060d0514
     e6c:	28054113 	stmdacs	r5, {r0, r1, r4, r8, lr}
     e70:	0606051f 			@ <UNDEFINED> instruction: 0x0606051f
     e74:	060d052f 	streq	r0, [sp], -pc, lsr #10
     e78:	10052001 	andne	r2, r5, r1
     e7c:	2000cf03 	andcs	ip, r0, r3, lsl #30
     e80:	0609052e 	streq	r0, [r9], -lr, lsr #10
     e84:	062e5c03 	strteq	r5, [lr], -r3, lsl #24
     e88:	06050520 	streq	r0, [r5], -r0, lsr #10
     e8c:	017f9303 	cmneq	pc, r3, lsl #6
     e90:	060a0515 			@ <UNDEFINED> instruction: 0x060a0515
     e94:	09052001 	stmdbeq	r5, {r0, sp}
     e98:	2d0a052f 	cfstr32cs	mvfx0, [sl, #-188]	@ 0xffffff44
     e9c:	05232705 	streq	r2, [r3, #-1797]!	@ 0xfffff8fb
     ea0:	141e0605 	ldrne	r0, [lr], #-1541	@ 0xfffff9fb
     ea4:	060a0513 			@ <UNDEFINED> instruction: 0x060a0513
     ea8:	08052001 	stmdaeq	r5, {r0, sp}
     eac:	01040200 	mrseq	r0, R12_usr
     eb0:	0605052e 	streq	r0, [r5], -lr, lsr #10
     eb4:	0c05593f 			@ <UNDEFINED> instruction: 0x0c05593f
     eb8:	05200106 	streq	r0, [r0, #-262]!	@ 0xfffffefa
     ebc:	27030606 	strcs	r0, [r3, -r6, lsl #12]
     ec0:	06080501 	streq	r0, [r8], -r1, lsl #10
     ec4:	07052013 	smladeq	r5, r3, r0, r2
     ec8:	031d0544 	tsteq	sp, #68, 10	@ 0x11000000
     ecc:	06052077 			@ <UNDEFINED> instruction: 0x06052077
     ed0:	20062606 	andcs	r2, r6, r6, lsl #12
     ed4:	03060905 	movweq	r0, #26885	@ 0x6905
     ed8:	140100ce 	strne	r0, [r1], #-206	@ 0xffffff32
     edc:	10060e05 	andne	r0, r6, r5, lsl #28
     ee0:	01042e30 	tsteq	r4, r0, lsr lr
     ee4:	00060105 	andeq	r0, r6, r5, lsl #2
     ee8:	0c080205 	sfmeq	f0, 4, [r8], {5}
     eec:	8a030000 	bhi	c0ef4 <__ROM_SIZE+0x80ef4>
     ef0:	0305017c 	movweq	r0, #20860	@ 0x517c
     ef4:	060a0513 			@ <UNDEFINED> instruction: 0x060a0513
     ef8:	01052e01 	tsteq	r5, r1, lsl #28
     efc:	02050006 	andeq	r0, r5, #6
     f00:	00000c0c 	andeq	r0, r0, ip, lsl #24
     f04:	13030519 	movwne	r0, #13593	@ 0x3519
     f08:	01060a05 	tsteq	r6, r5, lsl #20
     f0c:	0601052e 	streq	r0, [r1], -lr, lsr #10
     f10:	10020500 	andne	r0, r2, r0, lsl #10
     f14:	1900000c 	stmdbne	r0, {r2, r3}
     f18:	05130305 	ldreq	r0, [r3, #-773]	@ 0xfffffcfb
     f1c:	2e01060a 	cfmadd32cs	mvax0, mvfx0, mvfx1, mvfx10
     f20:	00060105 	andeq	r0, r6, r5, lsl #2
     f24:	0c140205 	lfmeq	f0, 4, [r4], {5}
     f28:	d4030000 	strle	r0, [r3], #-0
     f2c:	0305017d 	movweq	r0, #20861	@ 0x517d
     f30:	06010513 			@ <UNDEFINED> instruction: 0x06010513
     f34:	06030511 			@ <UNDEFINED> instruction: 0x06030511
     f38:	0601053f 			@ <UNDEFINED> instruction: 0x0601053f
     f3c:	3103050f 	tstcc	r3, pc, lsl #10
     f40:	03060205 	movweq	r0, #25093	@ 0x6205
     f44:	0705ac1b 	smladeq	r5, fp, ip, sl
     f48:	02050106 	andeq	r0, r5, #-2147483647	@ 0x80000001
     f4c:	05052106 	streq	r2, [r5, #-262]	@ 0xfffffefa
     f50:	02050106 	andeq	r0, r5, #-2147483647	@ 0x80000001
     f54:	14053e06 	strne	r3, [r5], #-3590	@ 0xfffff1fa
     f58:	12050106 	andne	r0, r5, #-2147483647	@ 0x80000001
     f5c:	0602052e 	streq	r0, [r2], -lr, lsr #10
     f60:	06140521 	ldreq	r0, [r4], -r1, lsr #10
     f64:	06020501 	streq	r0, [r2], -r1, lsl #10
     f68:	05010621 	streq	r0, [r1, #-1569]	@ 0xfffff9df
     f6c:	0177030e 	cmneq	r7, lr, lsl #6
     f70:	d2030105 	andle	r0, r3, #1073741825	@ 0x40000001
     f74:	02052001 	andeq	r2, r5, #1
     f78:	7e9b0306 	cdpvc	3, 9, cr0, cr11, cr6, {0}
     f7c:	1413133c 	ldrne	r1, [r3], #-828	@ 0xfffffcc4
     f80:	01060505 	tsteq	r6, r5, lsl #10
     f84:	3f060205 	svccc	0x00060205
     f88:	17061405 	strne	r1, [r6, -r5, lsl #8]
     f8c:	052a0605 	streq	r0, [sl, #-1541]!	@ 0xfffff9fb
     f90:	07052517 	smladeq	r5, r7, r5, r2
     f94:	05207a03 	streq	r7, [r0, #-2563]!	@ 0xfffff5fd
     f98:	14210602 	strtne	r0, [r1], #-1538	@ 0xfffff9fe
     f9c:	02001005 	andeq	r1, r0, #5
     fa0:	05010104 	streq	r0, [r1, #-260]	@ 0xfffffefc
     fa4:	08051406 	stmdaeq	r5, {r1, r2, sl, ip}
     fa8:	06140513 			@ <UNDEFINED> instruction: 0x06140513
     fac:	2e090511 	mcrcs	5, 0, r0, cr9, cr1, {0}
     fb0:	052f1905 	streq	r1, [pc, #-2309]!	@ 6b3 <unwind_phase2_forced+0x33>
     fb4:	02003c17 	andeq	r3, r0, #5888	@ 0x1700
     fb8:	2b060204 	blcs	1817d0 <__ROM_SIZE+0x1417d0>
     fbc:	02001005 	andeq	r1, r0, #5
     fc0:	05200104 	streq	r0, [r0, #-260]!	@ 0xfffffefc
     fc4:	05053402 	streq	r3, [r5, #-1026]	@ 0xfffffbfe
     fc8:	05200106 	streq	r0, [r0, #-262]!	@ 0xfffffefa
     fcc:	05210604 	streq	r0, [r1, #-1540]!	@ 0xfffff9fc
     fd0:	2e010616 	mcrcs	6, 0, r0, cr1, cr6, {0}
     fd4:	03060205 	movweq	r0, #25093	@ 0x6205
     fd8:	05050110 	streq	r0, [r5, #-272]	@ 0xfffffef0
     fdc:	010c0306 	tsteq	ip, r6, lsl #6
     fe0:	74030605 	strvc	r0, [r3], #-1541	@ 0xfffff9fb
     fe4:	06020520 	streq	r0, [r2], -r0, lsr #10
     fe8:	0606052f 	streq	r0, [r6], -pc, lsr #10
     fec:	06020501 	streq	r0, [r2], -r1, lsl #10
     ff0:	13131321 	tstne	r3, #-2080374784	@ 0x84000000
     ff4:	13090513 	movwne	r0, #38163	@ 0x9513
     ff8:	05170205 	ldreq	r0, [r7, #-517]	@ 0xfffffdfb
     ffc:	05010605 	streq	r0, [r1, #-1541]	@ 0xfffff9fb
    1000:	04020025 	streq	r0, [r2], #-37	@ 0xffffffdb
    1004:	16052e01 	strne	r2, [r5], -r1, lsl #28
    1008:	000d053d 	andeq	r0, sp, sp, lsr r5
    100c:	2e040402 	cdpcs	4, 0, cr0, cr4, cr2, {0}
    1010:	50060205 	andpl	r0, r6, r5, lsl #4
    1014:	01060505 	tsteq	r6, r5, lsl #10
    1018:	3d060b05 	vstrcc	d0, [r6, #-20]	@ 0xffffffec
    101c:	05160905 	ldreq	r0, [r6, #-2309]	@ 0xfffff6fb
    1020:	0501060c 	streq	r0, [r1, #-1548]	@ 0xfffff9f4
    1024:	05320602 	ldreq	r0, [r2, #-1538]!	@ 0xfffff9fe
    1028:	13030614 	movwne	r0, #13844	@ 0x3614
    102c:	200d0501 	andcs	r0, sp, r1, lsl #10
    1030:	03060a05 	movweq	r0, #27141	@ 0x6a05
    1034:	09054a14 	stmdbeq	r5, {r2, r4, r9, fp, lr}
    1038:	05017603 	streq	r7, [r1, #-1539]	@ 0xfffff9fd
    103c:	010a030a 	tsteq	sl, sl, lsl #6
    1040:	174e0205 	strbne	r0, [lr, -r5, lsl #4]
    1044:	03061105 	movweq	r1, #24837	@ 0x6105
    1048:	3105010d 	tstcc	r5, sp, lsl #2
    104c:	03050531 	movweq	r0, #21809	@ 0x5531
    1050:	09052e70 	stmdbeq	r5, {r4, r5, r6, r9, sl, fp, sp}
    1054:	0d052106 	stfeqs	f2, [r5, #-24]	@ 0xffffffe8
    1058:	13010c03 	movwne	r0, #7171	@ 0x1c03
    105c:	05140605 	ldreq	r0, [r4, #-1541]	@ 0xfffff9fb
    1060:	05210618 	streq	r0, [r1, #-1560]!	@ 0xfffff9e8
    1064:	06052d0b 	streq	r2, [r5], -fp, lsl #26
    1068:	0d052f06 	stceq	15, cr2, [r5, #-24]	@ 0xffffffe8
    106c:	2e010601 	cfmadd32cs	mvax0, mvfx0, mvfx1, mvfx1
    1070:	06080520 	streq	r0, [r8], -r0, lsr #10
    1074:	0614052f 	ldreq	r0, [r4], -pc, lsr #10
    1078:	2d0d0501 	cfstr32cs	mvfx0, [sp, #-4]
    107c:	05211205 	streq	r1, [r1, #-517]!	@ 0xfffffdfb
    1080:	062d060d 	strteq	r0, [sp], -sp, lsl #12
    1084:	06020520 	streq	r0, [r2], -r0, lsr #10
    1088:	06050517 			@ <UNDEFINED> instruction: 0x06050517
    108c:	06020501 	streq	r0, [r2], -r1, lsl #10
    1090:	06100540 	ldreq	r0, [r0], -r0, asr #10
    1094:	0314051a 	tsteq	r4, #109051904	@ 0x6800000
    1098:	09052078 	stmdbeq	r5, {r3, r4, r5, r6, sp}
    109c:	0d052306 	stceq	3, cr2, [r5, #-24]	@ 0xffffffe8
    10a0:	06100517 			@ <UNDEFINED> instruction: 0x06100517
    10a4:	060f0501 	streq	r0, [pc], -r1, lsl #10
    10a8:	05200621 	streq	r0, [r0, #-1569]!	@ 0xfffff9df
    10ac:	0531060d 	ldreq	r0, [r1, #-1549]!	@ 0xfffff9f3
    10b0:	4a06130a 	bmi	185ce0 <__ROM_SIZE+0x145ce0>
    10b4:	19060205 	stmdbne	r6, {r0, r2, r9}
    10b8:	13131313 	tstne	r3, #1275068416	@ 0x4c000000
    10bc:	06050514 			@ <UNDEFINED> instruction: 0x06050514
    10c0:	29060501 	stmdbcs	r6, {r0, r8, sl}
    10c4:	02003105 	andeq	r3, r0, #1073741825	@ 0x40000001
    10c8:	05330104 	ldreq	r0, [r3, #-260]!	@ 0xfffffefc
    10cc:	04020028 	streq	r0, [r2], #-40	@ 0xffffffd8
    10d0:	06052e01 	streq	r2, [r5], -r1, lsl #28
    10d4:	05207a03 	streq	r7, [r0, #-2563]!	@ 0xfffff5fd
    10d8:	04020028 	streq	r0, [r2], #-40	@ 0xffffffd8
    10dc:	02053401 	andeq	r3, r5, #16777216	@ 0x1000000
    10e0:	09052306 	stmdbeq	r5, {r1, r2, r8, r9, sp}
    10e4:	05050106 	streq	r0, [r5, #-262]	@ 0xfffffefa
    10e8:	02052020 	andeq	r2, r5, #32
    10ec:	2e0a0306 	cdpcs	3, 0, cr0, cr10, cr6, {0}
    10f0:	0608054e 	streq	r0, [r8], -lr, asr #10
    10f4:	2c1a0514 	cfldr32cs	mvfx0, [sl], {20}
    10f8:	21060205 	tstcs	r6, r5, lsl #4
    10fc:	01060705 	tsteq	r6, r5, lsl #14
    1100:	2f060205 	svccs	0x00060205
    1104:	01090513 	tsteq	r9, r3, lsl r5
    1108:	01060e05 	tsteq	r6, r5, lsl #28
    110c:	05200905 	streq	r0, [r0, #-2309]!	@ 0xfffff6fb
    1110:	052f0604 	streq	r0, [pc, #-1540]!	@ b14 <__gnu_unwind_pr_common+0x1b4>
    1114:	05010610 	streq	r0, [r1, #-1552]	@ 0xfffff9f0
    1118:	05211f0e 	streq	r1, [r1, #-3854]!	@ 0xfffff0f2
    111c:	062d0609 	strteq	r0, [sp], -r9, lsl #12
    1120:	32160501 	andscc	r0, r6, #4194304	@ 0x400000
    1124:	2e060205 	cdpcs	2, 0, cr0, cr6, cr5, {0}
    1128:	14051506 	strne	r1, [r5], #-1286	@ 0xfffffafa
    112c:	0602051d 			@ <UNDEFINED> instruction: 0x0602051d
    1130:	052e0623 	streq	r0, [lr, #-1571]!	@ 0xfffff9dd
    1134:	05140607 	ldreq	r0, [r4, #-1543]	@ 0xfffff9f9
    1138:	0501060e 	streq	r0, [r1, #-1550]	@ 0xfffff9f2
    113c:	13240602 			@ <UNDEFINED> instruction: 0x13240602
    1140:	05051413 	streq	r1, [r5, #-1043]	@ 0xfffffbed
    1144:	28050106 	stmdacs	r5, {r1, r2, r8}
    1148:	01040200 	mrseq	r0, R12_usr
    114c:	0602052e 	streq	r0, [r2], -lr, lsr #10
    1150:	06090531 			@ <UNDEFINED> instruction: 0x06090531
    1154:	20050501 	andcs	r0, r5, r1, lsl #10
    1158:	03060205 	movweq	r0, #25093	@ 0x6205
    115c:	054c3c0a 	strbeq	r3, [ip, #-3082]	@ 0xfffff3f6
    1160:	0514061b 	ldreq	r0, [r4, #-1563]	@ 0xfffff9e5
    1164:	05051f09 	streq	r1, [r5, #-3849]	@ 0xfffff0f7
    1168:	0602052d 	streq	r0, [r2], -sp, lsr #10
    116c:	00100521 	andseq	r0, r0, r1, lsr #10
    1170:	01010402 	tsteq	r1, r2, lsl #8
    1174:	05130405 	ldreq	r0, [r3, #-1029]	@ 0xfffffbfb
    1178:	1b051306 	blne	145d98 <__ROM_SIZE+0x105d98>
    117c:	07051106 	streq	r1, [r5, -r6, lsl #2]
    1180:	16053c2e 	strne	r3, [r5], -lr, lsr #24
    1184:	20120521 	andscs	r0, r2, r1, lsr #10
    1188:	052e1605 	streq	r1, [lr, #-1541]!	@ 0xfffff9fb
    118c:	16052010 			@ <UNDEFINED> instruction: 0x16052010
    1190:	02040200 	andeq	r0, r4, #0, 4
    1194:	10052c06 	andne	r2, r5, r6, lsl #24
    1198:	01040200 	mrseq	r0, R12_usr
    119c:	4f020501 	svcmi	0x00020501
    11a0:	14051506 	strne	r1, [r5], #-1286	@ 0xfffffafa
    11a4:	0602051d 			@ <UNDEFINED> instruction: 0x0602051d
    11a8:	052e0623 	streq	r0, [lr, #-1571]!	@ 0xfffff9dd
    11ac:	05140607 	ldreq	r0, [r4, #-1543]	@ 0xfffff9f9
    11b0:	0501060e 	streq	r0, [r1, #-1550]	@ 0xfffff9f2
    11b4:	7ece0316 	mcrvc	3, 6, r0, cr14, cr6, {0}
    11b8:	000d0520 	andeq	r0, sp, r0, lsr #10
    11bc:	20040402 	andcs	r0, r4, r2, lsl #8
    11c0:	02002f05 	andeq	r2, r0, #5, 30
    11c4:	052f0104 	streq	r0, [pc, #-260]!	@ 10c8 <next_unwind_byte+0x1c>
    11c8:	0e030602 	cfmadd32eq	mvax0, mvfx0, mvfx3, mvfx2
    11cc:	0018052e 	andseq	r0, r8, lr, lsr #10
    11d0:	06010402 	streq	r0, [r1], -r2, lsl #8
    11d4:	00110501 	andseq	r0, r1, r1, lsl #10
    11d8:	20010402 	andcs	r0, r1, r2, lsl #8
    11dc:	01040200 	mrseq	r0, R12_usr
    11e0:	03210520 			@ <UNDEFINED> instruction: 0x03210520
    11e4:	0a05200d 	beq	149220 <__ROM_SIZE+0x109220>
    11e8:	05136606 	ldreq	r6, [r3, #-1542]	@ 0xfffff9fa
    11ec:	0b033209 	bleq	cda18 <__ROM_SIZE+0x8da18>
    11f0:	21060501 	tstcs	r6, r1, lsl #10
    11f4:	0d030205 	sfmeq	f0, 4, [r3, #-20]	@ 0xffffffec
    11f8:	05051758 	streq	r1, [r5, #-1880]	@ 0xfffff8a8
    11fc:	09050106 	stmdbeq	r5, {r1, r2, r8}
    1200:	0c052106 	stfeqs	f2, [r5], {6}
    1204:	04050106 	streq	r0, [r5], #-262	@ 0xfffffefa
    1208:	3c160306 	ldccc	3, cr0, [r6], {6}
    120c:	05150205 	ldreq	r0, [r5, #-517]	@ 0xfffffdfb
    1210:	270f0606 	strcs	r0, [pc, -r6, lsl #12]
    1214:	051c1405 	ldreq	r1, [ip, #-1029]	@ 0xfffffbfb
    1218:	05230609 	streq	r0, [r3, #-1545]!	@ 0xfffff9f7
    121c:	2e061306 	cdpcs	3, 0, cr1, cr6, cr6, {0}
    1220:	030b0520 	movweq	r0, #46368	@ 0xb520
    1224:	20017efa 	strdcs	r7, [r1], -sl
    1228:	060e0520 	streq	r0, [lr], -r0, lsr #10
    122c:	05013103 	streq	r3, [r1, #-259]	@ 0xfffffefd
    1230:	05010611 	streq	r0, [r1, #-1553]	@ 0xfffff9ef
    1234:	2e1a0314 	mrccs	3, 0, r0, cr10, cr4, {0}
    1238:	66031105 	strvs	r1, [r3], -r5, lsl #2
    123c:	060b0520 	streq	r0, [fp], -r0, lsr #10
    1240:	14090521 	strne	r0, [r9], #-1313	@ 0xfffffadf
    1244:	05160205 	ldreq	r0, [r6, #-517]	@ 0xfffffdfb
    1248:	04020011 	streq	r0, [r2], #-17	@ 0xffffffef
    124c:	00010601 	andeq	r0, r1, r1, lsl #12
    1250:	20010402 	andcs	r0, r1, r2, lsl #8
    1254:	22060605 	andcs	r0, r6, #5242880	@ 0x500000
    1258:	05140d05 	ldreq	r0, [r4, #-3333]	@ 0xfffff2fb
    125c:	1d05150a 	cfstr32ne	mvfx1, [r5, #-40]	@ 0xffffffd8
    1260:	21050d06 	tstcs	r5, r6, lsl #26
    1264:	060a0533 			@ <UNDEFINED> instruction: 0x060a0533
    1268:	0309054b 	movweq	r0, #38219	@ 0x954b
    126c:	14053c0a 	strne	r3, [r5], #-3082	@ 0xfffff3f6
    1270:	0d051306 	stceq	3, cr1, [r5, #-24]	@ 0xffffffe8
    1274:	0f030620 	svceq	0x00030620
    1278:	130f054a 	movwne	r0, #62794	@ 0xf54a
    127c:	055b0d05 	ldrbeq	r0, [fp, #-3333]	@ 0xfffff2fb
    1280:	0205130a 	andeq	r1, r5, #671088640	@ 0x28000000
    1284:	00260540 	eoreq	r0, r6, r0, asr #10
    1288:	06010402 	streq	r0, [r1], -r2, lsl #8
    128c:	06020501 	streq	r0, [r2], -r1, lsl #10
    1290:	06100533 			@ <UNDEFINED> instruction: 0x06100533
    1294:	1d050515 	cfstr32ne	mvfx0, [r5, #-84]	@ 0xffffffac
    1298:	21060905 	tstcs	r6, r5, lsl #18
    129c:	24061605 	strcs	r1, [r6], #-1541	@ 0xfffff9fb
    12a0:	45032a05 	strmi	r2, [r3, #-2565]	@ 0xfffff5fb
    12a4:	06060520 	streq	r0, [r6], -r0, lsr #10
    12a8:	132e3903 			@ <UNDEFINED> instruction: 0x132e3903
    12ac:	01060b05 	tsteq	r6, r5, lsl #22
    12b0:	2f060605 	svccs	0x00060605
    12b4:	06010d05 	streq	r0, [r1], -r5, lsl #26
    12b8:	05202001 	streq	r2, [r0, #-1]!
    12bc:	052f0608 	streq	r0, [pc, #-1544]!	@ cbc <_Unwind_VRS_Pop+0xa8>
    12c0:	05010614 	streq	r0, [r1, #-1556]	@ 0xfffff9ec
    12c4:	12052d0d 	andne	r2, r5, #832	@ 0x340
    12c8:	060d0521 	streq	r0, [sp], -r1, lsr #10
    12cc:	2509052d 	strcs	r0, [r9, #-1325]	@ 0xfffffad3
    12d0:	01060c05 	tsteq	r6, r5, lsl #24
    12d4:	3f060d05 	svccc	0x00060d05
    12d8:	13062f05 	movwne	r2, #28421	@ 0x6f05
    12dc:	05491105 	strbeq	r1, [r9, #-261]	@ 0xfffffefb
    12e0:	052f060d 	streq	r0, [pc, #-1549]!	@ cdb <_Unwind_VRS_Pop+0xc7>
    12e4:	0b051406 	bleq	146304 <__ROM_SIZE+0x106304>
    12e8:	31050106 	tstcc	r5, r6, lsl #2
    12ec:	21180520 	tstcs	r8, r0, lsr #10
    12f0:	052d0b05 	streq	r0, [sp, #-2821]!	@ 0xfffff4fb
    12f4:	052f0606 	streq	r0, [pc, #-1542]!	@ cf6 <_Unwind_VRS_Pop+0xe2>
    12f8:	0106010d 	tsteq	r6, sp, lsl #2
    12fc:	060a0520 	streq	r0, [sl], -r0, lsr #10
    1300:	05014603 	streq	r4, [r1, #-1539]	@ 0xfffff9fd
    1304:	05010621 	streq	r0, [r1, #-1569]	@ 0xfffff9df
    1308:	21051b1d 	tstcs	r5, sp, lsl fp
    130c:	060a0533 			@ <UNDEFINED> instruction: 0x060a0533
    1310:	060f054b 	streq	r0, [pc], -fp, asr #10
    1314:	05011b03 	streq	r1, [r1, #-2819]	@ 0xfffff4fd
    1318:	2e65030a 	cdpcs	3, 6, cr0, cr5, cr10, {0}
    131c:	03060905 	movweq	r0, #26885	@ 0x6905
    1320:	0b032e0a 	bleq	ccb50 <__ROM_SIZE+0x8cb50>
    1324:	170d0501 	strne	r0, [sp, -r1, lsl #10]
    1328:	05130f05 	ldreq	r0, [r3, #-3845]	@ 0xfffff0fb
    132c:	02053f0d 	andeq	r3, r5, #13, 30	@ 0x34
    1330:	05010a03 	streq	r0, [r1, #-2563]	@ 0xfffff5fd
    1334:	0501061a 	streq	r0, [r1, #-1562]	@ 0xfffff9e6
    1338:	05210609 	streq	r0, [r1, #-1545]!	@ 0xfffff9f7
    133c:	0501060c 	streq	r0, [r1, #-1548]	@ 0xfffff9f4
    1340:	05300606 	ldreq	r0, [r0, #-1542]!	@ 0xfffff9fa
    1344:	05010610 	streq	r0, [r1, #-1552]	@ 0xfffff9f0
    1348:	05210606 	streq	r0, [r1, #-1542]!	@ 0xfffff9fa
    134c:	05130616 	ldreq	r0, [r3, #-1558]	@ 0xfffff9ea
    1350:	06053b0b 	streq	r3, [r5], -fp, lsl #22
    1354:	0d052f06 	stceq	15, cr2, [r5, #-24]	@ 0xffffffe8
    1358:	20010601 	andcs	r0, r1, r1, lsl #12
    135c:	03060605 	movweq	r0, #26117	@ 0x6605
    1360:	050100da 	streq	r0, [r1, #-218]	@ 0xffffff26
    1364:	0501061d 	streq	r0, [r1, #-1565]	@ 0xfffff9e3
    1368:	063d0606 	ldrteq	r0, [sp], -r6, lsl #12
    136c:	06202e2e 	strteq	r2, [r0], -lr, lsr #28
    1370:	05015a03 	streq	r5, [r1, #-2563]	@ 0xfffff5fd
    1374:	0501061d 	streq	r0, [r1, #-1565]	@ 0xfffff9e3
    1378:	063d0606 	ldrteq	r0, [sp], -r6, lsl #12
    137c:	052e204a 	streq	r2, [lr, #-74]!	@ 0xffffffb6
    1380:	95030602 	strls	r0, [r3, #-1538]	@ 0xfffff9fe
    1384:	1105017f 	tstne	r5, pc, ror r1
    1388:	01040200 	mrseq	r0, R12_usr
    138c:	02000106 	andeq	r0, r0, #-2147483647	@ 0x80000001
    1390:	05200104 	streq	r0, [r0, #-260]!	@ 0xfffffefc
    1394:	1d030609 	stcne	6, cr0, [r3, #-36]	@ 0xffffffdc
    1398:	180f0520 	stmdane	pc, {r5, r8, sl}	@ <UNPREDICTABLE>
    139c:	0d052e06 	stceq	14, cr2, [r5, #-24]	@ 0xffffffe8
    13a0:	02053f06 	andeq	r3, r5, #6, 30
    13a4:	05010a03 	streq	r0, [r1, #-2563]	@ 0xfffff5fd
    13a8:	0501061a 	streq	r0, [r1, #-1562]	@ 0xfffff9e6
    13ac:	05210609 	streq	r0, [r1, #-1545]!	@ 0xfffff9f7
    13b0:	0501060c 	streq	r0, [r1, #-1548]	@ 0xfffff9f4
    13b4:	2203060f 	andcs	r0, r3, #15728640	@ 0xf00000
    13b8:	3f0d053c 	svccc	0x000d053c
    13bc:	7fbd0306 	svcvc	0x00bd0306
    13c0:	301d0520 	andscc	r0, sp, r0, lsr #10
    13c4:	66060605 	strvs	r0, [r6], -r5, lsl #12
    13c8:	05130d05 	ldreq	r0, [r3, #-3333]	@ 0xfffff2fb
    13cc:	1d053509 	cfstr32ne	mvfx3, [r5, #-36]	@ 0xffffffdc
    13d0:	2e780306 	cdpcs	3, 7, cr0, cr8, cr6, {0}
    13d4:	0606054a 	streq	r0, [r6], -sl, asr #10
    13d8:	130d0520 	movwne	r0, #54560	@ 0xd520
    13dc:	02052e06 	andeq	r2, r5, #6, 28	@ 0x60
    13e0:	20300306 	eorscs	r0, r0, r6, lsl #6
    13e4:	01060505 	tsteq	r6, r5, lsl #10
    13e8:	40060205 	andmi	r0, r6, r5, lsl #4
    13ec:	1a061005 	bne	185408 <__ROM_SIZE+0x145408>
    13f0:	78031405 	stmdavc	r3, {r0, r2, sl, ip}
    13f4:	06090520 	streq	r0, [r9], -r0, lsr #10
    13f8:	170d0523 	strne	r0, [sp, -r3, lsr #10]
    13fc:	01061005 	tsteq	r6, r5
    1400:	0001022e 	andeq	r0, r1, lr, lsr #4
    1404:	00930101 	addseq	r0, r3, r1, lsl #2
    1408:	00050000 	andeq	r0, r5, r0
    140c:	002e0004 	eoreq	r0, lr, r4
    1410:	01020000 	mrseq	r0, (UNDEF: 2)
    1414:	0d0efb01 	vstreq	d15, [lr, #-4]
    1418:	01010100 	mrseq	r0, (UNDEF: 17)
    141c:	00000001 	andeq	r0, r0, r1
    1420:	01000001 	tsteq	r0, r1
    1424:	021f0101 	andseq	r0, pc, #1073741824	@ 0x40000000
    1428:	00000075 	andeq	r0, r0, r5, ror r0
    142c:	000000dc 	ldrdeq	r0, [r0], -ip
    1430:	021f0102 	andseq	r0, pc, #-2147483648	@ 0x80000000
    1434:	0100020f 	tsteq	r0, pc, lsl #4
    1438:	00010000 	andeq	r0, r1, r0
    143c:	01000001 	tsteq	r0, r1
    1440:	00020500 	andeq	r0, r2, r0, lsl #10
    1444:	0300000f 	movweq	r0, #15
    1448:	2f0101b3 	svccs	0x000101b3
    144c:	03212133 			@ <UNDEFINED> instruction: 0x03212133
    1450:	21312e09 	teqcs	r1, r9, lsl #28
    1454:	2f201003 	svccs	0x00201003
    1458:	2f332f35 	svccs	0x00332f35
    145c:	2f332f33 	svccs	0x00332f33
    1460:	2f332f33 	svccs	0x00332f33
    1464:	2f2f2f2f 	svccs	0x002f2f2f
    1468:	2f2f2f2f 	svccs	0x002f2f2f
    146c:	2f2f2f2f 	svccs	0x002f2f2f
    1470:	332f2f2f 			@ <UNDEFINED> instruction: 0x332f2f2f
    1474:	2f2f2f2f 	svccs	0x002f2f2f
    1478:	2f2f2f2f 	svccs	0x002f2f2f
    147c:	2f2f2f2f 	svccs	0x002f2f2f
    1480:	2f2f2f2f 	svccs	0x002f2f2f
    1484:	2f2f2f33 	svccs	0x002f2f33
    1488:	2f2f332f 	svccs	0x002f332f
    148c:	2e032f2f 	cdpcs	15, 0, cr2, cr3, cr15, {1}
    1490:	0821082e 	stmdaeq	r1!, {r1, r2, r3, r5, fp}
    1494:	08210821 	stmdaeq	r1!, {r0, r5, fp}
    1498:	01000821 	tsteq	r0, r1, lsr #16
    149c:	00057101 	andeq	r7, r5, r1, lsl #2
    14a0:	ac000300 	stcge	3, cr0, [r0], {-0}
    14a4:	02000000 	andeq	r0, r0, #0
    14a8:	0d0efb01 	vstreq	d15, [lr, #-4]
    14ac:	01010100 	mrseq	r0, (UNDEF: 17)
    14b0:	00000001 	andeq	r0, r0, r1
    14b4:	01000001 	tsteq	r0, r1
    14b8:	2e2f2e2e 	cdpcs	14, 2, cr2, cr15, cr14, {1}
    14bc:	2e2e2f2e 	cdpcs	15, 2, cr2, cr14, cr14, {1}
    14c0:	2f2e2e2f 	svccs	0x002e2e2f
    14c4:	2e2f2e2e 	cdpcs	14, 2, cr2, cr15, cr14, {1}
    14c8:	696c2f2e 	stmdbvs	ip!, {r1, r2, r3, r5, r8, r9, sl, fp, sp}^
    14cc:	63636762 	cmnvs	r3, #25690112	@ 0x1880000
    14d0:	6e6f632f 	cdpvs	3, 6, cr6, cr15, cr15, {1}
    14d4:	2f676966 	svccs	0x00676966
    14d8:	006d7261 	rsbeq	r7, sp, r1, ror #4
    14dc:	6975622f 	ldmdbvs	r5!, {r0, r1, r2, r3, r5, r9, sp, lr}^
    14e0:	672f646c 	strvs	r6, [pc, -ip, ror #8]!
    14e4:	612d6363 			@ <UNDEFINED> instruction: 0x612d6363
    14e8:	6e2d6d72 	mcrvs	13, 1, r6, cr13, cr2, {3}
    14ec:	2d656e6f 	stclcs	14, cr6, [r5, #-444]!	@ 0xfffffe44
    14f0:	69626165 	stmdbvs	r2!, {r0, r2, r5, r6, r8, sp, lr}^
    14f4:	5475542d 	ldrbtpl	r5, [r5], #-1069	@ 0xfffffbd3
    14f8:	2f304e5a 	svccs	0x00304e5a
    14fc:	2d636367 	stclcs	3, cr6, [r3, #-412]!	@ 0xfffffe64
    1500:	2d6d7261 	sfmcs	f7, 2, [sp, #-388]!	@ 0xfffffe7c
    1504:	656e6f6e 	strbvs	r6, [lr, #-3950]!	@ 0xfffff092
    1508:	6261652d 	rsbvs	r6, r1, #188743680	@ 0xb400000
    150c:	33312d69 	teqcc	r1, #6720	@ 0x1a40
    1510:	722e322e 	eorvc	r3, lr, #-536870910	@ 0xe0000002
    1514:	2f316c65 	svccs	0x00316c65
    1518:	6c697562 	cfstr64vs	mvdx7, [r9], #-392	@ 0xfffffe78
    151c:	63672f64 	cmnvs	r7, #100, 30	@ 0x190
    1520:	6e692f63 	cdpvs	15, 6, cr2, cr9, cr3, {3}
    1524:	64756c63 	ldrbtvs	r6, [r5], #-3171	@ 0xfffff39d
    1528:	70000065 	andvc	r0, r0, r5, rrx
    152c:	75732d72 	ldrbvc	r2, [r3, #-3442]!	@ 0xfffff28e
    1530:	726f7070 	rsbvc	r7, pc, #112	@ 0x70
    1534:	00632e74 	rsbeq	r2, r3, r4, ror lr
    1538:	75000001 	strvc	r0, [r0, #-1]
    153c:	6e69776e 	cdpvs	7, 6, cr7, cr9, cr14, {3}
    1540:	72612d64 	rsbvc	r2, r1, #100, 26	@ 0x1900
    1544:	6f632d6d 	svcvs	0x00632d6d
    1548:	6e6f6d6d 	cdpvs	13, 6, cr6, cr15, cr13, {3}
    154c:	0200682e 	andeq	r6, r0, #3014656	@ 0x2e0000
    1550:	05000000 	streq	r0, [r0, #-0]
    1554:	02050001 	andeq	r0, r5, #1
    1558:	000010ac 	andeq	r1, r0, ip, lsr #1
    155c:	0100d103 	tsteq	r0, r3, lsl #2
    1560:	14130305 	ldrne	r0, [r3], #-773	@ 0xfffffcfb
    1564:	01060a05 	tsteq	r6, r5, lsl #20
    1568:	051d0105 	ldreq	r0, [sp, #-261]	@ 0xfffffefb
    156c:	07052306 	streq	r2, [r5, -r6, lsl #6]
    1570:	0e052306 	cdpeq	3, 0, cr2, cr5, cr6, {0}
    1574:	0a050106 	beq	141994 <__ROM_SIZE+0x101994>
    1578:	06070520 	streq	r0, [r7], -r0, lsr #10
    157c:	06170522 	ldreq	r0, [r7], -r2, lsr #10
    1580:	2d180514 	cfldr32cs	mvfx0, [r8, #-80]	@ 0xffffffb0
    1584:	051f1605 	ldreq	r1, [pc, #-1541]	@ f87 <__gnu_Unwind_Restore_WMMXD+0x3f>
    1588:	052f0607 	streq	r0, [pc, #-1543]!	@ f89 <__gnu_Unwind_Restore_WMMXD+0x41>
    158c:	05010613 	streq	r0, [r1, #-1555]	@ 0xfffff9ed
    1590:	05210607 	streq	r0, [r1, #-1543]!	@ 0xfffff9f9
    1594:	0511061e 	ldreq	r0, [r1, #-1566]	@ 0xfffff9e2
    1598:	1705360d 	strne	r3, [r5, -sp, lsl #12]
    159c:	05207903 	streq	r7, [r0, #-2307]!	@ 0xfffff6fd
    15a0:	05340603 	ldreq	r0, [r4, #-1539]!	@ 0xfffff9fd
    15a4:	05010605 	streq	r0, [r1, #-1541]	@ 0xfffff9fb
    15a8:	05210603 	streq	r0, [r1, #-1539]!	@ 0xfffff9fd
    15ac:	0501060d 	streq	r0, [r1, #-1549]	@ 0xfffff9f3
    15b0:	05210603 	streq	r0, [r1, #-1539]!	@ 0xfffff9fd
    15b4:	0501060a 	streq	r0, [r1, #-1546]	@ 0xfffff9f6
    15b8:	051b0605 	ldreq	r0, [fp, #-1541]	@ 0xfffff9fb
    15bc:	0b051503 	bleq	1469d0 <__ROM_SIZE+0x1069d0>
    15c0:	14050106 	strne	r0, [r5], #-262	@ 0xfffffefa
    15c4:	320d051d 	andcc	r0, sp, #121634816	@ 0x7400000
    15c8:	052d0505 	streq	r0, [sp, #-1285]!	@ 0xfffffafb
    15cc:	13210603 			@ <UNDEFINED> instruction: 0x13210603
    15d0:	01060a05 	tsteq	r6, r5, lsl #20
    15d4:	75030905 	strvc	r0, [r3, #-2309]	@ 0xfffff6fb
    15d8:	03010520 	movweq	r0, #5408	@ 0x1520
    15dc:	0204200c 	andeq	r2, r4, #12
    15e0:	03060305 	movweq	r0, #25349	@ 0x6305
    15e4:	052000f8 	streq	r0, [r0, #-248]!	@ 0xffffff08
    15e8:	05131407 	ldreq	r1, [r3, #-1031]	@ 0xfffffbf9
    15ec:	051d0603 	ldreq	r0, [sp, #-1539]	@ 0xfffff9fd
    15f0:	67063107 	strvs	r3, [r6, -r7, lsl #2]
    15f4:	13060505 	movwne	r0, #25861	@ 0x6505
    15f8:	01050104 	tsteq	r5, r4, lsl #2
    15fc:	02050006 	andeq	r0, r5, #6
    1600:	00001100 	andeq	r1, r0, r0, lsl #2
    1604:	0101a203 	tsteq	r1, r3, lsl #4
    1608:	05130305 	ldreq	r0, [r3, #-773]	@ 0xfffffcfb
    160c:	20010624 	andcs	r0, r1, r4, lsr #12
    1610:	00060105 	andeq	r0, r6, r5, lsl #2
    1614:	11040205 	tstne	r4, r5, lsl #4
    1618:	e5030000 	str	r0, [r3, #-0]
    161c:	0305017d 	movweq	r0, #20861	@ 0x517d
    1620:	13171313 	tstne	r7, #1275068416	@ 0x4c000000
    1624:	06010514 			@ <UNDEFINED> instruction: 0x06010514
    1628:	05017603 	streq	r7, [r1, #-1539]	@ 0xfffff9fd
    162c:	2e0a030a 	cdpcs	3, 0, cr0, cr10, cr10, {0}
    1630:	76030105 	strvc	r0, [r3], -r5, lsl #2
    1634:	0603052e 	streq	r0, [r3], -lr, lsr #10
    1638:	053c0b03 	ldreq	r0, [ip, #-2819]!	@ 0xfffff4fd
    163c:	0c051407 	cfstrseq	mvf1, [r5], {7}
    1640:	0a050106 	beq	141a60 <__ROM_SIZE+0x101a60>
    1644:	1f0c053d 	svcne	0x000c053d
    1648:	21060705 	tstcs	r6, r5, lsl #14
    164c:	01060a05 	tsteq	r6, r5, lsl #20
    1650:	03060705 	movweq	r0, #26373	@ 0x6705
    1654:	0a052e24 	beq	14ceec <__ROM_SIZE+0x10ceec>
    1658:	07050106 	streq	r0, [r5, -r6, lsl #2]
    165c:	2e0f0306 	cdpcs	3, 0, cr0, cr15, cr6, {0}
    1660:	13030405 	movwne	r0, #13317	@ 0x3405
    1664:	0705139e 			@ <UNDEFINED> instruction: 0x0705139e
    1668:	04050106 	streq	r0, [r5], #-262	@ 0xfffffefa
    166c:	74064e06 	strvc	r4, [r6], #-3590	@ 0xfffff1fa
    1670:	25752f06 	ldrbcs	r2, [r5, #-3846]!	@ 0xfffff0fa
    1674:	06180514 			@ <UNDEFINED> instruction: 0x06180514
    1678:	20120501 	andscs	r0, r2, r1, lsl #10
    167c:	052e1805 	streq	r1, [lr, #-2053]!	@ 0xfffff7fb
    1680:	07052e12 	smladeq	r5, r2, lr, r2
    1684:	06040521 	streq	r0, [r4], -r1, lsr #10
    1688:	0607053c 			@ <UNDEFINED> instruction: 0x0607053c
    168c:	06060501 	streq	r0, [r6], -r1, lsl #10
    1690:	052e0621 	streq	r0, [lr, #-1569]!	@ 0xfffff9df
    1694:	10030608 	andne	r0, r3, r8, lsl #12
    1698:	060c0501 	streq	r0, [ip], -r1, lsl #10
    169c:	0b052e01 	bleq	14cea8 <__ROM_SIZE+0x10cea8>
    16a0:	01040200 	mrseq	r0, R12_usr
    16a4:	030f053c 	movweq	r0, #62780	@ 0xf53c
    16a8:	01052e53 	tsteq	r5, r3, asr lr
    16ac:	2001b603 	andcs	fp, r1, r3, lsl #12
    16b0:	0604053c 			@ <UNDEFINED> instruction: 0x0604053c
    16b4:	4a7fbd03 	bmi	1ff0ac8 <__ROM_SIZE+0x1fb0ac8>
    16b8:	01060705 	tsteq	r6, r5, lsl #14
    16bc:	03060405 	movweq	r0, #25605	@ 0x6405
    16c0:	07053c0a 	streq	r3, [r5, -sl, lsl #24]
    16c4:	04050106 	streq	r0, [r5], #-262	@ 0xfffffefa
    16c8:	3c0c0306 	stccc	3, cr0, [ip], {6}
    16cc:	01060705 	tsteq	r6, r5, lsl #14
    16d0:	03060405 	movweq	r0, #25605	@ 0x6405
    16d4:	07055809 	streq	r5, [r5, -r9, lsl #16]
    16d8:	04050106 	streq	r0, [r5], #-262	@ 0xfffffefa
    16dc:	3c0a0306 	stccc	3, cr0, [sl], {6}
    16e0:	01060705 	tsteq	r6, r5, lsl #14
    16e4:	31060805 	tstcc	r6, r5, lsl #16
    16e8:	01060d05 	tsteq	r6, r5, lsl #26
    16ec:	300c0520 	andcc	r0, ip, r0, lsr #10
    16f0:	052c0d05 	streq	r0, [ip, #-3333]!	@ 0xfffff2fb
    16f4:	05210608 	streq	r0, [r1, #-1544]!	@ 0xfffff9f8
    16f8:	0501061a 	streq	r0, [r1, #-1562]	@ 0xfffff9e6
    16fc:	1a05202f 	bne	1497c0 <__ROM_SIZE+0x1097c0>
    1700:	0608052e 	streq	r0, [r8], -lr, lsr #10
    1704:	062f052f 	strteq	r0, [pc], -pc, lsr #10
    1708:	210c0511 	tstcs	ip, r1, lsl r5
    170c:	02000b05 	andeq	r0, r0, #5120	@ 0x1400
    1710:	054a0104 	strbeq	r0, [sl, #-260]	@ 0xfffffefc
    1714:	cd030604 	stcgt	6, cr0, [r3, #-16]
    1718:	05143c7e 	ldreq	r3, [r4, #-3198]	@ 0xfffff382
    171c:	0501061a 	streq	r0, [r1, #-1562]	@ 0xfffff9e6
    1720:	04052e0b 	streq	r2, [r5], #-3595	@ 0xfffff1f5
    1724:	66062106 	strvs	r2, [r6], -r6, lsl #2
    1728:	0a054b06 	beq	154348 <__ROM_SIZE+0x114348>
    172c:	07051306 	streq	r1, [r5, -r6, lsl #6]
    1730:	0606051f 			@ <UNDEFINED> instruction: 0x0606051f
    1734:	060a0521 	streq	r0, [sl], -r1, lsr #10
    1738:	06060501 	streq	r0, [r6], -r1, lsl #10
    173c:	060a0530 			@ <UNDEFINED> instruction: 0x060a0530
    1740:	21040501 	tstcs	r4, r1, lsl #10
    1744:	062f7406 	strteq	r7, [pc], -r6, lsl #8
    1748:	06070520 	streq	r0, [r7], -r0, lsr #10
    174c:	0101b203 	tsteq	r1, r3, lsl #4
    1750:	01060a05 	tsteq	r6, r5, lsl #20
    1754:	4d060405 	cfstrsmi	mvf0, [r6, #-20]	@ 0xffffffec
    1758:	061d0513 			@ <UNDEFINED> instruction: 0x061d0513
    175c:	3d080511 	cfstr32cc	mvfx0, [r8, #-68]	@ 0xffffffbc
    1760:	0007053c 	andeq	r0, r7, ip, lsr r5
    1764:	4a010402 	bmi	42774 <__ROM_SIZE+0x2774>
    1768:	03060405 	movweq	r0, #25605	@ 0x6405
    176c:	054a7ecf 	strbeq	r7, [sl, #-3791]	@ 0xfffff131
    1770:	20010615 	andcs	r0, r1, r5, lsl r6
    1774:	052e0d05 	streq	r0, [lr, #-3333]!	@ 0xfffff2fb
    1778:	04020007 	streq	r0, [r2], #-7
    177c:	04052001 	streq	r2, [r5], #-1
    1780:	07052106 	streq	r2, [r5, -r6, lsl #2]
    1784:	04050106 	streq	r0, [r5], #-262	@ 0xfffffefa
    1788:	08054206 	stmdaeq	r5, {r1, r2, r9, lr}
    178c:	0d051306 	stceq	3, cr1, [r5, #-24]	@ 0xffffffe8
    1790:	0604051f 			@ <UNDEFINED> instruction: 0x0604051f
    1794:	06080521 	streq	r0, [r8], -r1, lsr #10
    1798:	2d070501 	cfstr32cs	mvfx0, [r7, #-4]
    179c:	05210805 	streq	r0, [r1, #-2053]!	@ 0xfffff7fb
    17a0:	04020007 	streq	r0, [r2], #-7
    17a4:	04052e01 	streq	r2, [r5], #-3585	@ 0xfffff1ff
    17a8:	0d053106 	stfeqs	f3, [r5, #-24]	@ 0xffffffe8
    17ac:	05581306 	ldrbeq	r1, [r8, #-774]	@ 0xfffffcfa
    17b0:	1e030604 	cfmadd32ne	mvax0, mvfx0, mvfx3, mvfx4
    17b4:	03080520 	movweq	r0, #34080	@ 0x8520
    17b8:	4a069e39 	bmi	1a90a4 <__ROM_SIZE+0x1690a4>
    17bc:	70034e06 	andvc	r4, r3, r6, lsl #28
    17c0:	060c0520 	streq	r0, [ip], -r0, lsr #10
    17c4:	0b053c01 	bleq	1507d0 <__ROM_SIZE+0x1107d0>
    17c8:	01040200 	mrseq	r0, R12_usr
    17cc:	0608053c 			@ <UNDEFINED> instruction: 0x0608053c
    17d0:	054a7603 	strbeq	r7, [sl, #-1539]	@ 0xfffff9fd
    17d4:	2001060d 	andcs	r0, r1, sp, lsl #12
    17d8:	05300c05 	ldreq	r0, [r0, #-3077]!	@ 0xfffff3fb
    17dc:	08051e0d 	stmdaeq	r5, {r0, r2, r3, r9, sl, fp, ip}
    17e0:	0c052106 	stfeqs	f2, [r5], {6}
    17e4:	08051306 	stmdaeq	r5, {r1, r2, r8, r9, ip}
    17e8:	2e6a0306 	cdpcs	3, 6, cr0, cr10, cr6, {0}
    17ec:	06660614 			@ <UNDEFINED> instruction: 0x06660614
    17f0:	060d054c 	streq	r0, [sp], -ip, asr #10
    17f4:	06080501 	streq	r0, [r8], -r1, lsl #10
    17f8:	0f05133d 	svceq	0x0005133d
    17fc:	060e0501 	streq	r0, [lr], -r1, lsl #10
    1800:	030a051f 	movweq	r0, #42271	@ 0xa51f
    1804:	052e7fb9 	streq	r7, [lr, #-4025]!	@ 0xfffff047
    1808:	00c8030f 	sbceq	r0, r8, pc, lsl #6
    180c:	06050520 	streq	r0, [r5], -r0, lsr #10
    1810:	06110522 	ldreq	r0, [r1], -r2, lsr #10
    1814:	2e190501 	cfmul32cs	mvfx0, mvfx9, mvfx1
    1818:	05200905 	streq	r0, [r0, #-2309]!	@ 0xfffff6fb
    181c:	0905220a 	stmdbeq	r5, {r1, r3, r9, sp}
    1820:	0605051e 			@ <UNDEFINED> instruction: 0x0605051e
    1824:	060a0521 	streq	r0, [sl], -r1, lsr #10
    1828:	2a0f0513 	bcs	3c2c7c <__ROM_SIZE+0x382c7c>
    182c:	05230b05 	streq	r0, [r3, #-2821]!	@ 0xfffff4fb
    1830:	052f0605 	streq	r0, [pc, #-1541]!	@ 1233 <__gnu_unwind_execute+0x12f>
    1834:	08050e0f 	stmdaeq	r5, {r0, r1, r2, r3, r9, sl, fp}
    1838:	05130626 	ldreq	r0, [r3, #-1574]	@ 0xfffff9da
    183c:	0c051f1c 	stceq	15, cr1, [r5], {28}
    1840:	3d080520 	cfstr32cc	mvfx0, [r8, #-128]	@ 0xffffff80
    1844:	05570c05 	ldrbeq	r0, [r7, #-3077]	@ 0xfffff3fb
    1848:	30210608 	eorcc	r0, r1, r8, lsl #12
    184c:	03062006 	movweq	r2, #24582	@ 0x6006
    1850:	0d050164 	stfeqs	f0, [r5, #-400]	@ 0xfffffe70
    1854:	05200106 	streq	r0, [r0, #-262]!	@ 0xfffffefa
    1858:	0d052f0b 	stceq	15, cr2, [r5, #-44]	@ 0xffffffd4
    185c:	0608053b 			@ <UNDEFINED> instruction: 0x0608053b
    1860:	060b0521 	streq	r0, [fp], -r1, lsr #10
    1864:	06080501 	streq	r0, [r8], -r1, lsl #10
    1868:	3c00cd03 	stccc	13, cr12, [r0], {3}
    186c:	01060d05 	tsteq	r6, r5, lsl #26
    1870:	06080520 	streq	r0, [r8], -r0, lsr #10
    1874:	060c053d 			@ <UNDEFINED> instruction: 0x060c053d
    1878:	1f1a0513 	svcne	0x001a0513
    187c:	05202f05 	streq	r2, [r0, #-3845]!	@ 0xfffff0fb
    1880:	08052e1a 	stmdaeq	r5, {r1, r3, r4, r9, sl, fp, sp}
    1884:	2f052f06 	svccs	0x00052f06
    1888:	0c051106 	stfeqs	f1, [r5], {6}
    188c:	0b052e21 	bleq	14d118 <__ROM_SIZE+0x10d118>
    1890:	01040200 	mrseq	r0, R12_usr
    1894:	0604053c 			@ <UNDEFINED> instruction: 0x0604053c
    1898:	4a7ee803 	bmi	1fbb8ac <__ROM_SIZE+0x1f7b8ac>
    189c:	01060705 	tsteq	r6, r5, lsl #14
    18a0:	d5030a05 	strle	r0, [r3, #-2565]	@ 0xfffff5fb
    18a4:	08053c01 	stmdaeq	r5, {r0, sl, fp, ip, sp}
    18a8:	2e4a0306 	cdpcs	3, 4, cr0, cr10, cr6, {0}
    18ac:	01060d05 	tsteq	r6, r5, lsl #26
    18b0:	2f0b0520 	svccs	0x000b0520
    18b4:	053b0d05 	ldreq	r0, [fp, #-3333]!	@ 0xfffff2fb
    18b8:	05210608 	streq	r0, [r1, #-1544]!	@ 0xfffff9f8
    18bc:	0501060b 	streq	r0, [r1, #-1547]	@ 0xfffff9f5
    18c0:	05320608 	ldreq	r0, [r2, #-1544]!	@ 0xfffff9f8
    18c4:	3c01060c 	stccc	6, cr0, [r1], {12}
    18c8:	02000b05 	andeq	r0, r0, #5120	@ 0x1400
    18cc:	052e0104 	streq	r0, [lr, #-260]!	@ 0xfffffefc
    18d0:	13520608 	cmpne	r2, #8, 12	@ 0x800000
    18d4:	01060c05 	tsteq	r6, r5, lsl #24
    18d8:	051f2305 	ldreq	r2, [pc, #-773]	@ 15db <__exidx_start+0x47>
    18dc:	05203d0c 	streq	r3, [r0, #-3340]!	@ 0xfffff2f4
    18e0:	0402000b 	streq	r0, [r2], #-11
    18e4:	0f055801 	svceq	0x00055801
    18e8:	14055206 	strne	r5, [r5], #-518	@ 0xfffffdfa
    18ec:	05200106 	streq	r0, [r0, #-262]!	@ 0xfffffefa
    18f0:	133d060f 	teqne	sp, #15728640	@ 0xf00000
    18f4:	01061305 	tsteq	r6, r5, lsl #6
    18f8:	051f1a05 	ldreq	r1, [pc, #-2565]	@ efb <_Unwind_VRS_Pop+0x2e7>
    18fc:	22052e3d 	andcs	r2, r5, #976	@ 0x3d0
    1900:	203d052e 	eorscs	r0, sp, lr, lsr #10
    1904:	05211305 	streq	r1, [r1, #-773]!	@ 0xfffffcfb
    1908:	04020012 	streq	r0, [r2], #-18	@ 0xffffffee
    190c:	08056601 	stmdaeq	r5, {r0, r9, sl, sp, lr}
    1910:	7ecb0306 	cdpvc	3, 12, cr0, cr11, cr6, {0}
    1914:	0658064a 	ldrbeq	r0, [r8], -sl, asr #12
    1918:	0304053e 	movweq	r0, #17726	@ 0x453e
    191c:	05820182 	streq	r0, [r2, #386]	@ 0x182
    1920:	05010607 	streq	r0, [r1, #-1543]	@ 0xfffff9f9
    1924:	135d0604 	cmpne	sp, #4, 12	@ 0x400000
    1928:	01060805 	tsteq	r6, r5, lsl #16
    192c:	051f1d05 	ldreq	r1, [pc, #-3333]	@ c2f <_Unwind_VRS_Pop+0x1b>
    1930:	05203d08 	streq	r3, [r0, #-3336]!	@ 0xfffff2f8
    1934:	04020007 	streq	r0, [r2], #-7
    1938:	01055801 	tsteq	r5, r1, lsl #16
    193c:	02050006 	andeq	r0, r5, #6
    1940:	00001400 	andeq	r1, r0, r0, lsl #8
    1944:	0100d303 	tsteq	r0, r3, lsl #6
    1948:	13130305 	tstne	r3, #335544320	@ 0x14000000
    194c:	06010514 			@ <UNDEFINED> instruction: 0x06010514
    1950:	0312050e 	tsteq	r2, #58720256	@ 0x3800000
    1954:	0105200a 	tsteq	r5, sl
    1958:	052e7603 	streq	r7, [lr, #-1539]!	@ 0xfffff9fd
    195c:	03052407 	movweq	r2, #21511	@ 0x5407
    1960:	05142206 	ldreq	r2, [r4, #-518]	@ 0xfffffdfa
    1964:	0517060a 	ldreq	r0, [r7, #-1546]	@ 0xfffff9f6
    1968:	01051b0f 	tsteq	r5, pc, lsl #22
    196c:	05207803 	streq	r7, [r0, #-2051]!	@ 0xfffff7fd
    1970:	20090312 	andcs	r0, r9, r2, lsl r3
    1974:	05200c05 	streq	r0, [r0, #-3077]!	@ 0xfffff3fb
    1978:	2305240a 	movwcs	r2, #21514	@ 0x540a
    197c:	1d15051e 	cfldr32ne	mvfx0, [r5, #-120]	@ 0xffffff88
    1980:	05221205 	streq	r1, [r2, #-517]!	@ 0xfffffdfb
    1984:	03052c0c 	movweq	r2, #23564	@ 0x5c0c
    1988:	13132106 	tstne	r3, #-2147483647	@ 0x80000001
    198c:	01061205 	tsteq	r6, r5, lsl #4
    1990:	30060305 	andcc	r0, r6, r5, lsl #6
    1994:	01060a05 	tsteq	r6, r5, lsl #20
    1998:	062f0105 	strteq	r0, [pc], -r5, lsl #2
    199c:	30020500 	andcc	r0, r2, r0, lsl #10
    19a0:	03000014 	movweq	r0, #20
    19a4:	0305010e 	movweq	r0, #20750	@ 0x510e
    19a8:	01051413 	tsteq	r5, r3, lsl r4
    19ac:	0a050f06 	beq	1455cc <__ROM_SIZE+0x1055cc>
    19b0:	06030523 	streq	r0, [r3], -r3, lsr #10
    19b4:	0601052f 	streq	r0, [r1], -pc, lsr #10
    19b8:	34062013 	strcc	r2, [r6], #-19	@ 0xffffffed
    19bc:	13130305 	tstne	r3, #335544320	@ 0x14000000
    19c0:	06010515 			@ <UNDEFINED> instruction: 0x06010515
    19c4:	250a050d 	strcs	r0, [sl, #-1293]	@ 0xfffffaf3
    19c8:	2f060305 	svccs	0x00060305
    19cc:	01060705 	tsteq	r6, r5, lsl #14
    19d0:	22060305 	andcs	r0, r6, #335544320	@ 0x14000000
    19d4:	06130514 			@ <UNDEFINED> instruction: 0x06130514
    19d8:	06030501 	streq	r0, [r3], -r1, lsl #10
    19dc:	0601053e 			@ <UNDEFINED> instruction: 0x0601053e
    19e0:	01002e13 	tsteq	r0, r3, lsl lr
    19e4:	00010501 	andeq	r0, r1, r1, lsl #10
    19e8:	00000205 	andeq	r0, r0, r5, lsl #4
    19ec:	aa030000 	bge	c19f4 <__ROM_SIZE+0x819f4>
    19f0:	03050103 	movweq	r0, #20739	@ 0x5103
    19f4:	06010513 			@ <UNDEFINED> instruction: 0x06010513
    19f8:	21030511 	tstcs	r3, r1, lsl r5
    19fc:	0502042e 	streq	r0, [r2, #-1070]	@ 0xfffffbd2
    1a00:	0500060f 	streq	r0, [r0, #-1551]	@ 0xfffff9f1
    1a04:	00000002 	andeq	r0, r0, r2
    1a08:	7e940300 	cdpvc	3, 9, cr0, cr4, cr0, {0}
    1a0c:	00030201 	andeq	r0, r3, r1, lsl #4
    1a10:	00b90101 	adcseq	r0, r9, r1, lsl #2
    1a14:	00050000 	andeq	r0, r5, r0
    1a18:	002e0004 	eoreq	r0, lr, r4
    1a1c:	01020000 	mrseq	r0, (UNDEF: 2)
    1a20:	0d0efb01 	vstreq	d15, [lr, #-4]
    1a24:	01010100 	mrseq	r0, (UNDEF: 17)
    1a28:	00000001 	andeq	r0, r0, r1
    1a2c:	01000001 	tsteq	r0, r1
    1a30:	021f0101 	andseq	r0, pc, #1073741824	@ 0x40000000
    1a34:	0000010c 	andeq	r0, r0, ip, lsl #2
    1a38:	00000162 	andeq	r0, r0, r2, ror #2
    1a3c:	021f0102 	andseq	r0, pc, #-2147483648	@ 0x80000000
    1a40:	018c020f 	orreq	r0, ip, pc, lsl #4
    1a44:	8c010000 	stchi	0, cr0, [r1], {-0}
    1a48:	01000001 	tsteq	r0, r1
    1a4c:	50020500 	andpl	r0, r2, r0, lsl #10
    1a50:	03000014 	movweq	r0, #20
    1a54:	240100e4 	strcs	r0, [r1], #-228	@ 0xffffff1c
    1a58:	21232f2f 			@ <UNDEFINED> instruction: 0x21232f2f
    1a5c:	21200b03 			@ <UNDEFINED> instruction: 0x21200b03
    1a60:	211f211f 	tstcs	pc, pc, lsl r1	@ <UNPREDICTABLE>
    1a64:	211f211f 	tstcs	pc, pc, lsl r1	@ <UNPREDICTABLE>
    1a68:	211f211f 	tstcs	pc, pc, lsl r1	@ <UNPREDICTABLE>
    1a6c:	211f211f 	tstcs	pc, pc, lsl r1	@ <UNPREDICTABLE>
    1a70:	211f211f 	tstcs	pc, pc, lsl r1	@ <UNPREDICTABLE>
    1a74:	211f211f 	tstcs	pc, pc, lsl r1	@ <UNPREDICTABLE>
    1a78:	211f211f 	tstcs	pc, pc, lsl r1	@ <UNPREDICTABLE>
    1a7c:	2122211f 			@ <UNDEFINED> instruction: 0x2122211f
    1a80:	21232122 			@ <UNDEFINED> instruction: 0x21232122
    1a84:	21200b03 			@ <UNDEFINED> instruction: 0x21200b03
    1a88:	211f211f 	tstcs	pc, pc, lsl r1	@ <UNPREDICTABLE>
    1a8c:	2122211f 			@ <UNDEFINED> instruction: 0x2122211f
    1a90:	21232122 			@ <UNDEFINED> instruction: 0x21232122
    1a94:	212f2f25 			@ <UNDEFINED> instruction: 0x212f2f25
    1a98:	21222123 			@ <UNDEFINED> instruction: 0x21222123
    1a9c:	22302f21 	eorscs	r2, r0, #33, 30	@ 0x84
    1aa0:	200b0321 	andcs	r0, fp, r1, lsr #6
    1aa4:	2e100321 	cdpcs	3, 1, cr0, cr0, cr1, {1}
    1aa8:	03212321 			@ <UNDEFINED> instruction: 0x03212321
    1aac:	222f200f 	eorcs	r2, pc, #15
    1ab0:	2121222f 			@ <UNDEFINED> instruction: 0x2121222f
    1ab4:	2f23302f 	svccs	0x0023302f
    1ab8:	00ce032f 	sbceq	r0, lr, pc, lsr #6
    1abc:	21232120 			@ <UNDEFINED> instruction: 0x21232120
    1ac0:	21222f2f 			@ <UNDEFINED> instruction: 0x21222f2f
    1ac4:	21212121 			@ <UNDEFINED> instruction: 0x21212121
    1ac8:	01022123 	tsteq	r2, r3, lsr #2
    1acc:	Address 0x1acc is out of bounds.


Disassembly of section .debug_line_str:

00000000 <.debug_line_str>:
   0:	6d6f682f 	stclvs	8, cr6, [pc, #-188]!	@ ffffff4c <__StackTop+0xdffeff4c>
   4:	73782f65 	cmnvc	r8, #404	@ 0x194
   8:	6f442f79 	svcvs	0x00442f79
   c:	656d7563 	strbvs	r7, [sp, #-1379]!	@ 0xfffffa9d
  10:	2f73746e 	svccs	0x0073746e
  14:	6a6f7250 	bvs	1bdc95c <__ROM_SIZE+0x1b9c95c>
  18:	2f746365 	svccs	0x00746365
  1c:	554d4551 	strbpl	r4, [sp, #-1361]	@ 0xfffffaaf
  20:	4c5f435f 	mrrcmi	3, 5, r4, pc, cr15	@ <UNPREDICTABLE>
  24:	3653334d 	ldrbcc	r3, [r3], -sp, asr #6
  28:	45353639 	ldrmi	r3, [r5, #-1593]!	@ 0xfffff9c7
  2c:	752f4256 	strvc	r4, [pc, #-598]!	@ fffffdde <__StackTop+0xdffefdde>
  30:	5f747261 	svcpl	0x00747261
  34:	676f7270 			@ <UNDEFINED> instruction: 0x676f7270
  38:	006d6172 	rsbeq	r6, sp, r2, ror r1
  3c:	432f2e2e 			@ <UNDEFINED> instruction: 0x432f2e2e
  40:	5349534d 	movtpl	r5, #37709	@ 0x934d
  44:	442f355f 	strtmi	r3, [pc], #-1375	@ 4c <__Vectors+0x4c>
  48:	63697665 	cmnvs	r9, #105906176	@ 0x6500000
  4c:	52412f65 	subpl	r2, r1, #404	@ 0x194
  50:	52412f4d 	subpl	r2, r1, #308	@ 0x134
  54:	334d434d 	movtcc	r4, #54093	@ 0xd34d
  58:	756f532f 	strbvc	r5, [pc, #-815]!	@ fffffd31 <__StackTop+0xdffefd31>
  5c:	2f656372 	svccs	0x00656372
  60:	00434347 	subeq	r4, r3, r7, asr #6
  64:	72617473 	rsbvc	r7, r1, #1929379840	@ 0x73000000
  68:	5f707574 	svcpl	0x00707574
  6c:	434d5241 	movtmi	r5, #53825	@ 0xd241
  70:	532e334d 			@ <UNDEFINED> instruction: 0x532e334d
  74:	75622f00 	strbvc	r2, [r2, #-3840]!	@ 0xfffff100
  78:	2f646c69 	svccs	0x00646c69
  7c:	2d636367 	stclcs	3, cr6, [r3, #-412]!	@ 0xfffffe64
  80:	2d6d7261 	sfmcs	f7, 2, [sp, #-388]!	@ 0xfffffe7c
  84:	656e6f6e 	strbvs	r6, [lr, #-3950]!	@ 0xfffff092
  88:	6261652d 	rsbvs	r6, r1, #188743680	@ 0xb400000
  8c:	75542d69 	ldrbvc	r2, [r4, #-3433]	@ 0xfffff297
  90:	304e5a54 	subcc	r5, lr, r4, asr sl
  94:	6363672f 	cmnvs	r3, #12320768	@ 0xbc0000
  98:	6d72612d 	ldfvse	f6, [r2, #-180]!	@ 0xffffff4c
  9c:	6e6f6e2d 	cdpvs	14, 6, cr6, cr15, cr13, {1}
  a0:	61652d65 	cmnvs	r5, r5, ror #26
  a4:	312d6962 			@ <UNDEFINED> instruction: 0x312d6962
  a8:	2e322e33 	mrccs	14, 1, r2, cr2, cr3, {1}
  ac:	316c6572 	smccc	50770	@ 0xc652
  b0:	6975622f 	ldmdbvs	r5!, {r0, r1, r2, r3, r5, r9, sp, lr}^
  b4:	612f646c 			@ <UNDEFINED> instruction: 0x612f646c
  b8:	6e2d6d72 	mcrvs	13, 1, r6, cr13, cr2, {3}
  bc:	2d656e6f 	stclcs	14, cr6, [r5, #-444]!	@ 0xfffffe44
  c0:	69626165 	stmdbvs	r2!, {r0, r2, r5, r6, r8, sp, lr}^
  c4:	7568742f 	strbvc	r7, [r8, #-1071]!	@ 0xfffffbd1
  c8:	762f626d 	strtvc	r6, [pc], -sp, ror #4
  cc:	2f6d2d37 	svccs	0x006d2d37
  d0:	70666f6e 	rsbvc	r6, r6, lr, ror #30
  d4:	62696c2f 	rsbvs	r6, r9, #12032	@ 0x2f00
  d8:	00636367 	rsbeq	r6, r3, r7, ror #6
  dc:	2e2f2e2e 	cdpcs	14, 2, cr2, cr15, cr14, {1}
  e0:	2e2e2f2e 	cdpcs	15, 2, cr2, cr14, cr14, {1}
  e4:	2f2e2e2f 	svccs	0x002e2e2f
  e8:	2e2f2e2e 	cdpcs	14, 2, cr2, cr15, cr14, {1}
  ec:	696c2f2e 	stmdbvs	ip!, {r1, r2, r3, r5, r8, r9, sl, fp, sp}^
  f0:	63636762 	cmnvs	r3, #25690112	@ 0x1880000
  f4:	6e6f632f 	cdpvs	3, 6, cr6, cr15, cr15, {1}
  f8:	2f676966 	svccs	0x00676966
  fc:	006d7261 	rsbeq	r7, sp, r1, ror #4
 100:	7562696c 	strbvc	r6, [r2, #-2412]!	@ 0xfffff694
 104:	6e69776e 	cdpvs	7, 6, cr7, cr9, cr14, {3}
 108:	00532e64 	subseq	r2, r3, r4, ror #28
 10c:	6975622f 	ldmdbvs	r5!, {r0, r1, r2, r3, r5, r9, sp, lr}^
 110:	6e2f646c 	cdpvs	4, 2, cr6, cr15, cr12, {3}
 114:	696c7765 	stmdbvs	ip!, {r0, r2, r5, r6, r8, r9, sl, ip, sp, lr}^
 118:	38332d62 	ldmdacc	r3!, {r1, r5, r6, r8, sl, fp, sp}
 11c:	434a3056 	movtmi	r3, #41046	@ 0xa056
 120:	77656e2f 	strbvc	r6, [r5, -pc, lsr #28]!
 124:	2d62696c 			@ <UNDEFINED> instruction: 0x2d62696c
 128:	2e342e34 	mrccs	14, 1, r2, cr4, cr4, {1}
 12c:	30322e30 	eorscc	r2, r2, r0, lsr lr
 130:	32313332 	eorscc	r3, r1, #-939524096	@ 0xc8000000
 134:	622f3133 	eorvs	r3, pc, #-1073741812	@ 0xc000000c
 138:	646c6975 	strbtvs	r6, [ip], #-2421	@ 0xfffff68b
 13c:	6d72612f 	ldfvse	f6, [r2, #-188]!	@ 0xffffff44
 140:	6e6f6e2d 	cdpvs	14, 6, cr6, cr15, cr13, {1}
 144:	61652d65 	cmnvs	r5, r5, ror #26
 148:	742f6962 	strtvc	r6, [pc], #-2402	@ 150 <__Vectors+0x150>
 14c:	626d7568 	rsbvs	r7, sp, #104, 10	@ 0x1a000000
 150:	2d37762f 	ldccs	6, cr7, [r7, #-188]!	@ 0xffffff44
 154:	6f6e2f6d 	svcvs	0x006e2f6d
 158:	6e2f7066 	cdpvs	0, 2, cr7, cr15, cr6, {3}
 15c:	696c7765 	stmdbvs	ip!, {r0, r2, r5, r6, r8, r9, sl, ip, sp, lr}^
 160:	2e2e0062 	cdpcs	0, 2, cr0, cr14, cr2, {3}
 164:	2f2e2e2f 	svccs	0x002e2e2f
 168:	2e2f2e2e 	cdpcs	14, 2, cr2, cr15, cr14, {1}
 16c:	2e2e2f2e 	cdpcs	15, 2, cr2, cr14, cr14, {1}
 170:	2f2e2e2f 	svccs	0x002e2e2f
 174:	6c77656e 	cfldr64vs	mvdx6, [r7], #-440	@ 0xfffffe48
 178:	6c2f6269 	sfmvs	f6, 4, [pc], #-420	@ ffffffdc <__StackTop+0xdffeffdc>
 17c:	2f636269 	svccs	0x00636269
 180:	6863616d 	stmdavs	r3!, {r0, r2, r3, r5, r6, r8, sp, lr}^
 184:	2f656e69 	svccs	0x00656e69
 188:	006d7261 	rsbeq	r7, sp, r1, ror #4
 18c:	636d656d 	cmnvs	sp, #457179136	@ 0x1b400000
 190:	612d7970 			@ <UNDEFINED> instruction: 0x612d7970
 194:	37766d72 			@ <UNDEFINED> instruction: 0x37766d72
 198:	00532e6d 	subseq	r2, r3, sp, ror #28

Disassembly of section .debug_info:

00000000 <.debug_info>:
       0:	00000133 	andeq	r0, r0, r3, lsr r1
       4:	04010005 	streq	r0, [r1], #-5
       8:	00000000 	andeq	r0, r0, r0
       c:	00000001 	andeq	r0, r0, r1
      10:	0003c000 	andeq	ip, r3, r0
      14:	00005800 	andeq	r5, r0, r0, lsl #16
      18:	00390000 	eorseq	r0, r9, r0
      1c:	00750000 	rsbseq	r0, r5, r0
      20:	80010000 	andhi	r0, r1, r0
      24:	00008102 	andeq	r8, r0, r2, lsl #2
      28:	02b50100 	adcseq	r0, r5, #0, 2
      2c:	000003c1 	andeq	r0, r0, r1, asr #7
      30:	008f0242 	addeq	r0, pc, r2, asr #4
      34:	b5000000 	strlt	r0, [r0, #-0]
      38:	00040502 	andeq	r0, r4, r2, lsl #10
      3c:	9b020200 	blls	80844 <__ROM_SIZE+0x40844>
      40:	00000000 	andeq	r0, r0, r0
      44:	040302b5 	streq	r0, [r3], #-693	@ 0xfffffd4b
      48:	02020000 	andeq	r0, r2, #0
      4c:	000000ad 	andeq	r0, r0, sp, lsr #1
      50:	0502b500 	streq	fp, [r2, #-1280]	@ 0xfffffb00
      54:	02000004 	andeq	r0, r0, #4
      58:	0000bf02 	andeq	fp, r0, r2, lsl #30
      5c:	02b50000 	adcseq	r0, r5, #0
      60:	00000405 	andeq	r0, r0, r5, lsl #8
      64:	00d00202 	sbcseq	r0, r0, r2, lsl #4
      68:	b5000000 	strlt	r0, [r0, #-0]
      6c:	00040502 	andeq	r0, r4, r2, lsl #10
      70:	e3020200 	movw	r0, #8704	@ 0x2200
      74:	00000000 	andeq	r0, r0, r0
      78:	040502b5 	streq	r0, [r5], #-693	@ 0xfffffd4b
      7c:	02020000 	andeq	r0, r2, #0
      80:	000000ef 	andeq	r0, r0, pc, ror #1
      84:	0502b500 	streq	fp, [r2, #-1280]	@ 0xfffffb00
      88:	02000004 	andeq	r0, r0, #4
      8c:	00010002 	andeq	r0, r1, r2
      90:	02b50000 	adcseq	r0, r5, #0
      94:	00000405 	andeq	r0, r0, r5, lsl #8
      98:	010f0202 	tsteq	pc, r2, lsl #4
      9c:	b5000000 	strlt	r0, [r0, #-0]
      a0:	00040502 	andeq	r0, r4, r2, lsl #10
      a4:	1f020200 	svcne	0x00020200
      a8:	00000001 	andeq	r0, r0, r1
      ac:	040502b5 	streq	r0, [r5], #-693	@ 0xfffffd4b
      b0:	02020000 	andeq	r0, r2, #0
      b4:	00000132 	andeq	r0, r0, r2, lsr r1
      b8:	0502b500 	streq	fp, [r2, #-1280]	@ 0xfffffb00
      bc:	02000004 	andeq	r0, r0, #4
      c0:	00014502 	andeq	r4, r1, r2, lsl #10
      c4:	02b50000 	adcseq	r0, r5, #0
      c8:	00000405 	andeq	r0, r0, r5, lsl #8
      cc:	01580202 	cmpeq	r8, r2, lsl #4
      d0:	b5000000 	strlt	r0, [r0, #-0]
      d4:	00040502 	andeq	r0, r4, r2, lsl #10
      d8:	6b020200 	blvs	808e0 <__ROM_SIZE+0x408e0>
      dc:	00000001 	andeq	r0, r0, r1
      e0:	040502b5 	streq	r0, [r5], #-693	@ 0xfffffd4b
      e4:	02020000 	andeq	r0, r2, #0
      e8:	0000017e 	andeq	r0, r0, lr, ror r1
      ec:	0502b500 	streq	fp, [r2, #-1280]	@ 0xfffffb00
      f0:	02000004 	andeq	r0, r0, #4
      f4:	00019102 	andeq	r9, r1, r2, lsl #2
      f8:	02b50000 	adcseq	r0, r5, #0
      fc:	00000405 	andeq	r0, r0, r5, lsl #8
     100:	01a40202 			@ <UNDEFINED> instruction: 0x01a40202
     104:	b5000000 	strlt	r0, [r0, #-0]
     108:	00040502 	andeq	r0, r4, r2, lsl #10
     10c:	b7020200 	strlt	r0, [r2, -r0, lsl #4]
     110:	00000001 	andeq	r0, r0, r1
     114:	040502b5 	streq	r0, [r5], #-693	@ 0xfffffd4b
     118:	02020000 	andeq	r0, r2, #0
     11c:	000001ca 	andeq	r0, r0, sl, asr #3
     120:	0502b500 	streq	fp, [r2, #-1280]	@ 0xfffffb00
     124:	02000004 	andeq	r0, r0, #4
     128:	0001dd02 	andeq	sp, r1, r2, lsl #26
     12c:	02b50000 	adcseq	r0, r5, #0
     130:	00000405 	andeq	r0, r0, r5, lsl #8
     134:	89000302 	stmdbhi	r0, {r1, r8, r9}
     138:	05000002 	streq	r0, [r0, #-2]
     13c:	28040100 	stmdacs	r4, {r8}
     140:	0b000000 	bleq	148 <__Vectors+0x148>
     144:	00000220 	andeq	r0, r0, r0, lsr #4
     148:	00030c1d 	andeq	r0, r3, sp, lsl ip
     14c:	00003900 	andeq	r3, r0, r0, lsl #18
     150:	00000c00 	andeq	r0, r0, r0, lsl #24
     154:	00000000 	andeq	r0, r0, r0
     158:	00007700 	andeq	r7, r0, r0, lsl #14
     15c:	05020200 	streq	r0, [r2, #-512]	@ 0xfffffe00
     160:	000002c8 	andeq	r0, r0, r8, asr #5
     164:	14060102 	strne	r0, [r6], #-258	@ 0xfffffefe
     168:	02000002 	andeq	r0, r0, #2
     16c:	034d0504 	movteq	r0, #54532	@ 0xd504
     170:	08020000 	stmdaeq	r2, {}	@ <UNPREDICTABLE>
     174:	00034805 	andeq	r4, r3, r5, lsl #16
     178:	03400800 	movteq	r0, #2048	@ 0x800
     17c:	2e020000 	cdpcs	0, 0, cr0, cr2, cr0, {0}
     180:	00005318 	andeq	r5, r0, r8, lsl r3
     184:	00420300 	subeq	r0, r2, r0, lsl #6
     188:	01020000 	mrseq	r0, (UNDEF: 2)
     18c:	00021208 	andeq	r1, r2, r8, lsl #4
     190:	07020200 	streq	r0, [r2, -r0, lsl #4]
     194:	0000029b 	muleq	r0, fp, r2
     198:	00039a08 	andeq	r9, r3, r8, lsl #20
     19c:	19340200 	ldmdbne	r4!, {r9}
     1a0:	00000077 	andeq	r0, r0, r7, ror r0
     1a4:	00006103 	andeq	r6, r0, r3, lsl #2
     1a8:	006d0400 	rsbeq	r0, sp, r0, lsl #8
     1ac:	04020000 	streq	r0, [r2], #-0
     1b0:	0002e507 	andeq	lr, r2, r7, lsl #10
     1b4:	07080200 	streq	r0, [r8, -r0, lsl #4]
     1b8:	000002e0 	andeq	r0, r0, r0, ror #5
     1bc:	6905040c 	stmdbvs	r5, {r2, r3, sl}
     1c0:	0200746e 	andeq	r7, r0, #1845493760	@ 0x6e000000
     1c4:	02ea0704 	rsceq	r0, sl, #4, 14	@ 0x100000
     1c8:	8c0d0000 	stchi	0, cr0, [sp], {-0}
     1cc:	09018003 	stmdbeq	r1, {r0, r1, pc}
     1d0:	0000019a 	muleq	r0, sl, r1
     1d4:	00035601 	andeq	r5, r3, r1, lsl #12
     1d8:	72018200 	andvc	r8, r1, #0, 4
     1dc:	00000000 	andeq	r0, r0, r0
     1e0:	0002f701 	andeq	pc, r2, r1, lsl #14
     1e4:	6d018300 	stcvs	3, cr8, [r1, #-0]
     1e8:	04000000 	streq	r0, [r0], #-0
     1ec:	00020301 	andeq	r0, r2, r1, lsl #6
     1f0:	6d018400 	cfstrsvs	mvf8, [r1, #-0]
     1f4:	08000000 	stmdaeq	r0, {}	@ <UNPREDICTABLE>
     1f8:	0002fc01 	andeq	pc, r2, r1, lsl #24
     1fc:	6d018500 	cfstr32vs	mvfx8, [r1, #-0]
     200:	0c000000 	stceq	0, cr0, [r0], {-0}
     204:	52435305 	subpl	r5, r3, #335544320	@ 0x14000000
     208:	6d018600 	stcvs	6, cr8, [r1, #-0]
     20c:	10000000 	andne	r0, r0, r0
     210:	52434305 	subpl	r4, r3, #335544320	@ 0x14000000
     214:	6d018700 	stcvs	7, cr8, [r1, #-0]
     218:	14000000 	strne	r0, [r0], #-0
     21c:	50485305 	subpl	r5, r8, r5, lsl #6
     220:	aa018800 	bge	62228 <__ROM_SIZE+0x22228>
     224:	18000001 	stmdane	r0, {r0}
     228:	0001f201 	andeq	pc, r1, r1, lsl #4
     22c:	6d018900 	vstrvs.16	s16, [r1, #-0]	@ <UNPREDICTABLE>
     230:	24000000 	strcs	r0, [r0], #-0
     234:	0002ae01 	andeq	sl, r2, r1, lsl #28
     238:	6d018a00 	vstrvs	s16, [r1, #-0]
     23c:	28000000 	stmdacs	r0, {}	@ <UNPREDICTABLE>
     240:	0002b301 	andeq	fp, r2, r1, lsl #6
     244:	6d018b00 	vstrvs	d8, [r1, #-0]
     248:	2c000000 	stccs	0, cr0, [r0], {-0}
     24c:	0002db01 	andeq	sp, r2, r1, lsl #22
     250:	6d018c00 	stcvs	12, cr8, [r1, #-0]
     254:	30000000 	andcc	r0, r0, r0
     258:	00039401 	andeq	r9, r3, r1, lsl #8
     25c:	6d018d00 	stcvs	13, cr8, [r1, #-0]
     260:	34000000 	strcc	r0, [r0], #-0
     264:	00030701 	andeq	r0, r3, r1, lsl #14
     268:	6d018e00 	stcvs	14, cr8, [r1, #-0]
     26c:	38000000 	stmdacc	r0, {}	@ <UNPREDICTABLE>
     270:	0003a301 	andeq	sl, r3, r1, lsl #6
     274:	6d018f00 	stcvs	15, cr8, [r1, #-0]
     278:	3c000000 	stccc	0, cr0, [r0], {-0}
     27c:	52465005 	subpl	r5, r6, #5
     280:	c4019000 	strgt	r9, [r1], #-0
     284:	40000001 	andmi	r0, r0, r1
     288:	52464405 	subpl	r4, r6, #83886080	@ 0x5000000
     28c:	72019100 	andvc	r9, r1, #0, 2
     290:	48000000 	stmdami	r0, {}	@ <UNPREDICTABLE>
     294:	52444105 	subpl	r4, r4, #1073741825	@ 0x40000001
     298:	72019200 	andvc	r9, r1, #0, 4
     29c:	4c000000 	stcmi	0, cr0, [r0], {-0}
     2a0:	0001ed01 	andeq	lr, r1, r1, lsl #26
     2a4:	de019300 	cdple	3, 0, cr9, cr1, cr0, {0}
     2a8:	50000001 	andpl	r0, r0, r1
     2ac:	00030201 	andeq	r0, r3, r1, lsl #4
     2b0:	f8019400 			@ <UNDEFINED> instruction: 0xf8019400
     2b4:	60000001 	andvs	r0, r0, r1
     2b8:	00020801 	andeq	r0, r2, r1, lsl #16
     2bc:	fd019500 	stc2	5, cr9, [r1, #-0]
     2c0:	74000001 	strvc	r0, [r0], #-1
     2c4:	0002c201 	andeq	ip, r2, r1, lsl #4
     2c8:	6d019600 	stcvs	6, cr9, [r1, #-0]
     2cc:	88000000 	stmdahi	r0, {}	@ <UNPREDICTABLE>
     2d0:	004e0600 	subeq	r0, lr, r0, lsl #12
     2d4:	01aa0000 			@ <UNDEFINED> instruction: 0x01aa0000
     2d8:	8c070000 	stchi	0, cr0, [r7], {-0}
     2dc:	0b000000 	bleq	2e4 <__Vectors+0x2e4>
     2e0:	019a0300 	orrseq	r0, sl, r0, lsl #6
     2e4:	72060000 	andvc	r0, r6, #0
     2e8:	bf000000 	svclt	0x00000000
     2ec:	07000001 	streq	r0, [r0, -r1]
     2f0:	0000008c 	andeq	r0, r0, ip, lsl #1
     2f4:	af040001 	svcge	0x00040001
     2f8:	03000001 	movweq	r0, #1
     2fc:	000001bf 			@ <UNDEFINED> instruction: 0x000001bf
     300:	00007206 	andeq	r7, r0, r6, lsl #4
     304:	0001d900 	andeq	sp, r1, r0, lsl #18
     308:	008c0700 	addeq	r0, ip, r0, lsl #14
     30c:	00030000 	andeq	r0, r3, r0
     310:	0001c904 	andeq	ip, r1, r4, lsl #18
     314:	01d90300 	bicseq	r0, r9, r0, lsl #6
     318:	72060000 	andvc	r0, r6, #0
     31c:	f3000000 	vhadd.u8	d0, d0, d0
     320:	07000001 	streq	r0, [r0, -r1]
     324:	0000008c 	andeq	r0, r0, ip, lsl #1
     328:	e3040004 	movw	r0, #16388	@ 0x4004
     32c:	03000001 	movweq	r0, #1
     330:	000001f3 	strdeq	r0, [r0], -r3
     334:	00006106 	andeq	r6, r0, r6, lsl #2
     338:	00020d00 	andeq	r0, r2, r0, lsl #26
     33c:	008c0700 	addeq	r0, ip, r0, lsl #14
     340:	00040000 	andeq	r0, r4, r0
     344:	0002d20e 	andeq	sp, r2, lr, lsl #4
     348:	01970300 	orrseq	r0, r7, r0, lsl #6
     34c:	00009303 	andeq	r9, r0, r3, lsl #6
     350:	035c0800 	cmpeq	ip, #0, 16
     354:	26040000 	strcs	r0, [r4], -r0
     358:	00022b0f 	andeq	r2, r2, pc, lsl #22
     35c:	021a0400 	andseq	r0, sl, #0, 8
     360:	040f0000 	streq	r0, [pc], #-0	@ 368 <__Vectors+0x368>
     364:	00000231 	andeq	r0, r0, r1, lsr r2
     368:	036e0910 	cmneq	lr, #16, 18	@ 0x40000
     36c:	2b040000 	blcs	100374 <__ROM_SIZE+0xc0374>
     370:	00006111 	andeq	r6, r0, r1, lsl r1
     374:	02260600 	eoreq	r0, r6, #0, 12
     378:	024e0000 	subeq	r0, lr, #0
     37c:	8c070000 	stchi	0, cr0, [r7], {-0}
     380:	ef000000 	svc	0x00000000
     384:	023e0400 	eorseq	r0, lr, #0, 8
     388:	b8090000 	stmdalt	r9, {}	@ <UNPREDICTABLE>
     38c:	01000002 	tsteq	r0, r2
     390:	024e2026 	subeq	r2, lr, #38	@ 0x26
     394:	32110000 	andscc	r0, r1, #0
     398:	01000002 	tsteq	r0, r2
     39c:	0003050a 	andeq	r0, r3, sl, lsl #10
     3a0:	0a200000 	beq	8003a8 <__ROM_SIZE+0x7c03a8>
     3a4:	000001f8 	strdeq	r0, [r0], -r8
     3a8:	00041839 	andeq	r1, r4, r9, lsr r8
     3ac:	00002800 	andeq	r2, r0, r0, lsl #16
     3b0:	0a9c0100 	beq	fe7007b8 <__StackTop+0xde6f07b8>
     3b4:	0000037e 	andeq	r0, r0, lr, ror r3
     3b8:	00000031 	andeq	r0, r0, r1, lsr r0
     3bc:	00001c00 	andeq	r1, r0, r0, lsl #24
     3c0:	009c0100 	addseq	r0, ip, r0, lsl #2
     3c4:	00000064 	andeq	r0, r0, r4, rrx
     3c8:	04010005 	streq	r0, [r1], #-5
     3cc:	00000110 	andeq	r0, r0, r0, lsl r1
     3d0:	00022001 	andeq	r2, r2, r1
     3d4:	03b41d00 			@ <UNDEFINED> instruction: 0x03b41d00
     3d8:	00390000 	eorseq	r0, r9, r0
     3dc:	00250000 	eoreq	r0, r5, r0
     3e0:	00000000 	andeq	r0, r0, r0
     3e4:	019c0000 	orrseq	r0, ip, r0
     3e8:	a8020000 	stmdage	r2, {}	@ <UNPREDICTABLE>
     3ec:	02000003 	andeq	r0, r0, #3
     3f0:	00380604 	eorseq	r0, r8, r4, lsl #12
     3f4:	38030000 	stmdacc	r3, {}	@ <UNPREDICTABLE>
     3f8:	00000000 	andeq	r0, r0, r0
     3fc:	00450404 	subeq	r0, r5, r4, lsl #8
     400:	01050000 	mrseq	r0, (UNDEF: 5)
     404:	00021b08 	andeq	r1, r2, r8, lsl #22
     408:	003e0600 	eorseq	r0, lr, r0, lsl #12
     40c:	bb070000 	bllt	1c0414 <__ROM_SIZE+0x180414>
     410:	01000003 	tsteq	r0, r3
     414:	00600504 	rsbeq	r0, r0, r4, lsl #10
     418:	04400000 	strbeq	r0, [r0], #-0
     41c:	00140000 	andseq	r0, r4, r0
     420:	9c010000 	stcls	0, cr0, [r1], {-0}
     424:	69050408 	stmdbvs	r5, {r3, sl}
     428:	0000746e 	andeq	r7, r0, lr, ror #8
     42c:	000000d7 	ldrdeq	r0, [r0], -r7
     430:	04010005 	streq	r0, [r1], #-5
     434:	00000181 	andeq	r0, r0, r1, lsl #3
     438:	00022003 	andeq	r2, r2, r3
     43c:	03cd1d00 	biceq	r1, sp, #0, 26
     440:	00390000 	eorseq	r0, r9, r0
     444:	00380000 	eorseq	r0, r8, r0
     448:	00000000 	andeq	r0, r0, r0
     44c:	01e20000 	mvneq	r0, r0
     450:	01010000 	mrseq	r0, (UNDEF: 1)
     454:	00021406 	andeq	r1, r2, r6, lsl #8
     458:	05020100 	streq	r0, [r2, #-256]	@ 0xffffff00
     45c:	000002c8 	andeq	r0, r0, r8, asr #5
     460:	4d050401 	cfstrsmi	mvf0, [r5, #-4]
     464:	01000003 	tsteq	r0, r3
     468:	03480508 	movteq	r0, #34056	@ 0x8508
     46c:	01010000 	mrseq	r0, (UNDEF: 1)
     470:	00021208 	andeq	r1, r2, r8, lsl #4
     474:	07020100 	streq	r0, [r2, -r0, lsl #2]
     478:	0000029b 	muleq	r0, fp, r2
     47c:	00039a04 	andeq	r9, r3, r4, lsl #20
     480:	19340200 	ldmdbne	r4!, {r9}
     484:	0000005c 	andeq	r0, r0, ip, asr r0
     488:	e5070401 	str	r0, [r7, #-1025]	@ 0xfffffbff
     48c:	01000002 	tsteq	r0, r2
     490:	02e00708 	rsceq	r0, r0, #8, 14	@ 0x200000
     494:	04050000 	streq	r0, [r5], #-0
     498:	746e6905 	strbtvc	r6, [lr], #-2309	@ 0xfffff6fb
     49c:	07040100 	streq	r0, [r4, -r0, lsl #2]
     4a0:	000002ea 	andeq	r0, r0, sl, ror #5
     4a4:	d4040801 	strle	r0, [r4], #-2049	@ 0xfffff7ff
     4a8:	01000003 	tsteq	r0, r3
     4ac:	021b0801 	andseq	r0, fp, #65536	@ 0x10000
     4b0:	7f060000 	svcvc	0x00060000
     4b4:	07000000 	streq	r0, [r0, -r0]
     4b8:	00008604 	andeq	r8, r0, r4, lsl #12
     4bc:	03a80800 			@ <UNDEFINED> instruction: 0x03a80800
     4c0:	16010000 	strne	r0, [r1], -r0
     4c4:	00047406 	andeq	r7, r4, r6, lsl #8
     4c8:	00002c00 	andeq	r2, r0, r0, lsl #24
     4cc:	b69c0100 	ldrlt	r0, [ip], r0, lsl #2
     4d0:	02000000 	andeq	r0, r0, #0
     4d4:	00727470 	rsbseq	r7, r2, r0, ror r4
     4d8:	008b1e16 	addeq	r1, fp, r6, lsl lr
     4dc:	91020000 	mrsls	r0, (UNDEF: 2)
     4e0:	c0090074 	andgt	r0, r9, r4, ror r0
     4e4:	01000003 	tsteq	r0, r3
     4e8:	006a0510 	rsbeq	r0, sl, r0, lsl r5
     4ec:	04540000 	ldrbeq	r0, [r4], #-0
     4f0:	00200000 	eoreq	r0, r0, r0
     4f4:	9c010000 	stcls	0, cr0, [r1], {-0}
     4f8:	00686302 	rsbeq	r6, r8, r2, lsl #6
     4fc:	006a1610 	rsbeq	r1, sl, r0, lsl r6
     500:	91020000 	mrsls	r0, (UNDEF: 2)
     504:	a5000074 	strge	r0, [r0, #-116]	@ 0xffffff8c
     508:	0500001f 	streq	r0, [r0, #-31]	@ 0xffffffe1
     50c:	12040100 	andne	r0, r4, #0, 2
     510:	33000002 	movwcc	r0, #2
     514:	00000d5c 	andeq	r0, r0, ip, asr sp
     518:	000b691d 	andeq	r6, fp, sp, lsl r9
     51c:	000c3700 	andeq	r3, ip, r0, lsl #14
     520:	0004a000 	andeq	sl, r4, r0
     524:	000a6000 	andeq	r6, sl, r0
     528:	00028000 	andeq	r8, r2, r0
     52c:	07081000 	streq	r1, [r8, -r0]
     530:	000002e0 	andeq	r0, r0, r0, ror #5
     534:	ea070410 	b	1c157c <__ROM_SIZE+0x18157c>
     538:	10000002 	andne	r0, r0, r2
     53c:	02120801 	andseq	r0, r2, #65536	@ 0x10000
     540:	43080000 	movwmi	r0, #32768	@ 0x8000
     544:	0400000b 	streq	r0, [r0], #-11
     548:	002d1423 	eoreq	r1, sp, r3, lsr #8
     54c:	04340000 	ldrteq	r0, [r4], #-0
     550:	746e6905 	strbtvc	r6, [lr], #-2309	@ 0xfffff6fb
     554:	04470800 	strbeq	r0, [r7], #-2048	@ 0xfffff800
     558:	25040000 	strcs	r0, [r4, #-0]
     55c:	00002d14 	andeq	r2, r0, r4, lsl sp
     560:	755f3500 	ldrbvc	r3, [pc, #-1280]	@ 68 <__Vectors+0x68>
     564:	27040077 	smlsdxcs	r4, r7, r0, r0
     568:	00003b18 	andeq	r3, r0, r8, lsl fp
     56c:	005a2600 	subseq	r2, sl, r0, lsl #12
     570:	e4080000 	str	r0, [r8], #-0
     574:	0400000e 	streq	r0, [r0], #-14
     578:	00261428 	eoreq	r1, r6, r8, lsr #8
     57c:	8d080000 	stchi	0, cr0, [r8, #-0]
     580:	04000007 	streq	r0, [r0], #-7
     584:	00831429 	addeq	r1, r3, r9, lsr #8
     588:	02100000 	andseq	r0, r0, #0
     58c:	00029b07 	andeq	r9, r2, r7, lsl #22
     590:	0a720800 	beq	1c82598 <__ROM_SIZE+0x1c42598>
     594:	2a040000 	bcs	10059c <__ROM_SIZE+0xc059c>
     598:	00003414 	andeq	r3, r0, r4, lsl r4
     59c:	00341700 	eorseq	r1, r4, r0, lsl #14
     5a0:	cb2d0000 	blgt	b405a8 <__ROM_SIZE+0xb005a8>
     5a4:	07000000 	streq	r0, [r0, -r0]
     5a8:	00000760 	andeq	r0, r0, r0, ror #14
     5ac:	06f40700 	ldrbteq	r0, [r4], r0, lsl #14
     5b0:	07010000 	streq	r0, [r1, -r0]
     5b4:	0000095f 	andeq	r0, r0, pc, asr r9
     5b8:	07c50705 	strbeq	r0, [r5, r5, lsl #14]
     5bc:	07060000 	streq	r0, [r6, -r0]
     5c0:	0000041d 	andeq	r0, r0, sp, lsl r4
     5c4:	0d470707 	stcleq	7, cr0, [r7, #-28]	@ 0xffffffe4
     5c8:	07080000 	streq	r0, [r8, -r0]
     5cc:	00000649 	andeq	r0, r0, r9, asr #12
     5d0:	a9080009 	stmdbge	r8, {r0, r3}
     5d4:	0400000a 	streq	r0, [r0], #-10
     5d8:	00960336 	addseq	r0, r6, r6, lsr r3
     5dc:	34170000 	ldrcc	r0, [r7], #-0
     5e0:	39000000 	stmdbcc	r0, {}	@ <UNPREDICTABLE>
     5e4:	00000106 	andeq	r0, r0, r6, lsl #2
     5e8:	000b2a07 	andeq	r2, fp, r7, lsl #20
     5ec:	ea070000 	b	1c05f4 <__ROM_SIZE+0x1805f4>
     5f0:	01000005 	tsteq	r0, r5
     5f4:	0004a007 	andeq	sl, r4, r7
     5f8:	e1070200 	mrs	r0, (UNDEF: 39)
     5fc:	03000008 	movweq	r0, #8
     600:	0006be07 	andeq	fp, r6, r7, lsl #28
     604:	84070800 	strhi	r0, [r7], #-2048	@ 0xfffff800
     608:	10000009 	andne	r0, r0, r9
     60c:	0cf70800 	ldcleq	8, cr0, [r7]
     610:	41040000 	mrsmi	r0, (UNDEF: 4)
     614:	0000d703 	andeq	sp, r0, r3, lsl #14
     618:	08c40800 	stmiaeq	r4, {fp}^
     61c:	44040000 	strmi	r0, [r4], #-0
     620:	0000470f 	andeq	r4, r0, pc, lsl #14
     624:	073e0800 	ldreq	r0, [lr, -r0, lsl #16]!
     628:	4c040000 	stcmi	0, cr0, [r4], {-0}
     62c:	00012a28 	andeq	r2, r1, r8, lsr #20
     630:	073e1100 	ldreq	r1, [lr, -r0, lsl #2]!
     634:	04580000 	ldrbeq	r0, [r8], #-0
     638:	01860a53 	orreq	r0, r6, r3, asr sl
     63c:	4c040000 	stcmi	0, cr0, [r4], {-0}
     640:	04000008 	streq	r0, [r0], #-8
     644:	028b0c55 	addeq	r0, fp, #21760	@ 0x5500
     648:	04000000 	streq	r0, [r0], #-0
     64c:	0000047a 	andeq	r0, r0, sl, ror r4
     650:	b70e5604 	strlt	r5, [lr, -r4, lsl #12]
     654:	08000002 	stmdaeq	r0, {r1}
     658:	000a0204 	andeq	r0, sl, r4, lsl #4
     65c:	07600400 	strbeq	r0, [r0, -r0, lsl #8]!
     660:	000001a3 	andeq	r0, r0, r3, lsr #3
     664:	063b040c 	ldrteq	r0, [fp], -ip, lsl #8
     668:	67040000 	strvs	r0, [r4, -r0]
     66c:	0001ee07 	andeq	lr, r1, r7, lsl #28
     670:	39042000 	stmdbcc	r4, {sp}
     674:	04000009 	streq	r0, [r0], #-9
     678:	0221076d 	eoreq	r0, r1, #28573696	@ 0x1b40000
     67c:	04380000 	ldrteq	r0, [r8], #-0
     680:	0000076d 	andeq	r0, r0, sp, ror #14
     684:	48077604 	stmdami	r7, {r2, r9, sl, ip, sp, lr}
     688:	48000002 	stmdami	r0, {r1}
     68c:	04320800 	ldrteq	r0, [r2], #-2048	@ 0xfffff800
     690:	4d040000 	stcmi	0, cr0, [r4, #-0]
     694:	00019222 	andeq	r9, r1, r2, lsr #4
     698:	04322900 	ldrteq	r2, [r2], #-2304	@ 0xfffff700
     69c:	bc080000 	stclt	0, cr0, [r8], {-0}
     6a0:	04000005 	streq	r0, [r0], #-5
     6a4:	005a0f4e 	subseq	r0, sl, lr, asr #30
     6a8:	14120000 	ldrne	r0, [r2], #-0
     6ac:	ee075804 	cdp	8, 0, cr5, cr7, cr4, {0}
     6b0:	04000001 	streq	r0, [r0], #-1
     6b4:	00000e4e 	andeq	r0, r0, lr, asr #28
     6b8:	5a085a04 	bpl	216ed0 <__ROM_SIZE+0x1d6ed0>
     6bc:	00000000 	andeq	r0, r0, r0
     6c0:	000e5804 	andeq	r5, lr, r4, lsl #16
     6c4:	085b0400 	ldmdaeq	fp, {sl}^
     6c8:	0000005a 	andeq	r0, r0, sl, asr r0
     6cc:	0e620404 	cdpeq	4, 6, cr0, cr2, cr4, {0}
     6d0:	5c040000 	stcpl	0, cr0, [r4], {-0}
     6d4:	00005a08 	andeq	r5, r0, r8, lsl #20
     6d8:	6c040800 	stcvs	8, cr0, [r4], {-0}
     6dc:	0400000e 	streq	r0, [r0], #-14
     6e0:	005a085d 	subseq	r0, sl, sp, asr r8
     6e4:	040c0000 	streq	r0, [ip], #-0
     6e8:	00000e76 	andeq	r0, r0, r6, ror lr
     6ec:	5a085e04 	bpl	217f04 <__ROM_SIZE+0x1d7f04>
     6f0:	10000000 	andne	r0, r0, r0
     6f4:	04181200 	ldreq	r1, [r8], #-512	@ 0xfffffe00
     6f8:	02110762 	andseq	r0, r1, #25690112	@ 0x1880000
     6fc:	730e0000 	movwvc	r0, #57344	@ 0xe000
     700:	64040070 	strvs	r0, [r4], #-112	@ 0xffffff90
     704:	00005a08 	andeq	r5, r0, r8, lsl #20
     708:	e9040000 	stmdb	r4, {}	@ <UNPREDICTABLE>
     70c:	04000003 	streq	r0, [r0], #-3
     710:	02110865 	andseq	r0, r1, #6619136	@ 0x650000
     714:	00040000 	andeq	r0, r4, r0
     718:	00005a18 	andeq	r5, r0, r8, lsl sl
     71c:	00022100 	andeq	r2, r2, r0, lsl #2
     720:	002d1900 	eoreq	r1, sp, r0, lsl #18
     724:	00040000 	andeq	r0, r4, r0
     728:	69041012 	stmdbvs	r4, {r1, r4, ip}
     72c:	00023807 	andeq	r3, r2, r7, lsl #16
     730:	03e90400 	mvneq	r0, #0, 8
     734:	6b040000 	blvs	10073c <__ROM_SIZE+0xc073c>
     738:	00023808 	andeq	r3, r2, r8, lsl #16
     73c:	18000000 	stmdane	r0, {}	@ <UNPREDICTABLE>
     740:	0000005a 	andeq	r0, r0, sl, asr r0
     744:	00000248 	andeq	r0, r0, r8, asr #4
     748:	00002d19 	andeq	r2, r0, r9, lsl sp
     74c:	12000300 	andne	r0, r0, #0, 6
     750:	076f0410 			@ <UNDEFINED> instruction: 0x076f0410
     754:	00000286 	andeq	r0, r0, r6, lsl #5
     758:	00079304 	andeq	r9, r7, r4, lsl #6
     75c:	08710400 	ldmdaeq	r1!, {sl}^
     760:	0000005a 	andeq	r0, r0, sl, asr r0
     764:	04420400 	strbeq	r0, [r2], #-1024	@ 0xfffffc00
     768:	72040000 	andvc	r0, r4, #0
     76c:	00028618 	andeq	r8, r2, r8, lsl r6
     770:	cd040400 	cfstrsgt	mvf0, [r4, #-0]
     774:	0400000b 	streq	r0, [r0], #-11
     778:	005a0873 	subseq	r0, sl, r3, ror r8
     77c:	04080000 	streq	r0, [r8], #-0
     780:	00000e4e 	andeq	r0, r0, lr, asr #28
     784:	5a087404 	bpl	21d79c <__ROM_SIZE+0x1dd79c>
     788:	0c000000 	stceq	0, cr0, [r0], {-0}
     78c:	01970900 	orrseq	r0, r7, r0, lsl #18
     790:	9b180000 	blls	600798 <__ROM_SIZE+0x5c0798>
     794:	9b000002 	blls	7a4 <__gnu_Unwind_RaiseException+0x40>
     798:	19000002 	stmdbne	r0, {r1}
     79c:	0000002d 	andeq	r0, r0, sp, lsr #32
     7a0:	01100007 	tsteq	r0, r7
     7a4:	00021b08 	andeq	r1, r2, r8, lsl #22
     7a8:	02b23600 	adcseq	r3, r2, #0, 12
     7ac:	cb050000 	blgt	1407b4 <__ROM_SIZE+0x1007b4>
     7b0:	05000000 	streq	r0, [r0, #-0]
     7b4:	000002b2 			@ <UNDEFINED> instruction: 0x000002b2
     7b8:	011e0900 	tsteq	lr, r0, lsl #18
     7bc:	a2090000 	andge	r0, r9, #0
     7c0:	17000002 	strne	r0, [r0, -r2]
     7c4:	00000034 	andeq	r0, r0, r4, lsr r0
     7c8:	0002eb7d 	andeq	lr, r2, sp, ror fp
     7cc:	09cf0700 	stmibeq	pc, {r8, r9, sl}^	@ <UNPREDICTABLE>
     7d0:	07000000 	streq	r0, [r0, -r0]
     7d4:	00000776 	andeq	r0, r0, r6, ror r7
     7d8:	09ae0701 	stmibeq	lr!, {r0, r8, r9, sl}
     7dc:	07020000 	streq	r0, [r2, -r0]
     7e0:	00000947 	andeq	r0, r0, r7, asr #18
     7e4:	0a970703 	beq	fe5c23f8 <__StackTop+0xde5b23f8>
     7e8:	07040000 	streq	r0, [r4, -r0]
     7ec:	00000a8c 	andeq	r0, r0, ip, lsl #21
     7f0:	fc080005 	stc2	0, cr0, [r8], {5}
     7f4:	04000007 	streq	r0, [r0], #-7
     7f8:	02bc0385 	adcseq	r0, ip, #335544322	@ 0x14000002
     7fc:	34170000 	ldrcc	r0, [r7], #-0
     800:	88000000 	stmdahi	r0, {}	@ <UNPREDICTABLE>
     804:	00000326 	andeq	r0, r0, r6, lsr #6
     808:	000e1d07 	andeq	r1, lr, r7, lsl #26
     80c:	21070000 	mrscs	r0, (UNDEF: 7)
     810:	0100000c 	tsteq	r0, ip
     814:	00078107 	andeq	r8, r7, r7, lsl #2
     818:	80070200 	andhi	r0, r7, r0, lsl #4
     81c:	0300000e 	movweq	r0, #14
     820:	00056f07 	andeq	r6, r5, r7, lsl #30
     824:	27070400 	strcs	r0, [r7, -r0, lsl #8]
     828:	05000007 	streq	r0, [r0, #-7]
     82c:	07d80800 	ldrbeq	r0, [r8, r0, lsl #16]
     830:	90040000 	andls	r0, r4, r0
     834:	0002f703 	andeq	pc, r2, r3, lsl #14
     838:	00341700 	eorseq	r1, r4, r0, lsl #14
     83c:	4f930000 	svcmi	0x00930000
     840:	07000003 	streq	r0, [r0, -r3]
     844:	00000c2d 	andeq	r0, r0, sp, lsr #24
     848:	08350700 	ldmdaeq	r5!, {r8, r9, sl}
     84c:	07010000 	streq	r0, [r1, -r0]
     850:	00000e8e 	andeq	r0, r0, lr, lsl #29
     854:	5c080002 	stcpl	0, cr0, [r8], {2}
     858:	04000008 	streq	r0, [r0], #-8
     85c:	03320398 	teqeq	r2, #152, 6	@ 0x60000002
     860:	0c120000 	ldceq	0, cr0, [r2], {-0}
     864:	990b9b04 	stmdbls	fp, {r2, r8, r9, fp, ip, pc}
     868:	04000003 	streq	r0, [r0], #-3
     86c:	000007f7 	strdeq	r0, [r0], -r7
     870:	5a0b9e04 	bpl	2e8088 <__ROM_SIZE+0x2a8088>
     874:	00000000 	andeq	r0, r0, r0
     878:	00055b04 	andeq	r5, r5, r4, lsl #22
     87c:	0ca00400 	cfstrseq	mvf0, [r0]
     880:	00000399 	muleq	r0, r9, r3
     884:	09540404 	ldmdbeq	r4, {r2, sl}^
     888:	a2040000 	andge	r0, r4, #0
     88c:	00008a0c 	andeq	r8, r0, ip, lsl #20
     890:	95040800 	strls	r0, [r4, #-2048]	@ 0xfffff800
     894:	04000009 	streq	r0, [r0], #-9
     898:	008a0ca4 	addeq	r0, sl, r4, lsr #25
     89c:	00090000 	andeq	r0, r9, r0
     8a0:	00005a09 	andeq	r5, r0, r9, lsl #20
     8a4:	0f210800 	svceq	0x00210800
     8a8:	a6040000 	strge	r0, [r4], -r0
     8ac:	00035b03 	andeq	r5, r3, r3, lsl #22
     8b0:	05940800 	ldreq	r0, [r4, #2048]	@ 0x800
     8b4:	a8040000 	stmdage	r4, {}	@ <UNPREDICTABLE>
     8b8:	0003b621 	andeq	fp, r3, r1, lsr #12
     8bc:	03bb0900 			@ <UNDEFINED> instruction: 0x03bb0900
     8c0:	cb270000 	blgt	9c08c8 <__ROM_SIZE+0x9808c8>
     8c4:	d4000000 	strle	r0, [r0], #-0
     8c8:	05000003 	streq	r0, [r0, #-3]
     8cc:	00000106 	andeq	r0, r0, r6, lsl #2
     8d0:	0002b205 	andeq	fp, r2, r5, lsl #4
     8d4:	03d40500 	bicseq	r0, r4, #0, 10
     8d8:	09000000 	stmdbeq	r0, {}	@ <UNPREDICTABLE>
     8dc:	00000186 	andeq	r0, r0, r6, lsl #3
     8e0:	00045308 	andeq	r5, r4, r8, lsl #6
     8e4:	21c70400 	biccs	r0, r7, r0, lsl #8
     8e8:	000003e5 	andeq	r0, r0, r5, ror #7
     8ec:	0003ea09 	andeq	lr, r3, r9, lsl #20
     8f0:	00cb2700 	sbceq	r2, fp, r0, lsl #14
     8f4:	04120000 	ldreq	r0, [r2], #-0
     8f8:	47050000 	strmi	r0, [r5, -r0]
     8fc:	05000000 	streq	r0, [r0, #-0]
     900:	00000112 	andeq	r0, r0, r2, lsl r1
     904:	00041205 	andeq	r1, r4, r5, lsl #4
     908:	02b20500 	adcseq	r0, r2, #0, 10
     90c:	17050000 	strne	r0, [r5, -r0]
     910:	05000004 	streq	r0, [r0, #-4]
     914:	0000041c 	andeq	r0, r0, ip, lsl r4
     918:	029b0900 	addseq	r0, fp, #0, 18
     91c:	92090000 	andls	r0, r9, #0
     920:	37000001 	strcc	r0, [r0, -r1]
     924:	0ac40804 	beq	ff10293c <__StackTop+0xdf0f293c>
     928:	cf040000 	svcgt	0x00040000
     92c:	00042a21 	andeq	r2, r4, r1, lsr #20
     930:	042f0900 	strteq	r0, [pc], #-2304	@ 938 <__gnu_Unwind_Backtrace+0x58>
     934:	cb270000 	blgt	9c093c <__ROM_SIZE+0x98093c>
     938:	43000000 	movwmi	r0, #0
     93c:	05000004 	streq	r0, [r0, #-4]
     940:	000003d4 	ldrdeq	r0, [r0], -r4
     944:	00041c05 	andeq	r1, r4, r5, lsl #24
     948:	04100000 	ldreq	r0, [r0], #-0
     94c:	00034d05 	andeq	r4, r3, r5, lsl #26
     950:	07041000 	streq	r1, [r4, -r0]
     954:	000002e5 	andeq	r0, r0, r5, ror #5
     958:	000f7f11 	andeq	r7, pc, r1, lsl pc	@ <UNPREDICTABLE>
     95c:	25014000 	strcs	r4, [r1, #-0]
     960:	00046a08 	andeq	r6, r4, r8, lsl #20
     964:	00720e00 	rsbseq	r0, r2, r0, lsl #28
     968:	6a072701 	bvs	1ca574 <__ROM_SIZE+0x18a574>
     96c:	00000004 	andeq	r0, r0, r4
     970:	005a1800 	subseq	r1, sl, r0, lsl #16
     974:	047a0000 	ldrbteq	r0, [sl], #-0
     978:	2d190000 	ldccs	0, cr0, [r9, #-0]
     97c:	0f000000 	svceq	0x00000000
     980:	0c9e1100 	ldfeqs	f1, [lr], {0}
     984:	01880000 	orreq	r0, r8, r0
     988:	04a0082c 	strteq	r0, [r0], #2092	@ 0x82c
     98c:	640e0000 	strvs	r0, [lr], #-0
     990:	092e0100 	stmdbeq	lr!, {r8}
     994:	000004a0 	andeq	r0, r0, r0, lsr #9
     998:	61700e00 	cmnvs	r0, r0, lsl #28
     99c:	2f010064 	svccs	0x00010064
     9a0:	00005a07 	andeq	r5, r0, r7, lsl #20
     9a4:	18008000 	stmdane	r0, {pc}
     9a8:	0000006b 	andeq	r0, r0, fp, rrx
     9ac:	000004b0 			@ <UNDEFINED> instruction: 0x000004b0
     9b0:	00002d19 	andeq	r2, r0, r9, lsl sp
     9b4:	11000f00 	tstne	r0, r0, lsl #30
     9b8:	000004f7 	strdeq	r0, [r0], -r7
     9bc:	08320180 	ldmdaeq	r2!, {r7, r8}
     9c0:	000004c9 	andeq	r0, r0, r9, asr #9
     9c4:	0100640e 	tsteq	r0, lr, lsl #8
     9c8:	04a00936 	strteq	r0, [r0], #2358	@ 0x936
     9cc:	00000000 	andeq	r0, r0, r0
     9d0:	0007ac11 	andeq	sl, r7, r1, lsl ip
     9d4:	39018000 	stmdbcc	r1, {pc}
     9d8:	0004e308 	andeq	lr, r4, r8, lsl #6
     9dc:	64770e00 	ldrbtvs	r0, [r7], #-3584	@ 0xfffff200
     9e0:	093b0100 	ldmdbeq	fp!, {r8}
     9e4:	000004a0 	andeq	r0, r0, r0, lsr #9
     9e8:	a8110000 	ldmdage	r1, {}	@ <UNPREDICTABLE>
     9ec:	10000005 	andne	r0, r0, r5
     9f0:	fd083e01 	stc2	14, cr3, [r8, #-4]
     9f4:	0e000004 	cdpeq	0, 0, cr0, cr0, cr4, {0}
     9f8:	01006377 	tsteq	r0, r7, ror r3
     9fc:	02380740 	eorseq	r0, r8, #64, 14	@ 0x1000000
     a00:	00000000 	andeq	r0, r0, r0
     a04:	00089d11 	andeq	r9, r8, r1, lsl sp
     a08:	44010400 	strmi	r0, [r1], #-1024	@ 0xfffffc00
     a0c:	00051808 	andeq	r1, r5, r8, lsl #16
     a10:	61700e00 	cmnvs	r0, r0, lsl #28
     a14:	46010063 	strmi	r0, [r1], -r3, rrx
     a18:	00005a07 	andeq	r5, r0, r7, lsl #20
     a1c:	38000000 	stmdacc	r0, {}	@ <UNPREDICTABLE>
     a20:	520101e8 	andpl	r0, r1, #232, 2	@ 0x3a
     a24:	00058909 	andeq	r8, r5, r9, lsl #18
     a28:	0cd40400 	cfldrdeq	mvd0, [r4], {0}
     a2c:	55010000 	strpl	r0, [r1, #-0]
     a30:	00005a07 	andeq	r5, r0, r7, lsl #20
     a34:	a4040000 	strge	r0, [r4], #-0
     a38:	0100000a 	tsteq	r0, sl
     a3c:	04511456 	ldrbeq	r1, [r1], #-1110	@ 0xfffffbaa
     a40:	04040000 	streq	r0, [r4], #-0
     a44:	00000abd 			@ <UNDEFINED> instruction: 0x00000abd
     a48:	fd165901 	ldc2	9, cr5, [r6, #-2]	@ <UNPREDICTABLE>
     a4c:	44000004 	strmi	r0, [r0], #-4
     a50:	00041504 	andeq	r1, r4, r4, lsl #10
     a54:	075a0100 	ldrbeq	r0, [sl, -r0, lsl #2]
     a58:	0000005a 	andeq	r0, r0, sl, asr r0
     a5c:	66760e48 	ldrbtvs	r0, [r6], -r8, asr #28
     a60:	5b010070 	blpl	40c28 <__ROM_SIZE+0xc28>
     a64:	00047a13 	andeq	r7, r4, r3, lsl sl
     a68:	b2045000 	andlt	r5, r4, #0
     a6c:	0100000c 	tsteq	r0, ip
     a70:	04b0155c 	ldrteq	r1, [r0], #1372	@ 0x55c
     a74:	2ad80000 	bcs	ff600a7c <__StackTop+0xdf5f0a7c>
     a78:	000006a9 	andeq	r0, r0, r9, lsr #13
     a7c:	0004c95d 	andeq	ip, r4, sp, asr r9
     a80:	2a015800 	bcs	56a88 <__ROM_SIZE+0x16a88>
     a84:	0000068c 	andeq	r0, r0, ip, lsl #13
     a88:	0004e35e 	andeq	lr, r4, lr, asr r3
     a8c:	0001d800 	andeq	sp, r1, r0, lsl #16
     a90:	00066a08 	andeq	r6, r6, r8, lsl #20
     a94:	035f0100 	cmpeq	pc, #0, 2
     a98:	00000518 	andeq	r0, r0, r8, lsl r5
     a9c:	6b014812 	blvs	52aec <__ROM_SIZE+0x12aec>
     aa0:	0005c609 	andeq	ip, r5, r9, lsl #12
     aa4:	0cd40400 	cfldrdeq	mvd0, [r4], {0}
     aa8:	6d010000 	stcvs	0, cr0, [r1, #-0]
     aac:	00005a07 	andeq	r5, r0, r7, lsl #20
     ab0:	a4040000 	strge	r0, [r4], #-0
     ab4:	0100000a 	tsteq	r0, sl
     ab8:	0451146e 	ldrbeq	r1, [r1], #-1134	@ 0xfffffb92
     abc:	0e040000 	cdpeq	0, 0, cr0, cr4, cr0, {0}
     ac0:	00636170 	rsbeq	r6, r3, r0, ror r1
     ac4:	fd166f01 	ldc2	15, cr6, [r6, #-4]
     ac8:	44000004 	strmi	r0, [r0], #-4
     acc:	0cc40800 	stcleq	8, cr0, [r4], {0}
     ad0:	70010000 	andvc	r0, r1, r0
     ad4:	00059503 	andeq	r9, r5, r3, lsl #10
     ad8:	05081000 	streq	r1, [r8, #-0]
     adc:	00000348 	andeq	r0, r0, r8, asr #6
     ae0:	d4040810 	strle	r0, [r4], #-2064	@ 0xfffff7f0
     ae4:	09000003 	stmdbeq	r0, {r0, r1}
     ae8:	0000041c 	andeq	r0, r0, ip, lsl r4
     aec:	00088708 	andeq	r8, r8, r8, lsl #14
     af0:	17370200 	ldrne	r0, [r7, -r0, lsl #4]!
     af4:	00000034 	andeq	r0, r0, r4, lsr r0
     af8:	000e4408 	andeq	r4, lr, r8, lsl #8
     afc:	1f390200 	svcne	0x00390200
     b00:	00000602 	andeq	r0, r0, r2, lsl #12
     b04:	0005f126 	andeq	pc, r5, r6, lsr #2
     b08:	0e3f2900 	vaddeq.f16	s4, s30, s0	@ <UNPREDICTABLE>
     b0c:	6f390000 	svcvs	0x00390000
     b10:	07000008 	streq	r0, [r0, -r8]
     b14:	00003401 	andeq	r3, r0, r1, lsl #8
     b18:	063a0200 	ldrteq	r0, [sl], -r0, lsl #4
     b1c:	0000062c 	andeq	r0, r0, ip, lsr #12
     b20:	000e0507 	andeq	r0, lr, r7, lsl #10
     b24:	7c070000 	stcvc	0, cr0, [r7], {-0}
     b28:	01000005 	tsteq	r0, r5
     b2c:	00061c07 	andeq	r1, r6, r7, lsl #24
     b30:	12000200 	andne	r0, r0, #0, 4
     b34:	09550204 	ldmdbeq	r5, {r2, r9}^
     b38:	00000650 	andeq	r0, r0, r0, asr r6
     b3c:	000b9a04 	andeq	r9, fp, r4, lsl #20
     b40:	09570200 	ldmdbeq	r7, {r9}^
     b44:	00000077 	andeq	r0, r0, r7, ror r0
     b48:	0f360400 	svceq	0x00360400
     b4c:	58020000 	stmdapl	r2, {}	@ <UNPREDICTABLE>
     b50:	00007709 	andeq	r7, r0, r9, lsl #14
     b54:	08000200 	stmdaeq	r0, {r9}
     b58:	000006ee 	andeq	r0, r0, lr, ror #13
     b5c:	2c035902 			@ <UNDEFINED> instruction: 0x2c035902
     b60:	12000006 	andne	r0, r0, #6
     b64:	095b0208 	ldmdbeq	fp, {r3, r9}^
     b68:	00000680 	andeq	r0, r0, r0, lsl #13
     b6c:	000b9a04 	andeq	r9, fp, r4, lsl #20
     b70:	075d0200 	ldrbeq	r0, [sp, -r0, lsl #4]
     b74:	0000005a 	andeq	r0, r0, sl, asr r0
     b78:	0f360400 	svceq	0x00360400
     b7c:	5e020000 	cdppl	0, 0, cr0, cr2, cr0, {0}
     b80:	00005a07 	andeq	r5, r0, r7, lsl #20
     b84:	08000400 	stmdaeq	r0, {sl}
     b88:	00000918 	andeq	r0, r0, r8, lsl r9
     b8c:	5c035f02 	stcpl	15, cr5, [r3], {2}
     b90:	11000006 	tstne	r0, r6
     b94:	0000092d 	andeq	r0, r0, sp, lsr #18
     b98:	10630208 	rsbne	r0, r3, r8, lsl #4
     b9c:	000006b4 			@ <UNDEFINED> instruction: 0x000006b4
     ba0:	000f3404 	andeq	r3, pc, r4, lsl #8
     ba4:	07650200 	strbeq	r0, [r5, -r0, lsl #4]!
     ba8:	0000005a 	andeq	r0, r0, sl, asr r0
     bac:	091e0400 	ldmdbeq	lr, {sl}
     bb0:	66020000 	strvs	r0, [r2], -r0
     bb4:	00005a07 	andeq	r5, r0, r7, lsl #20
     bb8:	08000400 	stmdaeq	r0, {sl}
     bbc:	0000092d 	andeq	r0, r0, sp, lsr #18
     bc0:	8c036702 	stchi	7, cr6, [r3], {2}
     bc4:	26000006 	strcs	r0, [r0], -r6
     bc8:	000006b4 			@ <UNDEFINED> instruction: 0x000006b4
     bcc:	000bb52b 	andeq	fp, fp, fp, lsr #10
     bd0:	06b48300 	ldrteq	r8, [r4], r0, lsl #6
     bd4:	a62b0000 	strtge	r0, [fp], -r0
     bd8:	8400000e 	strhi	r0, [r0], #-14
     bdc:	000006b4 			@ <UNDEFINED> instruction: 0x000006b4
     be0:	000bf40c 	andeq	pc, fp, ip, lsl #8
     be4:	1c410200 	sfmne	f0, 2, [r1], {-0}
     be8:	000006eb 	andeq	r0, r0, fp, ror #13
     bec:	0002b205 	andeq	fp, r2, r5, lsl #4
     bf0:	de200000 	cdple	0, 2, cr0, cr0, cr0, {0}
     bf4:	04000004 	streq	r0, [r0], #-4
     bf8:	00cb17d9 	ldrdeq	r1, [fp], #121	@ 0x79
     bfc:	07060000 	streq	r0, [r6, -r0]
     c00:	d4050000 	strle	r0, [r5], #-0
     c04:	05000003 	streq	r0, [r0, #-3]
     c08:	00000706 	andeq	r0, r0, r6, lsl #14
     c0c:	039e0900 	orrseq	r0, lr, #0, 18
     c10:	e6200000 	strt	r0, [r0], -r0
     c14:	0200000c 	andeq	r0, r0, #12
     c18:	06073443 	streq	r3, [r7], -r3, asr #8
     c1c:	07300000 	ldreq	r0, [r0, -r0]!
     c20:	b2050000 	andlt	r0, r5, #0
     c24:	05000002 	streq	r0, [r0, #-2]
     c28:	00000730 	andeq	r0, r0, r0, lsr r7
     c2c:	0005e505 	andeq	lr, r5, r5, lsl #10
     c30:	05e00500 	strbeq	r0, [r0, #1280]!	@ 0x500
     c34:	09000000 	stmdbeq	r0, {}	@ <UNPREDICTABLE>
     c38:	000005fd 	strdeq	r0, [r0], -sp
     c3c:	00048c20 	andeq	r8, r4, r0, lsr #24
     c40:	1c420200 	sfmne	f0, 2, [r2], {-0}
     c44:	000005e5 	andeq	r0, r0, r5, ror #11
     c48:	0000074b 	andeq	r0, r0, fp, asr #14
     c4c:	0002b205 	andeq	fp, r2, r5, lsl #4
     c50:	040c0000 	streq	r0, [ip], #-0
     c54:	01000006 	tsteq	r0, r6
     c58:	075d0679 			@ <UNDEFINED> instruction: 0x075d0679
     c5c:	5d050000 	stcpl	0, cr0, [r5, #-0]
     c60:	00000007 	andeq	r0, r0, r7
     c64:	0004e309 	andeq	lr, r4, r9, lsl #6
     c68:	0d130c00 	ldceq	12, cr0, [r3, #-0]
     c6c:	77010000 	strvc	r0, [r1, -r0]
     c70:	00077406 	andeq	r7, r7, r6, lsl #8
     c74:	07740500 	ldrbeq	r0, [r4, -r0, lsl #10]!
     c78:	09000000 	stmdbeq	r0, {}	@ <UNPREDICTABLE>
     c7c:	000004c9 	andeq	r0, r0, r9, asr #9
     c80:	000b090c 	andeq	r0, fp, ip, lsl #18
     c84:	06820100 	streq	r0, [r2], r0, lsl #2
     c88:	0000078b 	andeq	r0, r0, fp, lsl #15
     c8c:	00078b05 	andeq	r8, r7, r5, lsl #22
     c90:	b0090000 	andlt	r0, r9, r0
     c94:	0c000004 	stceq	0, cr0, [r0], {4}
     c98:	000005cf 	andeq	r0, r0, pc, asr #11
     c9c:	a2067501 	andge	r7, r6, #4194304	@ 0x400000
     ca0:	05000007 	streq	r0, [r0, #-7]
     ca4:	000007a2 	andeq	r0, r0, r2, lsr #15
     ca8:	047a0900 	ldrbteq	r0, [sl], #-2304	@ 0xfffff700
     cac:	f10c0000 	cpsid	
     cb0:	0100000a 	tsteq	r0, sl
     cb4:	07b9067d 			@ <UNDEFINED> instruction: 0x07b9067d
     cb8:	a2050000 	andge	r0, r5, #0
     cbc:	00000007 	andeq	r0, r0, r7
     cc0:	000f773a 	andeq	r7, pc, sl, lsr r7	@ <UNPREDICTABLE>
     cc4:	20760200 	rsbscs	r0, r6, r0, lsl #4
     cc8:	000007cb 	andeq	r0, r0, fp, asr #15
     ccc:	0007cb05 	andeq	ip, r7, r5, lsl #22
     cd0:	51090000 	mrspl	r0, (UNDEF: 9)
     cd4:	0c000004 	stceq	0, cr0, [r0], {4}
     cd8:	000008a9 	andeq	r0, r0, r9, lsr #17
     cdc:	e2067a01 	and	r7, r6, #4096	@ 0x1000
     ce0:	05000007 	streq	r0, [r0, #-7]
     ce4:	0000075d 	andeq	r0, r0, sp, asr r7
     ce8:	0a570c00 	beq	15c3cf0 <__ROM_SIZE+0x1583cf0>
     cec:	78010000 	stmdavc	r1, {}	@ <UNPREDICTABLE>
     cf0:	0007f406 	andeq	pc, r7, r6, lsl #8
     cf4:	07740500 	ldrbeq	r0, [r4, -r0, lsl #10]!
     cf8:	0c000000 	stceq	0, cr0, [r0], {-0}
     cfc:	00000eb2 			@ <UNDEFINED> instruction: 0x00000eb2
     d00:	06068301 	streq	r8, [r6], -r1, lsl #6
     d04:	05000008 	streq	r0, [r0, #-8]
     d08:	0000078b 	andeq	r0, r0, fp, lsl #15
     d0c:	0b500c00 	bleq	1403d14 <__ROM_SIZE+0x13c3d14>
     d10:	76010000 	strvc	r0, [r1], -r0
     d14:	00081806 	andeq	r1, r8, r6, lsl #16
     d18:	07a20500 	streq	r0, [r2, r0, lsl #10]!
     d1c:	0c000000 	stceq	0, cr0, [r0], {-0}
     d20:	00000eea 	andeq	r0, r0, sl, ror #29
     d24:	2a067e01 	bcs	1a0530 <__ROM_SIZE+0x160530>
     d28:	05000008 	streq	r0, [r0, #-8]
     d2c:	000007a2 	andeq	r0, r0, r2, lsr #15
     d30:	0a112000 	beq	448d38 <__ROM_SIZE+0x408d38>
     d34:	48020000 	stmdami	r2, {}	@ <UNPREDICTABLE>
     d38:	00004e01 	andeq	r4, r0, r1, lsl #28
     d3c:	00084500 	andeq	r4, r8, r0, lsl #10
     d40:	004e0500 	subeq	r0, lr, r0, lsl #10
     d44:	45050000 	strmi	r0, [r5, #-0]
     d48:	00000008 	andeq	r0, r0, r8
     d4c:	00004709 	andeq	r4, r0, r9, lsl #14
     d50:	06921300 	ldreq	r1, [r2], r0, lsl #6
     d54:	17010000 	strne	r0, [r1, -r0]
     d58:	0000cb02 	andeq	ip, r0, r2, lsl #22
     d5c:	000c1000 	andeq	r1, ip, r0
     d60:	00000400 	andeq	r0, r0, r0, lsl #8
     d64:	da9c0100 	ble	fe70116c <__StackTop+0xde6f116c>
     d68:	06000008 	streq	r0, [r0], -r8
     d6c:	00000f2e 	andeq	r0, r0, lr, lsr #30
     d70:	27021701 	strcs	r1, [r2, -r1, lsl #14]
     d74:	00000106 	andeq	r0, r0, r6, lsl #2
     d78:	00000010 	andeq	r0, r0, r0, lsl r0
     d7c:	0000000c 	andeq	r0, r0, ip
     d80:	00051b06 	andeq	r1, r5, r6, lsl #22
     d84:	02180100 	andseq	r0, r8, #0, 2
     d88:	0002b21b 	andeq	fp, r2, fp, lsl r2
     d8c:	00002c00 	andeq	r2, r0, r0, lsl #24
     d90:	00002800 	andeq	r2, r0, r0, lsl #16
     d94:	10670600 	rsbne	r0, r7, r0, lsl #12
     d98:	19010000 	stmdbne	r1, {}	@ <UNPREDICTABLE>
     d9c:	03d41502 	bicseq	r1, r4, #8388608	@ 0x800000
     da0:	00480000 	subeq	r0, r8, r0
     da4:	00440000 	subeq	r0, r4, r0
     da8:	141a0000 	ldrne	r0, [sl], #-0
     dac:	9400000c 	strls	r0, [r0], #-12
     db0:	0100000f 	tsteq	r0, pc
     db4:	a3095001 	movwge	r5, #36865	@ 0x9001
     db8:	2600a503 	strcs	sl, [r0], -r3, lsl #10
     dbc:	00a834a8 	adceq	r3, r8, r8, lsr #9
     dc0:	09510101 	ldmdbeq	r1, {r0, r8}^
     dc4:	01a503a3 			@ <UNDEFINED> instruction: 0x01a503a3
     dc8:	a82da826 	stmdage	sp!, {r1, r2, r5, fp, sp, pc}
     dcc:	52010100 	andpl	r0, r1, #0, 2
     dd0:	a503a309 	strge	sl, [r3, #-777]	@ 0xfffffcf7
     dd4:	2da82602 	stccs	6, cr2, [r8, #8]!
     dd8:	010100a8 	smlatbeq	r1, r8, r0, r0
     ddc:	00320153 	eorseq	r0, r2, r3, asr r1
     de0:	0c0a1300 	stceq	3, cr1, [sl], {-0}
     de4:	0f010000 	svceq	0x00010000
     de8:	0000cb02 	andeq	ip, r0, r2, lsl #22
     dec:	000c0c00 	andeq	r0, ip, r0, lsl #24
     df0:	00000400 	andeq	r0, r0, r0, lsl #8
     df4:	6a9c0100 	bvs	fe7011fc <__StackTop+0xde6f11fc>
     df8:	06000009 	streq	r0, [r0], -r9
     dfc:	00000f2e 	andeq	r0, r0, lr, lsr #30
     e00:	27020f01 	strcs	r0, [r2, -r1, lsl #30]
     e04:	00000106 	andeq	r0, r0, r6, lsl #2
     e08:	00000064 	andeq	r0, r0, r4, rrx
     e0c:	00000060 	andeq	r0, r0, r0, rrx
     e10:	00051b06 	andeq	r1, r5, r6, lsl #22
     e14:	02100100 	andseq	r0, r0, #0, 2
     e18:	0002b21b 	andeq	fp, r2, fp, lsl r2
     e1c:	00008000 	andeq	r8, r0, r0
     e20:	00007c00 	andeq	r7, r0, r0, lsl #24
     e24:	10670600 	rsbne	r0, r7, r0, lsl #12
     e28:	11010000 	mrsne	r0, (UNDEF: 1)
     e2c:	03d41502 	bicseq	r1, r4, #8388608	@ 0x800000
     e30:	009c0000 	addseq	r0, ip, r0
     e34:	00980000 	addseq	r0, r8, r0
     e38:	101a0000 	andsne	r0, sl, r0
     e3c:	9400000c 	strls	r0, [r0], #-12
     e40:	0100000f 	tsteq	r0, pc
     e44:	a3095001 	movwge	r5, #36865	@ 0x9001
     e48:	2600a503 	strcs	sl, [r0], -r3, lsl #10
     e4c:	00a834a8 	adceq	r3, r8, r8, lsr #9
     e50:	09510101 	ldmdbeq	r1, {r0, r8}^
     e54:	01a503a3 			@ <UNDEFINED> instruction: 0x01a503a3
     e58:	a82da826 	stmdage	sp!, {r1, r2, r5, fp, sp, pc}
     e5c:	52010100 	andpl	r0, r1, #0, 2
     e60:	a503a309 	strge	sl, [r3, #-777]	@ 0xfffffcf7
     e64:	2da82602 	stccs	6, cr2, [r8, #8]!
     e68:	010100a8 	smlatbeq	r1, r8, r0, r0
     e6c:	00310153 	eorseq	r0, r1, r3, asr r1
     e70:	06751300 	ldrbteq	r1, [r5], -r0, lsl #6
     e74:	07010000 	streq	r0, [r1, -r0]
     e78:	0000cb02 	andeq	ip, r0, r2, lsl #22
     e7c:	000c0800 	andeq	r0, ip, r0, lsl #16
     e80:	00000400 	andeq	r0, r0, r0, lsl #8
     e84:	fa9c0100 	blx	fe70128c <__StackTop+0xde6f128c>
     e88:	06000009 	streq	r0, [r0], -r9
     e8c:	00000f2e 	andeq	r0, r0, lr, lsr #30
     e90:	27020701 	strcs	r0, [r2, -r1, lsl #14]
     e94:	00000106 	andeq	r0, r0, r6, lsl #2
     e98:	000000b8 	strheq	r0, [r0], -r8
     e9c:	000000b4 	strheq	r0, [r0], -r4
     ea0:	00051b06 	andeq	r1, r5, r6, lsl #22
     ea4:	02080100 	andeq	r0, r8, #0, 2
     ea8:	0002b21b 	andeq	fp, r2, fp, lsl r2
     eac:	0000d400 	andeq	sp, r0, r0, lsl #8
     eb0:	0000d000 	andeq	sp, r0, r0
     eb4:	10670600 	rsbne	r0, r7, r0, lsl #12
     eb8:	09010000 	stmdbeq	r1, {}	@ <UNPREDICTABLE>
     ebc:	03d41502 	bicseq	r1, r4, #8388608	@ 0x800000
     ec0:	00f00000 	rscseq	r0, r0, r0
     ec4:	00ec0000 	rsceq	r0, ip, r0
     ec8:	0c1a0000 	ldceq	0, cr0, [sl], {-0}
     ecc:	9400000c 	strls	r0, [r0], #-12
     ed0:	0100000f 	tsteq	r0, pc
     ed4:	a3095001 	movwge	r5, #36865	@ 0x9001
     ed8:	2600a503 	strcs	sl, [r0], -r3, lsl #10
     edc:	00a834a8 	adceq	r3, r8, r8, lsr #9
     ee0:	09510101 	ldmdbeq	r1, {r0, r8}^
     ee4:	01a503a3 			@ <UNDEFINED> instruction: 0x01a503a3
     ee8:	a82da826 	stmdage	sp!, {r1, r2, r5, fp, sp, pc}
     eec:	52010100 	andpl	r0, r1, #0, 2
     ef0:	a503a309 	strge	sl, [r3, #-777]	@ 0xfffffcf7
     ef4:	2da82602 	stccs	6, cr2, [r8, #8]!
     ef8:	010100a8 	smlatbeq	r1, r8, r0, r0
     efc:	00300153 	eorseq	r0, r0, r3, asr r1
     f00:	05021b00 	streq	r1, [r2, #-2816]	@ 0xfffff500
     f04:	f2010000 	vhadd.s8	d0, d1, d0
     f08:	00005a01 	andeq	r5, r0, r1, lsl #20
     f0c:	00051800 	andeq	r1, r5, r0, lsl #16
     f10:	00002800 	andeq	r2, r0, r0, lsl #16
     f14:	2a9c0100 	bcs	fe70131c <__StackTop+0xde6f131c>
     f18:	1c00000a 	stcne	0, cr0, [r0], {10}
     f1c:	00786469 	rsbseq	r6, r8, r9, ror #8
     f20:	1f01f201 	svcne	0x0001f201
     f24:	00000047 	andeq	r0, r0, r7, asr #32
     f28:	00000114 	andeq	r0, r0, r4, lsl r1
     f2c:	00000108 	andeq	r0, r0, r8, lsl #2
     f30:	05301b00 	ldreq	r1, [r0, #-2816]!	@ 0xfffff500
     f34:	e3010000 	movw	r0, #4096	@ 0x1000
     f38:	00005a01 	andeq	r5, r0, r1, lsl #20
     f3c:	0004a000 	andeq	sl, r4, r0
     f40:	00001200 	andeq	r1, r0, r0, lsl #4
     f44:	6d9c0100 	ldfvss	f0, [ip]
     f48:	1c00000a 	stcne	0, cr0, [r0], {10}
     f4c:	e3010070 	movw	r0, #4208	@ 0x1070
     f50:	0a6d1e01 	beq	1b4875c <__ROM_SIZE+0x1b0875c>
     f54:	015d0000 	cmpeq	sp, r0
     f58:	01590000 	cmpeq	r9, r0
     f5c:	36030000 	strcc	r0, [r3], -r0
     f60:	0100000f 	tsteq	r0, pc
     f64:	5a0701e5 	bpl	1c1700 <__ROM_SIZE+0x181700>
     f68:	73000000 	movwvc	r0, #0
     f6c:	71000001 	tstvc	r0, r1
     f70:	00000001 	andeq	r0, r0, r1
     f74:	00006609 	andeq	r6, r0, r9, lsl #12
     f78:	04c42100 	strbeq	r2, [r4], #256	@ 0x100
     f7c:	16b30000 	ldrtne	r0, [r3], r0
     f80:	0000034f 	andeq	r0, r0, pc, asr #6
     f84:	00000c14 	andeq	r0, r0, r4, lsl ip
     f88:	000002ec 	andeq	r0, r0, ip, ror #5
     f8c:	0e819c01 	cdpeq	12, 8, cr9, cr1, cr1, {0}
     f90:	670b0000 	strvs	r0, [fp, -r0]
     f94:	01000010 	tsteq	r0, r0, lsl r0
     f98:	03d436eb 	bicseq	r3, r4, #246415360	@ 0xeb00000
     f9c:	01ad0000 			@ <UNDEFINED> instruction: 0x01ad0000
     fa0:	01790000 	cmneq	r9, r0
     fa4:	e00b0000 	and	r0, fp, r0
     fa8:	01000003 	tsteq	r0, r3
     fac:	02eb1eec 	rsceq	r1, fp, #236, 28	@ 0xec0
     fb0:	02900000 	addseq	r0, r0, #0
     fb4:	02640000 	rsbeq	r0, r4, #0
     fb8:	a70b0000 	strge	r0, [fp, -r0]
     fbc:	0100000b 	tsteq	r0, fp
     fc0:	005a0ded 	subseq	r0, sl, sp, ror #27
     fc4:	03a40000 			@ <UNDEFINED> instruction: 0x03a40000
     fc8:	038e0000 	orreq	r0, lr, #0
     fcc:	af0b0000 	svcge	0x000b0000
     fd0:	01000006 	tsteq	r0, r6
     fd4:	032628ee 			@ <UNDEFINED> instruction: 0x032628ee
     fd8:	044b0000 	strbeq	r0, [fp], #-0
     fdc:	041f0000 	ldreq	r0, [pc], #-0	@ fe4 <__gnu_Unwind_Save_WMMXC>
     fe0:	76150000 	ldrvc	r0, [r5], -r0
     fe4:	01007372 	tsteq	r0, r2, ror r3
     fe8:	0e810ff0 	mcreq	15, 4, r0, cr1, cr0, {7}
     fec:	057d0000 	ldrbeq	r0, [sp, #-0]!
     ff0:	05490000 	strbeq	r0, [r9, #-0]
     ff4:	d00d0000 	andle	r0, sp, r0
     ff8:	33000000 	movwcc	r0, #0
     ffc:	1500000b 	strne	r0, [r0, #-11]
    1000:	00727470 	rsbseq	r7, r2, r0, ror r4
    1004:	9907f601 	stmdbls	r7, {r0, r9, sl, ip, sp, lr, pc}
    1008:	3a000003 	bcc	101c <_Unwind_Resume>
    100c:	34000006 	strcc	r0, [r0], #-6
    1010:	1d000006 	stcne	0, cr0, [r0, #-24]	@ 0xffffffe8
    1014:	00000768 	andeq	r0, r0, r8, ror #14
    1018:	5a06f701 	bpl	1bec24 <__ROM_SIZE+0x17ec24>
    101c:	56000000 	strpl	r0, [r0], -r0
    1020:	52000006 	andpl	r0, r0, #6
    1024:	15000006 	strne	r0, [r0, #-6]
    1028:	f8010069 			@ <UNDEFINED> instruction: 0xf8010069
    102c:	00004706 	andeq	r4, r0, r6, lsl #14
    1030:	00066f00 	andeq	r6, r6, r0, lsl #30
    1034:	00066b00 	andeq	r6, r6, r0, lsl #22
    1038:	34220000 	strtcc	r0, [r2], #-0
    103c:	1000000c 	andne	r0, r0, ip
    1040:	56000000 	strpl	r0, [r0], -r0
    1044:	0f00000b 	svceq	0x0000000b
    1048:	00727470 	rsbseq	r7, r2, r0, ror r4
    104c:	07010d01 	streq	r0, [r1, -r1, lsl #26]
    1050:	00000399 	muleq	r0, r9, r3
    1054:	00000685 	andeq	r0, r0, r5, lsl #13
    1058:	0000067f 	andeq	r0, r0, pc, ror r6
    105c:	00db0d00 	sbcseq	r0, fp, r0, lsl #26
    1060:	0d620000 	stcleq	0, cr0, [r2, #-0]
    1064:	5a030000 	bpl	c106c <__ROM_SIZE+0x8106c>
    1068:	01000007 	tsteq	r0, r7
    106c:	5a060117 	bpl	1814d0 <__ROM_SIZE+0x1414d0>
    1070:	a5000000 	strge	r0, [r0, #-0]
    1074:	9d000006 	stcls	0, cr0, [r0, #-24]	@ 0xffffffe8
    1078:	03000006 	movweq	r0, #6
    107c:	00000aeb 	andeq	r0, r0, fp, ror #21
    1080:	06011801 	streq	r1, [r1], -r1, lsl #16
    1084:	0000005a 	andeq	r0, r0, sl, asr r0
    1088:	000006ca 	andeq	r0, r0, sl, asr #13
    108c:	000006c2 	andeq	r0, r0, r2, asr #13
    1090:	706d741e 	rsbvc	r7, sp, lr, lsl r4
    1094:	01190100 	tsteq	r9, r0, lsl #2
    1098:	00047a12 	andeq	r7, r4, r2, lsl sl
    109c:	e0910300 	adds	r0, r1, r0, lsl #6
    10a0:	0e10147e 	mrceq	4, 0, r1, cr0, cr14, {3}
    10a4:	1a010000 	bne	410ac <__ROM_SIZE+0x10ac>
    10a8:	04b01401 	ldrteq	r1, [r0], #1025	@ 0x401
    10ac:	91030000 	mrsls	r0, (UNDEF: 3)
    10b0:	8a037de0 	bhi	e0838 <__ROM_SIZE+0xa0838>
    10b4:	01000005 	tsteq	r0, r5
    10b8:	4706011b 	smladmi	r6, fp, r1, r0
    10bc:	35000000 	strcc	r0, [r0, #-0]
    10c0:	1b000007 	blne	10e4 <_Unwind_GetGR.constprop.0>
    10c4:	0f000007 	svceq	0x00000007
    10c8:	01007073 	tsteq	r0, r3, ror r0
    10cc:	9907011c 	stmdbls	r7, {r2, r3, r4, r8}
    10d0:	ea000003 	b	10e4 <_Unwind_GetGR.constprop.0>
    10d4:	c6000007 	strgt	r0, [r0], -r7
    10d8:	03000007 	movweq	r0, #7
    10dc:	00000971 	andeq	r0, r0, r1, ror r9
    10e0:	07011d01 	streq	r1, [r1, -r1, lsl #26]
    10e4:	00000399 	muleq	r0, r9, r3
    10e8:	0000087c 	andeq	r0, r0, ip, ror r8
    10ec:	00000870 	andeq	r0, r0, r0, ror r8
    10f0:	0004f303 	andeq	pc, r4, r3, lsl #6
    10f4:	011e0100 	tsteq	lr, r0, lsl #2
    10f8:	0000470d 	andeq	r4, r0, sp, lsl #14
    10fc:	0008b500 	andeq	fp, r8, r0, lsl #10
    1100:	0008ab00 	andeq	sl, r8, r0, lsl #22
    1104:	00f00d00 	rscseq	r0, r0, r0, lsl #26
    1108:	0c320000 	ldceq	0, cr0, [r2], #-0
    110c:	b8030000 	stmdalt	r3, {}	@ <UNPREDICTABLE>
    1110:	01000004 	tsteq	r0, r4
    1114:	47110170 			@ <UNDEFINED> instruction: 0x47110170
    1118:	f9000000 			@ <UNDEFINED> instruction: 0xf9000000
    111c:	eb000008 	bl	1144 <__gnu_unwind_execute+0x40>
    1120:	03000008 	movweq	r0, #8
    1124:	00000754 	andeq	r0, r0, r4, asr r7
    1128:	11017101 	tstne	r1, r1, lsl #2
    112c:	00000047 	andeq	r0, r0, r7, asr #32
    1130:	00000935 	andeq	r0, r0, r5, lsr r9
    1134:	00000931 	andeq	r0, r0, r1, lsr r9
    1138:	0cb60200 	lfmeq	f0, 4, [r6]
    113c:	07790000 	ldrbeq	r0, [r9, -r0]!
    1140:	0c460000 	mareq	acc0, r0, r6
    1144:	01010000 	mrseq	r0, (UNDEF: 1)
    1148:	00760250 	rsbseq	r0, r6, r0, asr r2
    114c:	0cf20200 	lfmeq	f0, 2, [r2]
    1150:	08180000 	ldmdaeq	r8, {}	@ <UNPREDICTABLE>
    1154:	0c5b0000 	mraeq	r0, fp, acc0
    1158:	01010000 	mrseq	r0, (UNDEF: 1)
    115c:	e0910350 	adds	r0, r1, r0, asr r3
    1160:	f802007e 			@ <UNDEFINED> instruction: 0xf802007e
    1164:	f400000c 	vst4.8	{d0-d3}, [r0], ip
    1168:	6f000007 	svcvs	0x00000007
    116c:	0100000c 	tsteq	r0, ip
    1170:	76025001 	strvc	r5, [r2], -r1
    1174:	b2020000 	andlt	r0, r2, #0
    1178:	9000000d 	andls	r0, r0, sp
    117c:	84000007 	strhi	r0, [r0], #-7
    1180:	0100000c 	tsteq	r0, ip
    1184:	75035001 	strvc	r5, [r3, #-1]
    1188:	020000d0 	andeq	r0, r0, #208	@ 0xd0
    118c:	00000dbe 			@ <UNDEFINED> instruction: 0x00000dbe
    1190:	00000790 	muleq	r0, r0, r7
    1194:	00000c98 	muleq	r0, r8, ip
    1198:	02500101 	subseq	r0, r0, #1073741824	@ 0x40000000
    119c:	02000076 	andeq	r0, r0, #118	@ 0x76
    11a0:	00000dd0 	ldrdeq	r0, [r0], -r0	@ <UNPREDICTABLE>
    11a4:	00000806 	andeq	r0, r0, r6, lsl #16
    11a8:	00000cac 	andeq	r0, r0, ip, lsr #25
    11ac:	02500101 	subseq	r0, r0, #1073741824	@ 0x40000000
    11b0:	02000076 	andeq	r0, r0, #118	@ 0x76
    11b4:	00000df4 	strdeq	r0, [r0], -r4
    11b8:	000007a7 	andeq	r0, r0, r7, lsr #15
    11bc:	00000cc1 	andeq	r0, r0, r1, asr #25
    11c0:	03500101 	cmpeq	r0, #1073741824	@ 0x40000000
    11c4:	0000d075 	andeq	sp, r0, r5, ror r0
    11c8:	000e0802 	andeq	r0, lr, r2, lsl #16
    11cc:	0007a700 	andeq	sl, r7, r0, lsl #14
    11d0:	000cd500 	andeq	sp, ip, r0, lsl #10
    11d4:	50010100 	andpl	r0, r1, r0, lsl #2
    11d8:	00007602 	andeq	r7, r0, r2, lsl #12
    11dc:	000e0e02 	andeq	r0, lr, r2, lsl #28
    11e0:	00077900 	andeq	r7, r7, r0, lsl #18
    11e4:	000cea00 	andeq	lr, ip, r0, lsl #20
    11e8:	50010100 	andpl	r0, r1, r0, lsl #2
    11ec:	7de09103 	stfvcp	f1, [r0, #12]!
    11f0:	0e6c0200 	cdpeq	2, 6, cr0, cr12, cr0, {0}
    11f4:	07a70000 	streq	r0, [r7, r0]!
    11f8:	0cff0000 	ldcleq	0, cr0, [pc]	@ 1200 <__gnu_unwind_execute+0xfc>
    11fc:	01010000 	mrseq	r0, (UNDEF: 1)
    1200:	d0750350 	rsbsle	r0, r5, r0, asr r3
    1204:	72020000 	andvc	r0, r2, #0
    1208:	a700000e 	strge	r0, [r0, -lr]
    120c:	13000007 	movwne	r0, #7
    1210:	0100000d 	tsteq	r0, sp
    1214:	76025001 	strvc	r5, [r2], -r1
    1218:	b8020000 	stmdalt	r2, {}	@ <UNPREDICTABLE>
    121c:	a700000e 	strge	r0, [r0, -lr]
    1220:	27000007 	strcs	r0, [r0, -r7]
    1224:	0100000d 	tsteq	r0, sp
    1228:	76025001 	strvc	r5, [r2], -r1
    122c:	c6020000 	strgt	r0, [r2], -r0
    1230:	1800000e 	stmdane	r0, {r1, r2, r3}
    1234:	3b000008 	blcc	125c <__gnu_unwind_execute+0x158>
    1238:	0100000d 	tsteq	r0, sp
    123c:	76025001 	strvc	r5, [r2], -r1
    1240:	dc020000 	stcle	0, cr0, [r2], {-0}
    1244:	7900000e 	stmdbvc	r0, {r1, r2, r3}
    1248:	50000007 	andpl	r0, r0, r7
    124c:	0100000d 	tsteq	r0, sp
    1250:	75035001 	strvc	r5, [r3, #-1]
    1254:	0a0001d8 	beq	19bc <__copy_table_end__+0x35c>
    1258:	00000eee 	andeq	r0, r0, lr, ror #29
    125c:	00000779 	andeq	r0, r0, r9, ror r7
    1260:	03500101 	cmpeq	r0, #1073741824	@ 0x40000000
    1264:	0001d875 	andeq	sp, r1, r5, ror r8
    1268:	01000d00 	tsteq	r0, r0, lsl #26
    126c:	0e090000 	cdpeq	0, 0, cr0, cr9, cr0, {0}
    1270:	5a030000 	bpl	c1278 <__ROM_SIZE+0x81278>
    1274:	01000007 	tsteq	r0, r7
    1278:	5a060191 	bpl	1818c4 <__ROM_SIZE+0x1418c4>
    127c:	5e000000 	cdppl	0, 0, cr0, cr0, cr0, {0}
    1280:	58000009 	stmdapl	r0, {r0, r3}
    1284:	03000009 	movweq	r0, #9
    1288:	00000aeb 	andeq	r0, r0, fp, ror #21
    128c:	06019201 	streq	r9, [r1], -r1, lsl #4
    1290:	0000005a 	andeq	r0, r0, sl, asr r0
    1294:	00000986 	andeq	r0, r0, r6, lsl #19
    1298:	00000978 	andeq	r0, r0, r8, ror r9
    129c:	706d741e 	rsbvc	r7, sp, lr, lsl r4
    12a0:	01930100 	orrseq	r0, r3, r0, lsl #2
    12a4:	0004c914 	andeq	ip, r4, r4, lsl r9
    12a8:	e0910300 	adds	r0, r1, r0, lsl #6
    12ac:	70730f7e 	rsbsvc	r0, r3, lr, ror pc
    12b0:	01940100 	orrseq	r0, r4, r0, lsl #2
    12b4:	00039907 	andeq	r9, r3, r7, lsl #18
    12b8:	0009de00 	andeq	sp, r9, r0, lsl #28
    12bc:	0009da00 	andeq	sp, r9, r0, lsl #20
    12c0:	09710300 	ldmdbeq	r1!, {r8, r9}^
    12c4:	95010000 	strls	r0, [r1, #-0]
    12c8:	03990701 	orrseq	r0, r9, #262144	@ 0x40000
    12cc:	09f80000 	ldmibeq	r8!, {}^	@ <UNPREDICTABLE>
    12d0:	09f20000 	ldmibeq	r2!, {}^	@ <UNPREDICTABLE>
    12d4:	1e020000 	cdpne	0, 0, cr0, cr2, cr0, {0}
    12d8:	6200000d 	andvs	r0, r0, #13
    12dc:	e3000007 	movw	r0, #7
    12e0:	0100000d 	tsteq	r0, sp
    12e4:	76025001 	strvc	r5, [r2], -r1
    12e8:	46020000 	strmi	r0, [r2], -r0
    12ec:	e200000d 	and	r0, r0, #13
    12f0:	f7000007 			@ <UNDEFINED> instruction: 0xf7000007
    12f4:	0100000d 	tsteq	r0, sp
    12f8:	76025001 	strvc	r5, [r2], -r1
    12fc:	a40a0000 	strge	r0, [sl], #-0
    1300:	6200000e 	andvs	r0, r0, #14
    1304:	01000007 	tsteq	r0, r7
    1308:	75035001 	strvc	r5, [r3, #-1]
    130c:	000002d8 	ldrdeq	r0, [r0], -r8
    1310:	00010b3b 	andeq	r0, r1, fp, lsr fp
    1314:	00690f00 	rsbeq	r0, r9, r0, lsl #30
    1318:	0601b801 	streq	fp, [r1], -r1, lsl #16
    131c:	00000047 	andeq	r0, r0, r7, asr #32
    1320:	00000a18 	andeq	r0, r0, r8, lsl sl
    1324:	00000a10 	andeq	r0, r0, r0, lsl sl
    1328:	706d741e 	rsbvc	r7, sp, lr, lsl r4
    132c:	01b90100 			@ <UNDEFINED> instruction: 0x01b90100
    1330:	0004e314 	andeq	lr, r4, r4, lsl r3
    1334:	e0910300 	adds	r0, r1, r0, lsl #6
    1338:	70730f7e 	rsbsvc	r0, r3, lr, ror pc
    133c:	01ba0100 			@ <UNDEFINED> instruction: 0x01ba0100
    1340:	00039907 	andeq	r9, r3, r7, lsl #18
    1344:	000a4000 	andeq	r4, sl, r0
    1348:	000a3800 	andeq	r3, sl, r0, lsl #16
    134c:	0d600200 	sfmeq	f0, 2, [r0, #-0]
    1350:	074b0000 	strbeq	r0, [fp, -r0]
    1354:	0e5a0000 	cdpeq	0, 5, cr0, cr10, cr0, {0}
    1358:	01010000 	mrseq	r0, (UNDEF: 1)
    135c:	00760250 	rsbseq	r0, r6, r0, asr r2
    1360:	0d900200 	lfmeq	f0, 4, [r0]
    1364:	07d00000 	ldrbeq	r0, [r0, r0]
    1368:	0e6e0000 	cdpeq	0, 6, cr0, cr14, cr0, {0}
    136c:	01010000 	mrseq	r0, (UNDEF: 1)
    1370:	00760250 	rsbseq	r0, r6, r0, asr r2
    1374:	0e940a00 	vfnmseq.f32	s0, s8, s0
    1378:	074b0000 	strbeq	r0, [fp, -r0]
    137c:	01010000 	mrseq	r0, (UNDEF: 1)
    1380:	d8750350 	ldmdale	r5!, {r4, r6, r8, r9}^
    1384:	00000003 	andeq	r0, r0, r3
    1388:	00058909 	andeq	r8, r5, r9, lsl #18
    138c:	09082100 	stmdbeq	r8, {r8, sp}
    1390:	16ab0000 	strtne	r0, [fp], r0
    1394:	0000034f 	andeq	r0, r0, pc, asr #6
    1398:	00000894 	muleq	r0, r4, r8
    139c:	00000034 	andeq	r0, r0, r4, lsr r0
    13a0:	0f0d9c01 	svceq	0x000d9c01
    13a4:	670b0000 	strvs	r0, [fp, -r0]
    13a8:	01000010 	tsteq	r0, r0, lsl r0
    13ac:	03d436c8 	bicseq	r3, r4, #200, 12	@ 0xc800000
    13b0:	0a6f0000 	beq	1bc13b8 <__ROM_SIZE+0x1b813b8>
    13b4:	0a5f0000 	beq	17c13bc <__ROM_SIZE+0x17813bc>
    13b8:	e01f0000 	ands	r0, pc, r0
    13bc:	01000003 	tsteq	r0, r3
    13c0:	02eb1ec9 	rsceq	r1, fp, #3216	@ 0xc90
    13c4:	51010000 	mrspl	r0, (UNDEF: 1)
    13c8:	0007bf0b 	andeq	fp, r7, fp, lsl #30
    13cc:	0dca0100 	stfeqe	f0, [sl]
    13d0:	0000005a 	andeq	r0, r0, sl, asr r0
    13d4:	00000ad2 	ldrdeq	r0, [r0], -r2
    13d8:	00000acc 	andeq	r0, r0, ip, asr #21
    13dc:	0006af0b 	andeq	sl, r6, fp, lsl #30
    13e0:	28cb0100 	stmiacs	fp, {r8}^
    13e4:	00000326 	andeq	r0, r0, r6, lsr #6
    13e8:	00000afb 	strdeq	r0, [r0], -fp
    13ec:	00000af1 	strdeq	r0, [r0], -r1
    13f0:	0006e71f 	andeq	lr, r6, pc, lsl r7
    13f4:	0fcc0100 	svceq	0x00cc0100
    13f8:	0000041c 	andeq	r0, r0, ip, lsl r4
    13fc:	15009102 	strne	r9, [r0, #-258]	@ 0xfffffefe
    1400:	00737276 	rsbseq	r7, r3, r6, ror r2
    1404:	810fce01 	tsthi	pc, r1, lsl #28
    1408:	4100000e 	tstmi	r0, lr
    140c:	3100000b 	tstcc	r0, fp
    1410:	0000000b 	andeq	r0, r0, fp
    1414:	00052021 	andeq	r2, r5, r1, lsr #32
    1418:	4f16af00 	svcmi	0x0016af00
    141c:	44000003 	strmi	r0, [r0], #-3
    1420:	34000008 	strcc	r0, [r0], #-8
    1424:	01000000 	mrseq	r0, (UNDEF: 0)
    1428:	000f949c 	muleq	pc, ip, r4	@ <UNPREDICTABLE>
    142c:	10670b00 	rsbne	r0, r7, r0, lsl #22
    1430:	a6010000 	strge	r0, [r1], -r0
    1434:	0003d436 	andeq	sp, r3, r6, lsr r4
    1438:	000bae00 	andeq	sl, fp, r0, lsl #28
    143c:	000b9e00 	andeq	r9, fp, r0, lsl #28
    1440:	03e01f00 	mvneq	r1, #0, 30
    1444:	a7010000 	strge	r0, [r1, -r0]
    1448:	0002eb1e 	andeq	lr, r2, lr, lsl fp
    144c:	0b510100 	bleq	1441854 <__ROM_SIZE+0x1401854>
    1450:	000007bf 			@ <UNDEFINED> instruction: 0x000007bf
    1454:	5a0da801 	bpl	36b460 <__ROM_SIZE+0x32b460>
    1458:	15000000 	strne	r0, [r0, #-0]
    145c:	0b00000c 	bleq	1494 <memcpy+0x44>
    1460:	0b00000c 	bleq	1498 <memcpy+0x48>
    1464:	000006af 	andeq	r0, r0, pc, lsr #13
    1468:	2628a901 	strtcs	sl, [r8], -r1, lsl #18
    146c:	55000003 	strpl	r0, [r0, #-3]
    1470:	4b00000c 	blmi	14a8 <memcpy+0x58>
    1474:	1f00000c 	svcne	0x0000000c
    1478:	000006e7 	andeq	r0, r0, r7, ror #13
    147c:	1c0faa01 			@ <UNDEFINED> instruction: 0x1c0faa01
    1480:	02000004 	andeq	r0, r0, #4
    1484:	76150091 			@ <UNDEFINED> instruction: 0x76150091
    1488:	01007372 	tsteq	r0, r2, ror r3
    148c:	0e810fac 	cdpeq	15, 8, cr0, cr1, cr12, {5}
    1490:	0c9b0000 	ldceq	0, cr0, [fp], {0}
    1494:	0c8b0000 	stceq	0, cr0, [fp], {0}
    1498:	1b000000 	blne	14a0 <memcpy+0x50>
    149c:	00000d30 	andeq	r0, r0, r0, lsr sp
    14a0:	cb033202 	blgt	cdcb0 <__ROM_SIZE+0x8dcb0>
    14a4:	60000000 	andvs	r0, r0, r0
    14a8:	a8000009 	stmdage	r0, {r0, r3}
    14ac:	01000002 	tsteq	r0, r2
    14b0:	0013be9c 	mulseq	r3, ip, lr
    14b4:	0f2e0600 	svceq	0x002e0600
    14b8:	32020000 	andcc	r0, r2, #0
    14bc:	01062703 	tsteq	r6, r3, lsl #14
    14c0:	0d060000 	stceq	0, cr0, [r6, #-0]
    14c4:	0cf80000 	ldcleq	0, cr0, [r8]
    14c8:	1b060000 	blne	1814d0 <__ROM_SIZE+0x1414d0>
    14cc:	02000005 	andeq	r0, r0, #5
    14d0:	b21b0333 	andslt	r0, fp, #-872415232	@ 0xcc000000
    14d4:	5d000002 	stcpl	0, cr0, [r0, #-8]
    14d8:	5900000d 	stmdbpl	r0, {r0, r2, r3}
    14dc:	0600000d 	streq	r0, [r0], -sp
    14e0:	00001067 	andeq	r1, r0, r7, rrx
    14e4:	15033402 	strne	r3, [r3, #-1026]	@ 0xfffffbfe
    14e8:	000003d4 	ldrdeq	r0, [r0], -r4
    14ec:	00000d82 	andeq	r0, r0, r2, lsl #27
    14f0:	00000d6c 	andeq	r0, r0, ip, ror #26
    14f4:	0064691c 	rsbeq	r6, r4, ip, lsl r9
    14f8:	08033502 	stmdaeq	r3, {r1, r8, sl, ip, sp}
    14fc:	00000047 	andeq	r0, r0, r7, asr #32
    1500:	00000dfb 	strdeq	r0, [r0], -fp
    1504:	00000deb 	andeq	r0, r0, fp, ror #27
    1508:	7377751e 	cmnvc	r7, #125829120	@ 0x7800000
    150c:	03370200 	teqeq	r7, #0, 4
    1510:	00039e16 	andeq	r9, r3, r6, lsl lr
    1514:	4c910200 	lfmmi	f0, 4, [r1], {0}
    1518:	0007f703 	andeq	pc, r7, r3, lsl #14
    151c:	03380200 	teqeq	r8, #0, 4
    1520:	00039908 	andeq	r9, r3, r8, lsl #18
    1524:	000e6a00 	andeq	r6, lr, r0, lsl #20
    1528:	000e4600 	andeq	r4, lr, r0, lsl #12
    152c:	0f360300 	svceq	0x00360300
    1530:	39020000 	stmdbcc	r2, {}	@ <UNPREDICTABLE>
    1534:	005a0703 	subseq	r0, sl, r3, lsl #14
    1538:	0ef80000 	cdpeq	0, 15, cr0, cr8, cr0, {0}
    153c:	0ef20000 	cdpeq	0, 15, cr0, cr2, cr0, {0}
    1540:	6c0f0000 	stcvs	0, cr0, [pc], {-0}
    1544:	02006e65 	andeq	r6, r0, #1616	@ 0x650
    1548:	5a07033a 	bpl	1c2238 <__ROM_SIZE+0x182238>
    154c:	14000000 	strne	r0, [r0], #-0
    1550:	0e00000f 	cdpeq	0, 0, cr0, cr0, cr15, {0}
    1554:	0300000f 	movweq	r0, #15
    1558:	00000ae6 	andeq	r0, r0, r6, ror #21
    155c:	07033b02 	streq	r3, [r3, -r2, lsl #22]
    1560:	0000005a 	andeq	r0, r0, sl, asr r0
    1564:	00000f32 	andeq	r0, r0, r2, lsr pc
    1568:	00000f2a 	andeq	r0, r0, sl, lsr #30
    156c:	00081103 	andeq	r1, r8, r3, lsl #2
    1570:	033c0200 	teqeq	ip, #0, 4
    1574:	00004707 	andeq	r4, r0, r7, lsl #14
    1578:	000f5500 	andeq	r5, pc, r0, lsl #10
    157c:	000f4f00 	andeq	r4, pc, r0, lsl #30
    1580:	05b30300 	ldreq	r0, [r3, #768]!	@ 0x300
    1584:	3d020000 	stccc	0, cr0, [r2, #-0]
    1588:	00470703 	subeq	r0, r7, r3, lsl #14
    158c:	0f800000 	svceq	0x00800000
    1590:	0f6e0000 	svceq	0x006e0000
    1594:	76030000 	strvc	r0, [r3], -r0
    1598:	02000009 	andeq	r0, r0, #9
    159c:	4707033e 	smladxmi	r7, lr, r3, r0
    15a0:	cf000000 	svcgt	0x00000000
    15a4:	c300000f 	movwgt	r0, #15
    15a8:	0d00000f 	stceq	0, cr0, [r0, #-60]	@ 0xffffffc4
    15ac:	00000076 	andeq	r0, r0, r6, ror r0
    15b0:	00001342 	andeq	r1, r0, r2, asr #6
    15b4:	00051603 	andeq	r1, r5, r3, lsl #12
    15b8:	035c0200 	cmpeq	ip, #0, 4
    15bc:	00005a08 	andeq	r5, r0, r8, lsl #20
    15c0:	00104b00 	andseq	r4, r0, r0, lsl #22
    15c4:	00103900 	andseq	r3, r0, r0, lsl #18
    15c8:	07930300 	ldreq	r0, [r3, r0, lsl #6]
    15cc:	5d020000 	stcpl	0, cr0, [r2, #-0]
    15d0:	005a0803 	subseq	r0, sl, r3, lsl #16
    15d4:	10970000 	addsne	r0, r7, r0
    15d8:	108b0000 	addne	r0, fp, r0
    15dc:	8b0d0000 	blhi	3415e4 <__ROM_SIZE+0x3015e4>
    15e0:	38000000 	stmdacc	r0, {}	@ <UNPREDICTABLE>
    15e4:	0f000011 	svceq	0x00000011
    15e8:	0200706c 	andeq	r7, r0, #108	@ 0x6c
    15ec:	5a090378 	bpl	2423d4 <__ROM_SIZE+0x2023d4>
    15f0:	c6000000 	strgt	r0, [r0], -r0
    15f4:	c2000010 	andgt	r0, r0, #16
    15f8:	02000010 	andeq	r0, r0, #16
    15fc:	00000bca 	andeq	r0, r0, sl, asr #23
    1600:	00000a2a 	andeq	r0, r0, sl, lsr #20
    1604:	00001108 	andeq	r1, r0, r8, lsl #2
    1608:	02500101 	subseq	r0, r0, #1073741824	@ 0x40000000
    160c:	02000079 	andeq	r0, r0, #121	@ 0x79
    1610:	00000bd8 	ldrdeq	r0, [r0], -r8
    1614:	00000735 	andeq	r0, r0, r5, lsr r7
    1618:	0000111c 	andeq	r1, r0, ip, lsl r1
    161c:	02500101 	subseq	r0, r0, #1073741824	@ 0x40000000
    1620:	0a000075 	beq	17fc <__copy_table_end__+0x19c>
    1624:	00000be8 	andeq	r0, r0, r8, ror #23
    1628:	00001e1b 	andeq	r1, r0, fp, lsl lr
    162c:	02500101 	subseq	r0, r0, #1073741824	@ 0x40000000
    1630:	01010076 	tsteq	r1, r6, ror r0
    1634:	013f0151 	teqeq	pc, r1, asr r1	@ <UNPREDICTABLE>
    1638:	74025201 	strvc	r5, [r2], #-513	@ 0xfffffdff
    163c:	0d000000 	stceq	0, cr0, [r0, #-0]
    1640:	000000a6 	andeq	r0, r0, r6, lsr #1
    1644:	000011f4 	strdeq	r1, [r0], -r4
    1648:	000d2b03 	andeq	r2, sp, r3, lsl #22
    164c:	03900200 	orrseq	r0, r0, #0, 4
    1650:	00005a0d 	andeq	r5, r0, sp, lsl #20
    1654:	0010d900 	andseq	sp, r0, r0, lsl #18
    1658:	0010d500 	andseq	sp, r0, r0, lsl #10
    165c:	0a7f0300 	beq	1fc2264 <__ROM_SIZE+0x1f82264>
    1660:	91020000 	mrsls	r0, (UNDEF: 2)
    1664:	05e50e03 	strbeq	r0, [r5, #3587]!	@ 0xe03
    1668:	10ec0000 	rscne	r0, ip, r0
    166c:	10e80000 	rscne	r0, r8, r0
    1670:	33140000 	tstcc	r4, #0
    1674:	0200000a 	andeq	r0, r0, #10
    1678:	1c0f0392 	stcne	3, cr0, [pc], {146}	@ 0x92
    167c:	02000004 	andeq	r0, r0, #4
    1680:	2b034891 	blcs	d38cc <__ROM_SIZE+0x938cc>
    1684:	0200000e 	andeq	r0, r0, #14
    1688:	07260393 			@ <UNDEFINED> instruction: 0x07260393
    168c:	ff000006 			@ <UNDEFINED> instruction: 0xff000006
    1690:	fb000010 	blx	16da <__copy_table_end__+0x7a>
    1694:	02000010 	andeq	r0, r0, #16
    1698:	00000ad4 	ldrdeq	r0, [r0], -r4
    169c:	00001f2e 	andeq	r1, r0, lr, lsr #30
    16a0:	000011ab 	andeq	r1, r0, fp, lsr #3
    16a4:	02500101 	subseq	r0, r0, #1073741824	@ 0x40000000
    16a8:	f72c0479 			@ <UNDEFINED> instruction: 0xf72c0479
    16ac:	0100001d 	tsteq	r0, sp, lsl r0
    16b0:	de020030 	mcrle	0, 0, r0, cr2, cr0, {1}
    16b4:	0b00000a 	bleq	16e4 <__copy_table_end__+0x84>
    16b8:	c5000007 	strgt	r0, [r0, #-7]
    16bc:	01000011 	tsteq	r0, r1, lsl r0
    16c0:	75025001 	strvc	r5, [r2, #-1]
    16c4:	53010100 	movwpl	r0, #4352	@ 0x1100
    16c8:	00489102 	subeq	r9, r8, r2, lsl #2
    16cc:	000ba002 	andeq	sl, fp, r2
    16d0:	001ea500 	andseq	sl, lr, r0, lsl #10
    16d4:	0011de00 	andseq	sp, r1, r0, lsl #28
    16d8:	50010100 	andpl	r0, r1, r0, lsl #2
    16dc:	01007602 	tsteq	r0, r2, lsl #12
    16e0:	3d015101 	stfccs	f5, [r1, #-4]
    16e4:	0bf20a00 	bleq	ffc83eec <__StackTop+0xdfc73eec>
    16e8:	1ea50000 	cdpne	0, 10, cr0, cr5, cr0, {0}
    16ec:	01010000 	mrseq	r0, (UNDEF: 1)
    16f0:	00760250 	rsbseq	r0, r6, r0, asr r2
    16f4:	01510101 	cmpeq	r1, r1, lsl #2
    16f8:	2200003d 	andcs	r0, r0, #61	@ 0x3d
    16fc:	00000afc 	strdeq	r0, [r0], -ip
    1700:	0000001c 	andeq	r0, r0, ip, lsl r0
    1704:	00001253 	andeq	r1, r0, r3, asr r2
    1708:	00706c0f 	rsbseq	r6, r0, pc, lsl #24
    170c:	0903c302 	stmdbeq	r3, {r1, r8, r9, lr, pc}
    1710:	0000005a 	andeq	r0, r0, sl, asr r0
    1714:	00001112 	andeq	r1, r0, r2, lsl r1
    1718:	0000110e 	andeq	r1, r0, lr, lsl #2
    171c:	000b0223 	andeq	r0, fp, r3, lsr #4
    1720:	000a2a00 	andeq	r2, sl, r0, lsl #20
    1724:	0b0c0200 	bleq	301f2c <__ROM_SIZE+0x2c1f2c>
    1728:	1e1b0000 	cdpne	0, 1, cr0, cr11, cr0, {0}
    172c:	12370000 	eorsne	r0, r7, #0
    1730:	01010000 	mrseq	r0, (UNDEF: 1)
    1734:	00760250 	rsbseq	r0, r6, r0, asr r2
    1738:	01510101 	cmpeq	r1, r1, lsl #2
    173c:	160a003f 			@ <UNDEFINED> instruction: 0x160a003f
    1740:	1b00000b 	blne	1774 <__copy_table_end__+0x114>
    1744:	0100001e 	tsteq	r0, lr, lsl r0
    1748:	76025001 	strvc	r5, [r2], -r1
    174c:	51010100 	mrspl	r0, (UNDEF: 17)
    1750:	01013001 	tsteq	r1, r1
    1754:	00750252 	rsbseq	r0, r5, r2, asr r2
    1758:	bb0d0000 	bllt	341760 <__ROM_SIZE+0x301760>
    175c:	e4000000 	str	r0, [r0], #-0
    1760:	0f000012 	svceq	0x00000012
    1764:	d7020069 	strle	r0, [r2, -r9, rrx]
    1768:	005a0d03 	subseq	r0, sl, r3, lsl #26
    176c:	11290000 			@ <UNDEFINED> instruction: 0x11290000
    1770:	11210000 			@ <UNDEFINED> instruction: 0x11210000
    1774:	2b030000 	blcs	c177c <__ROM_SIZE+0x8177c>
    1778:	0200000d 	andeq	r0, r0, #13
    177c:	5a0d03d8 	bpl	3426e4 <__ROM_SIZE+0x3026e4>
    1780:	50000000 	andpl	r0, r0, r0
    1784:	4c000011 	stcmi	0, cr0, [r0], {17}
    1788:	14000011 	strne	r0, [r0], #-17	@ 0xffffffef
    178c:	00000a33 	andeq	r0, r0, r3, lsr sl
    1790:	0f03d902 	svceq	0x0003d902
    1794:	0000041c 	andeq	r0, r0, ip, lsl r4
    1798:	02489102 	subeq	r9, r8, #-2147483648	@ 0x80000000
    179c:	00000b66 	andeq	r0, r0, r6, ror #22
    17a0:	00001f2e 	andeq	r1, r0, lr, lsr #30
    17a4:	000012af 	andeq	r1, r0, pc, lsr #5
    17a8:	02500101 	subseq	r0, r0, #1073741824	@ 0x40000000
    17ac:	f72c0077 			@ <UNDEFINED> instruction: 0xf72c0077
    17b0:	0100001d 	tsteq	r0, sp, lsl r0
    17b4:	72020030 	andvc	r0, r2, #48	@ 0x30
    17b8:	0b00000b 	bleq	17ec <__copy_table_end__+0x18c>
    17bc:	ce000007 	cdpgt	0, 0, cr0, cr0, cr7, {0}
    17c0:	01000012 	tsteq	r0, r2, lsl r0
    17c4:	75025001 	strvc	r5, [r2, #-1]
    17c8:	52010100 	andpl	r0, r1, #0, 2
    17cc:	01013001 	tsteq	r1, r1
    17d0:	48910253 	ldmmi	r1, {r0, r1, r4, r6, r9}
    17d4:	0b860a00 	bleq	fe183fdc <__StackTop+0xde173fdc>
    17d8:	1ea50000 	cdpne	0, 10, cr0, cr5, cr0, {0}
    17dc:	01010000 	mrseq	r0, (UNDEF: 1)
    17e0:	007b0250 	rsbseq	r0, fp, r0, asr r2
    17e4:	01510101 	cmpeq	r1, r1, lsl #2
    17e8:	0d00003d 	stceq	0, cr0, [r0, #-244]	@ 0xffffff0c
    17ec:	00000096 	muleq	r0, r6, r0
    17f0:	000012fa 	strdeq	r1, [r0], -sl
    17f4:	00706c3c 	rsbseq	r6, r0, ip, lsr ip
    17f8:	0903f502 	stmdbeq	r3, {r1, r8, sl, ip, sp, lr, pc}
    17fc:	0000005a 	andeq	r0, r0, sl, asr r0
    1800:	09e60200 	stmibeq	r6!, {r9}^
    1804:	1ea50000 	cdpne	0, 10, cr0, cr5, cr0, {0}
    1808:	13130000 	tstne	r3, #0
    180c:	01010000 	mrseq	r0, (UNDEF: 1)
    1810:	00760250 	rsbseq	r0, r6, r0, asr r2
    1814:	01510101 	cmpeq	r1, r1, lsl #2
    1818:	f002003f 			@ <UNDEFINED> instruction: 0xf002003f
    181c:	a500000a 	strge	r0, [r0, #-10]
    1820:	2c00001e 	stccs	0, cr0, [r0], {30}
    1824:	01000013 	tsteq	r0, r3, lsl r0
    1828:	76025001 	strvc	r5, [r2], -r1
    182c:	51010100 	mrspl	r0, (UNDEF: 17)
    1830:	0a003d01 	beq	10c3c <__RAM_SIZE+0xc3c>
    1834:	00000b20 	andeq	r0, r0, r0, lsr #22
    1838:	00001ea5 	andeq	r1, r0, r5, lsr #29
    183c:	02500101 	subseq	r0, r0, #1073741824	@ 0x40000000
    1840:	01010076 	tsteq	r1, r6, ror r0
    1844:	003d0151 	eorseq	r0, sp, r1, asr r1
    1848:	09a80200 	stmibeq	r8!, {r9}
    184c:	06eb0000 	strbteq	r0, [fp], r0
    1850:	135c0000 	cmpne	ip, #0
    1854:	01010000 	mrseq	r0, (UNDEF: 1)
    1858:	00760250 	rsbseq	r0, r6, r0, asr r2
    185c:	02510101 	subseq	r0, r1, #1073741824	@ 0x40000000
    1860:	02004c91 	andeq	r4, r0, #37120	@ 0x9100
    1864:	00000a32 	andeq	r0, r0, r2, lsr sl
    1868:	000006eb 	andeq	r0, r0, fp, ror #13
    186c:	00001376 	andeq	r1, r0, r6, ror r3
    1870:	02500101 	subseq	r0, r0, #1073741824	@ 0x40000000
    1874:	01010076 	tsteq	r1, r6, ror r0
    1878:	4c910251 	lfmmi	f0, 4, [r1], {81}	@ 0x51
    187c:	0a420200 	beq	1082084 <__ROM_SIZE+0x1042084>
    1880:	1ea50000 	cdpne	0, 10, cr0, cr5, cr0, {0}
    1884:	138f0000 	orrne	r0, pc, #0
    1888:	01010000 	mrseq	r0, (UNDEF: 1)
    188c:	00760250 	rsbseq	r0, r6, r0, asr r2
    1890:	01510101 	cmpeq	r1, r1, lsl #2
    1894:	4c02003f 	stcmi	0, cr0, [r2], {63}	@ 0x3f
    1898:	1b00000a 	blne	18c8 <__copy_table_end__+0x268>
    189c:	a800001e 	stmdage	r0, {r1, r2, r3, r4}
    18a0:	01000013 	tsteq	r0, r3, lsl r0
    18a4:	76025001 	strvc	r5, [r2], -r1
    18a8:	51010100 	mrspl	r0, (UNDEF: 17)
    18ac:	0a003e01 	beq	110b8 <__RAM_SIZE+0x10b8>
    18b0:	00000a56 	andeq	r0, r0, r6, asr sl
    18b4:	00001e1b 	andeq	r1, r0, fp, lsl lr
    18b8:	02500101 	subseq	r0, r0, #1073741824	@ 0x40000000
    18bc:	01010076 	tsteq	r1, r6, ror r0
    18c0:	003f0151 	eorseq	r0, pc, r1, asr r1	@ <UNPREDICTABLE>
    18c4:	04631300 	strbteq	r1, [r3], #-768	@ 0xfffffd00
    18c8:	ec020000 	stc	0, cr0, [r2], {-0}
    18cc:	0000cb02 	andeq	ip, r0, r2, lsl #22
    18d0:	0008e000 	andeq	lr, r8, r0
    18d4:	00008000 	andeq	r8, r0, r0
    18d8:	dc9c0100 	ldfles	f0, [ip], {0}
    18dc:	06000014 			@ <UNDEFINED> instruction: 0x06000014
    18e0:	00000ff4 	strdeq	r0, [r0], -r4
    18e4:	2902ec02 	stmdbcs	r2, {r1, sl, fp, sp, lr, pc}
    18e8:	0000041e 	andeq	r0, r0, lr, lsl r4
    18ec:	00001163 	andeq	r1, r0, r3, ror #2
    18f0:	0000115f 	andeq	r1, r0, pc, asr r1
    18f4:	00040606 	andeq	r0, r4, r6, lsl #12
    18f8:	02ec0200 	rsceq	r0, ip, #0, 4
    18fc:	00041c37 	andeq	r1, r4, r7, lsr ip
    1900:	00117600 	andseq	r7, r1, r0, lsl #12
    1904:	00117200 	andseq	r7, r1, r0, lsl #4
    1908:	04d40600 	ldrbeq	r0, [r4], #1536	@ 0x600
    190c:	ed020000 	stc	0, cr0, [r2, #-0]
    1910:	14dc1702 	ldrbne	r1, [ip], #1794	@ 0x702
    1914:	118f0000 	orrne	r0, pc, r0
    1918:	11850000 	orrne	r0, r5, r0
    191c:	29140000 	ldmdbcs	r4, {}	@ <UNPREDICTABLE>
    1920:	0200000a 	andeq	r0, r0, #10
    1924:	890e02ef 	stmdbhi	lr, {r0, r1, r2, r3, r5, r6, r7, r9}
    1928:	03000005 	movweq	r0, #5
    192c:	037c8891 	cmneq	ip, #9502720	@ 0x910000
    1930:	00000bc8 	andeq	r0, r0, r8, asr #23
    1934:	1702f002 	strne	pc, [r2, -r2]
    1938:	000000cb 	andeq	r0, r0, fp, asr #1
    193c:	000011c6 	andeq	r1, r0, r6, asr #3
    1940:	000011c2 	andeq	r1, r0, r2, asr #3
    1944:	6263751e 	rsbvs	r7, r3, #125829120	@ 0x7800000
    1948:	02f20200 	rscseq	r0, r2, #0, 4
    194c:	00011e19 	andeq	r1, r1, r9, lsl lr
    1950:	b0910300 	addslt	r0, r1, r0, lsl #6
    1954:	051b037b 	ldreq	r0, [fp, #-891]	@ 0xfffffc85
    1958:	f3020000 	vhadd.u8	d0, d2, d0
    195c:	02b21a02 	adcseq	r1, r2, #8192	@ 0x2000
    1960:	11d90000 	bicsne	r0, r9, r0
    1964:	11d50000 	bicsne	r0, r5, r0
    1968:	28020000 	stmdacs	r2, {}	@ <UNPREDICTABLE>
    196c:	1b000009 	blne	1998 <__copy_table_end__+0x338>
    1970:	8300001e 	movwhi	r0, #30
    1974:	01000014 	tsteq	r0, r4, lsl r0
    1978:	91035001 	tstls	r3, r1
    197c:	01017c88 	smlabbeq	r1, r8, ip, r7
    1980:	013c0151 	teqeq	ip, r1, asr r1
    1984:	7d025201 	sfmvc	f5, 4, [r2, #-4]
    1988:	2e160000 	cdpcs	0, 1, cr0, cr6, cr0, {0}
    198c:	9a000009 	bls	19b8 <__copy_table_end__+0x358>
    1990:	01000014 	tsteq	r0, r4, lsl r0
    1994:	91035001 	tstls	r3, r1
    1998:	01017c88 	smlabbeq	r1, r8, ip, r7
    199c:	00740251 	rsbseq	r0, r4, r1, asr r2
    19a0:	093a1600 	ldmdbeq	sl!, {r9, sl, ip}
    19a4:	14b60000 	ldrtne	r0, [r6], #0
    19a8:	01010000 	mrseq	r0, (UNDEF: 1)
    19ac:	01380150 	teqeq	r8, r0, asr r1
    19b0:	7d025101 	stfvcs	f5, [r2, #-4]
    19b4:	52010100 	andpl	r0, r1, #0, 2
    19b8:	7c889103 	stfvcd	f1, [r8], {3}
    19bc:	094c0200 	stmdbeq	ip, {r9}^
    19c0:	1b210000 	blne	8419c8 <__ROM_SIZE+0x8019c8>
    19c4:	14ca0000 	strbne	r0, [sl], #0
    19c8:	01010000 	mrseq	r0, (UNDEF: 1)
    19cc:	007d0250 	rsbseq	r0, sp, r0, asr r2
    19d0:	09580a00 	ldmdbeq	r8, {r9, fp}^
    19d4:	1d2c0000 	stcne	0, cr0, [ip, #-0]
    19d8:	01010000 	mrseq	r0, (UNDEF: 1)
    19dc:	88910350 	ldmhi	r1, {r4, r6, r8, r9}
    19e0:	0900007c 	stmdbeq	r0, {r2, r3, r4, r5, r6}
    19e4:	000005c6 	andeq	r0, r0, r6, asr #11
    19e8:	0006cf2d 	andeq	ip, r6, sp, lsr #30
    19ec:	0838d500 	ldmdaeq	r8!, {r8, sl, ip, lr, pc}
    19f0:	000c0000 	andeq	r0, ip, r0
    19f4:	9c010000 	stcls	0, cr0, [r1], {-0}
    19f8:	00001523 	andeq	r1, r0, r3, lsr #10
    19fc:	6378651c 	cmnvs	r8, #28, 10	@ 0x7000000
    1a00:	02e00200 	rsceq	r0, r0, #0, 4
    1a04:	0002b22e 	andeq	fp, r2, lr, lsr #4
    1a08:	0011f300 	andseq	pc, r1, r0, lsl #6
    1a0c:	0011eb00 	andseq	lr, r1, r0, lsl #22
    1a10:	08423d00 	stmdaeq	r2, {r8, sl, fp, ip, sp}^
    1a14:	01010000 	mrseq	r0, (UNDEF: 1)
    1a18:	01310150 	teqeq	r1, r0, asr r1
    1a1c:	a3095101 	movwge	r5, #37121	@ 0x9101
    1a20:	2600a503 	strcs	sl, [r0], -r3, lsl #10
    1a24:	00a82da8 	adceq	r2, r8, r8, lsr #27
    1a28:	8c2d0000 	stchi	0, cr0, [sp], #-0
    1a2c:	d4000008 	strle	r0, [r0], #-8
    1a30:	00000834 	andeq	r0, r0, r4, lsr r8
    1a34:	00000002 	andeq	r0, r0, r2
    1a38:	15479c01 	strbne	r9, [r7, #-3073]	@ 0xfffff3ff
    1a3c:	1b3e0000 	blne	f81a44 <__ROM_SIZE+0xf41a44>
    1a40:	02000005 	andeq	r0, r0, #5
    1a44:	b22b02d8 	eorlt	r0, fp, #216, 4	@ 0x8000000d
    1a48:	01000002 	tsteq	r0, r2
    1a4c:	db130050 	blle	4c1b94 <__ROM_SIZE+0x481b94>
    1a50:	02000009 	andeq	r0, r0, #9
    1a54:	00cb02ca 	sbceq	r0, fp, sl, asr #5
    1a58:	08200000 	stmdaeq	r0!, {}	@ <UNPREDICTABLE>
    1a5c:	00120000 	andseq	r0, r2, r0
    1a60:	9c010000 	stcls	0, cr0, [r1], {-0}
    1a64:	000015c2 	andeq	r1, r0, r2, asr #11
    1a68:	00051b06 	andeq	r1, r5, r6, lsl #22
    1a6c:	02ca0200 	sbceq	r0, sl, #0, 4
    1a70:	0002b239 	andeq	fp, r2, r9, lsr r2
    1a74:	00122100 	andseq	r2, r2, r0, lsl #2
    1a78:	00121900 	andseq	r1, r2, r0, lsl #18
    1a7c:	04d40600 	ldrbeq	r0, [r4], #1536	@ 0x600
    1a80:	cb020000 	blgt	81a88 <__ROM_SIZE+0x41a88>
    1a84:	14dc1202 	ldrbne	r1, [ip], #514	@ 0x202
    1a88:	12580000 	subsne	r0, r8, #0
    1a8c:	12500000 	subsne	r0, r0, #0
    1a90:	303f0000 	eorscc	r0, pc, r0
    1a94:	33000008 	movwcc	r0, #8
    1a98:	b8000018 	stmdalt	r0, {r3, r4}
    1a9c:	01000015 	tsteq	r0, r5, lsl r0
    1aa0:	a3095001 	movwge	r5, #36865	@ 0x9001
    1aa4:	2600a503 	strcs	sl, [r0], -r3, lsl #10
    1aa8:	00a82da8 	adceq	r2, r8, r8, lsr #27
    1aac:	09510101 	ldmdbeq	r1, {r0, r8}^
    1ab0:	01a503a3 			@ <UNDEFINED> instruction: 0x01a503a3
    1ab4:	a82da826 	stmdage	sp!, {r1, r2, r5, fp, sp, pc}
    1ab8:	52010100 	andpl	r0, r1, #0, 2
    1abc:	40003001 	andmi	r3, r0, r1
    1ac0:	00000832 	andeq	r0, r0, r2, lsr r8
    1ac4:	00001745 	andeq	r1, r0, r5, asr #14
    1ac8:	06561300 	ldrbeq	r1, [r6], -r0, lsl #6
    1acc:	96020000 	strls	r0, [r2], -r0
    1ad0:	0000cb02 	andeq	ip, r0, r2, lsl #22
    1ad4:	0007e000 	andeq	lr, r7, r0
    1ad8:	00004000 	andeq	r4, r0, r0
    1adc:	ad9c0100 	ldfges	f0, [ip]
    1ae0:	06000016 			@ <UNDEFINED> instruction: 0x06000016
    1ae4:	0000051b 	andeq	r0, r0, fp, lsl r5
    1ae8:	2e029602 	cfmadd32cs	mvax0, mvfx9, mvfx2, mvfx2
    1aec:	000002b2 			@ <UNDEFINED> instruction: 0x000002b2
    1af0:	00001293 	muleq	r0, r3, r2
    1af4:	00001287 	andeq	r1, r0, r7, lsl #5
    1af8:	0004d406 	andeq	sp, r4, r6, lsl #8
    1afc:	02960200 	addseq	r0, r6, #0, 4
    1b00:	0014dc41 	andseq	sp, r4, r1, asr #24
    1b04:	0012d300 	andseq	sp, r2, r0, lsl #6
    1b08:	0012c700 	andseq	ip, r2, r0, lsl #14
    1b0c:	0e9c0300 	cdpeq	3, 9, cr0, cr12, cr0, {0}
    1b10:	98020000 	stmdals	r2, {}	@ <UNPREDICTABLE>
    1b14:	00cb1702 	sbceq	r1, fp, r2, lsl #14
    1b18:	130d0000 	movwne	r0, #53248	@ 0xd000
    1b1c:	13070000 	movwne	r0, #28672	@ 0x7000
    1b20:	08220000 	stmdaeq	r2!, {}	@ <UNPREDICTABLE>
    1b24:	0e000008 	cdpeq	0, 0, cr0, cr0, cr8, {0}
    1b28:	68000000 	stmdavs	r0, {}	@ <UNPREDICTABLE>
    1b2c:	03000016 	movweq	r0, #22
    1b30:	00000900 	andeq	r0, r0, r0, lsl #18
    1b34:	0702bb02 	streq	fp, [r2, -r2, lsl #22]
    1b38:	0000041c 	andeq	r0, r0, ip, lsl r4
    1b3c:	00001327 	andeq	r1, r0, r7, lsr #6
    1b40:	00001323 	andeq	r1, r0, r3, lsr #6
    1b44:	00081002 	andeq	r1, r8, r2
    1b48:	001cf900 	andseq	pc, ip, r0, lsl #18
    1b4c:	00165700 	andseq	r5, r6, r0, lsl #14
    1b50:	50010100 	andpl	r0, r1, r0, lsl #2
    1b54:	01007002 	tsteq	r0, r2
    1b58:	71025101 	tstvc	r2, r1, lsl #2
    1b5c:	160a0000 	strne	r0, [sl], -r0
    1b60:	b9000008 	stmdblt	r0, {r3}
    1b64:	01000007 	tsteq	r0, r7
    1b68:	75025001 	strvc	r5, [r2, #-1]
    1b6c:	16000004 	strne	r0, [r0], -r4
    1b70:	000007f8 	strdeq	r0, [r0], -r8
    1b74:	00001683 	andeq	r1, r0, r3, lsl #13
    1b78:	01500101 	cmpeq	r0, r1, lsl #2
    1b7c:	51010132 	tstpl	r1, r2, lsr r1
    1b80:	01007402 	tsteq	r0, r2, lsl #8
    1b84:	75025201 	strvc	r5, [r2, #-513]	@ 0xfffffdff
    1b88:	08020000 	stmdaeq	r2, {}	@ <UNPREDICTABLE>
    1b8c:	52000008 	andpl	r0, r0, #8
    1b90:	9d00001a 	stcls	0, cr0, [r0, #-104]	@ 0xffffff98
    1b94:	01000016 	tsteq	r0, r6, lsl r0
    1b98:	74025001 	strvc	r5, [r2], #-1
    1b9c:	51010100 	mrspl	r0, (UNDEF: 17)
    1ba0:	00007502 	andeq	r7, r0, r2, lsl #10
    1ba4:	00081c0a 	andeq	r1, r8, sl, lsl #24
    1ba8:	00183300 	andseq	r3, r8, r0, lsl #6
    1bac:	52010100 	andpl	r0, r1, #0, 2
    1bb0:	00003101 	andeq	r3, r0, r1, lsl #2
    1bb4:	00054113 	andeq	r4, r5, r3, lsl r1
    1bb8:	02850200 	addeq	r0, r5, #0, 4
    1bbc:	000000cb 	andeq	r0, r0, fp, asr #1
    1bc0:	000007cc 	andeq	r0, r0, ip, asr #15
    1bc4:	00000014 	andeq	r0, r0, r4, lsl r0
    1bc8:	17459c01 	strbne	r9, [r5, -r1, lsl #24]
    1bcc:	1b060000 	blne	181bd4 <__ROM_SIZE+0x141bd4>
    1bd0:	02000005 	andeq	r0, r0, #5
    1bd4:	b2330285 	eorslt	r0, r3, #1342177288	@ 0x50000008
    1bd8:	3c000002 	stccc	0, cr0, [r0], {2}
    1bdc:	38000013 	stmdacc	r0, {r0, r1, r4}
    1be0:	06000013 			@ <UNDEFINED> instruction: 0x06000013
    1be4:	000007b7 			@ <UNDEFINED> instruction: 0x000007b7
    1be8:	17028602 	strne	r8, [r2, -r2, lsl #12]
    1bec:	000003d9 	ldrdeq	r0, [r0], -r9
    1bf0:	0000135a 	andeq	r1, r0, sl, asr r3
    1bf4:	00001354 	andeq	r1, r0, r4, asr r3
    1bf8:	00073506 	andeq	r3, r7, r6, lsl #10
    1bfc:	02860200 	addeq	r0, r6, #0, 4
    1c00:	00041c26 	andeq	r1, r4, r6, lsr #24
    1c04:	00138000 	andseq	r8, r3, r0
    1c08:	00137a00 	andseq	r7, r3, r0, lsl #20
    1c0c:	04d40600 	ldrbeq	r0, [r4], #1536	@ 0x600
    1c10:	87020000 	strhi	r0, [r2, -r0]
    1c14:	14dc1302 	ldrbne	r1, [ip], #770	@ 0x302
    1c18:	13a40000 			@ <UNDEFINED> instruction: 0x13a40000
    1c1c:	13a00000 	movne	r0, #0
    1c20:	e01a0000 	ands	r0, sl, r0
    1c24:	33000007 	movwcc	r0, #7
    1c28:	01000018 	tsteq	r0, r8, lsl r0
    1c2c:	a3095001 	movwge	r5, #36865	@ 0x9001
    1c30:	2600a503 	strcs	sl, [r0], -r3, lsl #10
    1c34:	00a82da8 	adceq	r2, r8, r8, lsr #27
    1c38:	09510101 	ldmdbeq	r1, {r0, r8}^
    1c3c:	03a503a3 			@ <UNDEFINED> instruction: 0x03a503a3
    1c40:	a82da826 	stmdage	sp!, {r1, r2, r5, fp, sp, pc}
    1c44:	52010100 	andpl	r0, r1, #0, 2
    1c48:	00003001 	andeq	r3, r0, r1
    1c4c:	000a3b13 	andeq	r3, sl, r3, lsl fp
    1c50:	024b0200 	subeq	r0, fp, #0, 4
    1c54:	000000cb 	andeq	r0, r0, fp, asr #1
    1c58:	00000764 	andeq	r0, r0, r4, ror #14
    1c5c:	00000066 	andeq	r0, r0, r6, rrx
    1c60:	18049c01 	stmdane	r4, {r0, sl, fp, ip, pc}
    1c64:	1b060000 	blne	181c6c <__ROM_SIZE+0x141c6c>
    1c68:	02000005 	andeq	r0, r0, #5
    1c6c:	b236024b 	eorslt	r0, r6, #-1342177276	@ 0xb0000004
    1c70:	c0000002 	andgt	r0, r0, r2
    1c74:	bc000013 	stclt	0, cr0, [r0], {19}
    1c78:	06000013 			@ <UNDEFINED> instruction: 0x06000013
    1c7c:	000004d4 	ldrdeq	r0, [r0], -r4
    1c80:	16024c02 	strne	r4, [r2], -r2, lsl #24
    1c84:	000014dc 	ldrdeq	r1, [r0], -ip
    1c88:	000013d3 	ldrdeq	r1, [r0], -r3
    1c8c:	000013cf 	andeq	r1, r0, pc, asr #7
    1c90:	000a2914 	andeq	r2, sl, r4, lsl r9
    1c94:	024e0200 	subeq	r0, lr, #0, 4
    1c98:	0005890e 	andeq	r8, r5, lr, lsl #18
    1c9c:	80910300 	addshi	r0, r1, r0, lsl #6
    1ca0:	0e9c037c 	mrceq	3, 4, r0, cr12, cr12, {3}
    1ca4:	4f020000 	svcmi	0x00020000
    1ca8:	00cb1702 	sbceq	r1, fp, r2, lsl #14
    1cac:	13e60000 	mvnne	r0, #0
    1cb0:	13e20000 	mvnne	r0, #0
    1cb4:	a0160000 	andsge	r0, r6, r0
    1cb8:	c5000007 	strgt	r0, [r0, #-7]
    1cbc:	01000017 	tsteq	r0, r7, lsl r0
    1cc0:	75025101 	strvc	r5, [r2, #-257]	@ 0xfffffeff
    1cc4:	52010100 	andpl	r0, r1, #0, 2
    1cc8:	00007d02 	andeq	r7, r0, r2, lsl #26
    1ccc:	0007ae02 	andeq	sl, r7, r2, lsl #28
    1cd0:	001b2100 	andseq	r2, fp, r0, lsl #2
    1cd4:	0017d900 	andseq	sp, r7, r0, lsl #18
    1cd8:	50010100 	andpl	r0, r1, r0, lsl #2
    1cdc:	00007502 	andeq	r7, r0, r2, lsl #10
    1ce0:	0007be02 	andeq	fp, r7, r2, lsl #28
    1ce4:	001d2c00 	andseq	r2, sp, r0, lsl #24
    1ce8:	0017ed00 	andseq	lr, r7, r0, lsl #26
    1cec:	50010100 	andpl	r0, r1, r0, lsl #2
    1cf0:	00007d02 	andeq	r7, r0, r2, lsl #26
    1cf4:	0007ca0a 	andeq	ip, r7, sl, lsl #20
    1cf8:	001a5200 	andseq	r5, sl, r0, lsl #4
    1cfc:	50010100 	andpl	r0, r1, r0, lsl #2
    1d00:	01007502 	tsteq	r0, r2, lsl #10
    1d04:	76025101 	strvc	r5, [r2], -r1, lsl #2
    1d08:	21000000 	mrscs	r0, (UNDEF: 0)
    1d0c:	00000560 	andeq	r0, r0, r0, ror #10
    1d10:	003b10d3 	ldrsbteq	r1, [fp], -r3
    1d14:	07600000 	strbeq	r0, [r0, -r0]!
    1d18:	00040000 	andeq	r0, r4, r0
    1d1c:	9c010000 	stcls	0, cr0, [r1], {-0}
    1d20:	00001833 	andeq	r1, r0, r3, lsr r8
    1d24:	00106706 	andseq	r6, r0, r6, lsl #14
    1d28:	023f0200 	eorseq	r0, pc, #0, 4
    1d2c:	0003d422 	andeq	sp, r3, r2, lsr #8
    1d30:	0013f900 	andseq	pc, r3, r0, lsl #18
    1d34:	0013f500 	andseq	pc, r3, r0, lsl #10
    1d38:	121b0000 	andsne	r0, fp, #0
    1d3c:	02000007 	andeq	r0, r0, #7
    1d40:	00cb01d6 	ldrdeq	r0, [fp], #22
    1d44:	06800000 	streq	r0, [r0], r0
    1d48:	00e00000 	rsceq	r0, r0, r0
    1d4c:	9c010000 	stcls	0, cr0, [r1], {-0}
    1d50:	00001a52 	andeq	r1, r0, r2, asr sl
    1d54:	00051b06 	andeq	r1, r5, r6, lsl #22
    1d58:	01d60200 	bicseq	r0, r6, r0, lsl #4
    1d5c:	0002b22e 	andeq	fp, r2, lr, lsr #4
    1d60:	00141500 	andseq	r1, r4, r0, lsl #10
    1d64:	00141100 	andseq	r1, r4, r0, lsl #2
    1d68:	04d40600 	ldrbeq	r0, [r4], #1536	@ 0x600
    1d6c:	d6020000 	strle	r0, [r2], -r0
    1d70:	14dc4001 	ldrbne	r4, [ip], #1
    1d74:	142e0000 	strtne	r0, [lr], #-0
    1d78:	14240000 	strtne	r0, [r4], #-0
    1d7c:	36060000 	strcc	r0, [r6], -r0
    1d80:	0200000e 	andeq	r0, r0, #14
    1d84:	470d01d7 			@ <UNDEFINED> instruction: 0x470d01d7
    1d88:	6b000000 	blvs	1d90 <__copy_table_end__+0x730>
    1d8c:	61000014 	tstvs	r0, r4, lsl r0
    1d90:	03000014 	movweq	r0, #20
    1d94:	000007b7 			@ <UNDEFINED> instruction: 0x000007b7
    1d98:	1301d902 	movwne	sp, #6402	@ 0x1902
    1d9c:	000003d9 	ldrdeq	r0, [r0], -r9
    1da0:	00001493 	muleq	r0, r3, r4
    1da4:	00001491 	muleq	r0, r1, r4
    1da8:	00073503 	andeq	r3, r7, r3, lsl #10
    1dac:	01da0200 	bicseq	r0, sl, r0, lsl #4
    1db0:	00041c09 	andeq	r1, r4, r9, lsl #24
    1db4:	00149d00 	andseq	r9, r4, r0, lsl #26
    1db8:	00149b00 	andseq	r9, r4, r0, lsl #22
    1dbc:	0e9c0300 	cdpeq	3, 9, cr0, cr12, cr0, {0}
    1dc0:	db020000 	blle	81dc8 <__ROM_SIZE+0x41dc8>
    1dc4:	00cb1701 	sbceq	r1, fp, r1, lsl #14
    1dc8:	14ad0000 	strtne	r0, [sp], #0
    1dcc:	14a50000 	strtne	r0, [r5], #0
    1dd0:	29140000 	ldmdbcs	r4, {}	@ <UNPREDICTABLE>
    1dd4:	0200000a 	andeq	r0, r0, #10
    1dd8:	890e01de 	stmdbhi	lr, {r1, r2, r3, r4, r6, r7, r8}
    1ddc:	03000005 	movweq	r0, #5
    1de0:	14789091 	ldrbtne	r9, [r8], #-145	@ 0xffffff6f
    1de4:	00000f18 	andeq	r0, r0, r8, lsl pc
    1de8:	1901de02 	stmdbne	r1, {r1, r9, sl, fp, ip, lr, pc}
    1dec:	00000589 	andeq	r0, r0, r9, lsl #11
    1df0:	7bf89103 	blvc	ffe26204 <__StackTop+0xdfe16204>
    1df4:	0000660d 	andeq	r6, r0, sp, lsl #12
    1df8:	001a0700 	andseq	r0, sl, r0, lsl #14
    1dfc:	09260300 	stmdbeq	r6!, {r8, r9}
    1e00:	e9020000 	stmdb	r2, {}	@ <UNPREDICTABLE>
    1e04:	01061501 	tsteq	r6, r1, lsl #10
    1e08:	14d70000 	ldrbne	r0, [r7], #0
    1e0c:	14cb0000 	strbne	r0, [fp], #0
    1e10:	a7030000 	strge	r0, [r3, -r0]
    1e14:	0200000c 	andeq	r0, r0, #12
    1e18:	cb1b01ea 	blgt	6c25c8 <__ROM_SIZE+0x6825c8>
    1e1c:	0e000000 	cdpeq	0, 0, cr0, cr0, cr0, {0}
    1e20:	06000015 			@ <UNDEFINED> instruction: 0x06000015
    1e24:	03000015 	movweq	r0, #21
    1e28:	00000bc3 	andeq	r0, r0, r3, asr #23
    1e2c:	1b01eb02 	blne	7ca3c <__ROM_SIZE+0x3ca3c>
    1e30:	000000cb 	andeq	r0, r0, fp, asr #1
    1e34:	00001535 	andeq	r1, r0, r5, lsr r5
    1e38:	0000152b 	andeq	r1, r0, fp, lsr #10
    1e3c:	0006d602 	andeq	sp, r6, r2, lsl #12
    1e40:	001f9d00 	andseq	r9, pc, r0, lsl #26
    1e44:	00195700 	andseq	r5, r9, r0, lsl #14
    1e48:	50010100 	andpl	r0, r1, r0, lsl #2
    1e4c:	7bf89103 	blvc	ffe26260 <__StackTop+0xdfe16260>
    1e50:	02510101 	subseq	r0, r1, #1073741824	@ 0x40000000
    1e54:	01010075 	tsteq	r1, r5, ror r0
    1e58:	e80a0352 	stmda	sl, {r1, r4, r6, r8, r9}
    1e5c:	e0160001 	ands	r0, r6, r1
    1e60:	74000006 	strvc	r0, [r0], #-6
    1e64:	01000019 	tsteq	r0, r9, lsl r0
    1e68:	7a025001 	bvc	95e74 <__ROM_SIZE+0x55e74>
    1e6c:	51010100 	mrspl	r0, (UNDEF: 17)
    1e70:	01007602 	tsteq	r0, r2, lsl #12
    1e74:	91035201 	tstls	r3, r1, lsl #4
    1e78:	16007bf8 			@ <UNDEFINED> instruction: 0x16007bf8
    1e7c:	000006f4 	strdeq	r0, [r0], -r4
    1e80:	000019a3 	andeq	r1, r0, r3, lsr #19
    1e84:	01500101 	cmpeq	r0, r1, lsl #2
    1e88:	51010131 	tstpl	r1, r1, lsr r1
    1e8c:	01007902 	tsteq	r0, r2, lsl #18
    1e90:	76025201 	strvc	r5, [r2], -r1, lsl #4
    1e94:	53010100 	movwpl	r0, #4352	@ 0x1100
    1e98:	01007602 	tsteq	r0, r2, lsl #12
    1e9c:	02007d02 	andeq	r7, r0, #2, 26	@ 0x80
    1ea0:	02010075 	andeq	r0, r1, #117	@ 0x75
    1ea4:	7802047d 	stmdavc	r2, {r0, r2, r3, r4, r5, r6, sl}
    1ea8:	04020000 	streq	r0, [r2], #-0
    1eac:	9d000007 	stcls	0, cr0, [r0, #-28]	@ 0xffffffe4
    1eb0:	c500001f 	strgt	r0, [r0, #-31]	@ 0xffffffe1
    1eb4:	01000019 	tsteq	r0, r9, lsl r0
    1eb8:	75025001 	strvc	r5, [r2, #-1]
    1ebc:	51010100 	mrspl	r0, (UNDEF: 17)
    1ec0:	7bf89103 	blvc	ffe262d4 <__StackTop+0xdfe162d4>
    1ec4:	03520101 	cmpeq	r2, #1073741824	@ 0x40000000
    1ec8:	0001e80a 	andeq	lr, r1, sl, lsl #16
    1ecc:	00071202 	andeq	r1, r7, r2, lsl #4
    1ed0:	001b2100 	andseq	r2, fp, r0, lsl #2
    1ed4:	0019d900 	andseq	sp, r9, r0, lsl #18
    1ed8:	50010100 	andpl	r0, r1, r0, lsl #2
    1edc:	00007602 	andeq	r7, r0, r2, lsl #12
    1ee0:	0007342e 	andeq	r3, r7, lr, lsr #8
    1ee4:	50010100 	andpl	r0, r1, r0, lsl #2
    1ee8:	01013101 	tsteq	r1, r1, lsl #2
    1eec:	007a0451 	rsbseq	r0, sl, r1, asr r4
    1ef0:	01012140 	tsteq	r1, r0, asr #2
    1ef4:	00760252 	rsbseq	r0, r6, r2, asr r2
    1ef8:	02530101 	subseq	r0, r3, #1073741824	@ 0x40000000
    1efc:	02010076 	andeq	r0, r1, #118	@ 0x76
    1f00:	7502007d 	strvc	r0, [r2, #-125]	@ 0xffffff83
    1f04:	7d020100 	stfvcs	f0, [r2, #-0]
    1f08:	00780204 	rsbseq	r0, r8, r4, lsl #4
    1f0c:	52410000 	subpl	r0, r1, #0
    1f10:	0e000007 	cdpeq	0, 0, cr0, cr0, cr7, {0}
    1f14:	03000000 	movweq	r0, #0
    1f18:	00000900 	andeq	r0, r0, r0, lsl #18
    1f1c:	03023402 	movweq	r3, #9218	@ 0x2402
    1f20:	0000041c 	andeq	r0, r0, ip, lsl r4
    1f24:	0000155d 	andeq	r1, r0, sp, asr r5
    1f28:	00001559 	andeq	r1, r0, r9, asr r5
    1f2c:	00075a02 	andeq	r5, r7, r2, lsl #20
    1f30:	001cf900 	andseq	pc, ip, r0, lsl #18
    1f34:	001a3f00 	andseq	r3, sl, r0, lsl #30
    1f38:	50010100 	andpl	r0, r1, r0, lsl #2
    1f3c:	01007002 	tsteq	r0, r2
    1f40:	71025101 	tstvc	r2, r1, lsl #2
    1f44:	600a0000 	andvs	r0, sl, r0
    1f48:	b9000007 	stmdblt	r0, {r0, r1, r2}
    1f4c:	01000007 	tsteq	r0, r7
    1f50:	91035001 	tstls	r3, r1
    1f54:	00007894 	muleq	r0, r4, r8
    1f58:	08d34200 	ldmeq	r3, {r9, lr}^
    1f5c:	ac020000 	stcge	0, cr0, [r2], {-0}
    1f60:	06440101 	strbeq	r0, [r4], -r1, lsl #2
    1f64:	003c0000 	eorseq	r0, ip, r0
    1f68:	9c010000 	stcls	0, cr0, [r1], {-0}
    1f6c:	00001b21 	andeq	r1, r0, r1, lsr #22
    1f70:	00051b06 	andeq	r1, r5, r6, lsl #22
    1f74:	01ac0200 			@ <UNDEFINED> instruction: 0x01ac0200
    1f78:	0002b228 	andeq	fp, r2, r8, lsr #4
    1f7c:	00157200 	andseq	r7, r5, r0, lsl #4
    1f80:	00156e00 	andseq	r6, r5, r0, lsl #28
    1f84:	72761c00 	rsbsvc	r1, r6, #0, 24
    1f88:	ac020073 	stcge	0, cr0, [r2], {115}	@ 0x73
    1f8c:	14dc3b01 	ldrbne	r3, [ip], #2817	@ 0xb01
    1f90:	15850000 	strne	r0, [r5]
    1f94:	15810000 	strne	r0, [r1]
    1f98:	9c030000 	stcls	0, cr0, [r3], {-0}
    1f9c:	0200000e 	andeq	r0, r0, #14
    1fa0:	cb1701ae 	blgt	5c2660 <__ROM_SIZE+0x582660>
    1fa4:	96000000 	strls	r0, [r0], -r0
    1fa8:	94000015 	strls	r0, [r0], #-21	@ 0xffffffeb
    1fac:	22000015 	andcs	r0, r0, #21
    1fb0:	00000670 	andeq	r0, r0, r0, ror r6
    1fb4:	0000000e 	andeq	r0, r0, lr
    1fb8:	00001af5 	strdeq	r1, [r0], -r5
    1fbc:	00090003 	andeq	r0, r9, r3
    1fc0:	01d00200 	bicseq	r0, r0, r0, lsl #4
    1fc4:	00041c03 	andeq	r1, r4, r3, lsl #24
    1fc8:	0015a200 	andseq	sl, r5, r0, lsl #4
    1fcc:	00159e00 	andseq	r9, r5, r0, lsl #28
    1fd0:	06780200 	ldrbteq	r0, [r8], -r0, lsl #4
    1fd4:	1cf90000 	ldclne	0, cr0, [r9]
    1fd8:	1ae40000 	bne	ff901fe0 <__StackTop+0xdf8f1fe0>
    1fdc:	01010000 	mrseq	r0, (UNDEF: 1)
    1fe0:	00700250 	rsbseq	r0, r0, r0, asr r2
    1fe4:	02510101 	subseq	r0, r1, #1073741824	@ 0x40000000
    1fe8:	0a000071 	beq	21b4 <__copy_table_end__+0xb54>
    1fec:	0000067e 	andeq	r0, r0, lr, ror r6
    1ff0:	000007b9 			@ <UNDEFINED> instruction: 0x000007b9
    1ff4:	02500101 	subseq	r0, r0, #1073741824	@ 0x40000000
    1ff8:	00000476 	andeq	r0, r0, r6, ror r4
    1ffc:	00065202 	andeq	r5, r6, r2, lsl #4
    2000:	001b2100 	andseq	r2, fp, r0, lsl #2
    2004:	001b0900 	andseq	r0, fp, r0, lsl #18
    2008:	50010100 	andpl	r0, r1, r0, lsl #2
    200c:	00007402 	andeq	r7, r0, r2, lsl #8
    2010:	0006682e 	andeq	r6, r6, lr, lsr #16
    2014:	50010100 	andpl	r0, r1, r0, lsl #2
    2018:	01013101 	tsteq	r1, r1, lsl #2
    201c:	00740251 	rsbseq	r0, r4, r1, asr r2
    2020:	02520101 	subseq	r0, r2, #1073741824	@ 0x40000000
    2024:	00000076 	andeq	r0, r0, r6, ror r0
    2028:	000ed61b 	andeq	sp, lr, fp, lsl r6
    202c:	01060200 	mrseq	r0, LR_usr
    2030:	000000cb 	andeq	r0, r0, fp, asr #1
    2034:	00000540 	andeq	r0, r0, r0, asr #10
    2038:	00000098 	muleq	r0, r8, r0
    203c:	1c129c01 	ldcne	12, cr9, [r2], {1}
    2040:	1b060000 	blne	182048 <__ROM_SIZE+0x142048>
    2044:	02000005 	andeq	r0, r0, #5
    2048:	b2270106 	eorlt	r0, r7, #-2147483647	@ 0x80000001
    204c:	bb000002 	bllt	205c <__copy_table_end__+0x9fc>
    2050:	b3000015 	movwlt	r0, #21
    2054:	06000015 			@ <UNDEFINED> instruction: 0x06000015
    2058:	000008f1 	strdeq	r0, [r0], -r1
    205c:	31010602 	tstcc	r1, r2, lsl #12
    2060:	0000005a 	andeq	r0, r0, sl, asr r0
    2064:	000015dc 	ldrdeq	r1, [r0], -ip
    2068:	000015d8 	ldrdeq	r1, [r0], -r8
    206c:	000ccf03 	andeq	ip, ip, r3, lsl #30
    2070:	01080200 	mrseq	r0, R8_fiq
    2074:	001c1217 	andseq	r1, ip, r7, lsl r2
    2078:	0015f500 	andseq	pc, r5, r0, lsl #10
    207c:	0015eb00 	andseq	lr, r5, r0, lsl #22
    2080:	05e51400 	strbeq	r1, [r5, #1024]!	@ 0x400
    2084:	09020000 	stmdbeq	r2, {}	@ <UNPREDICTABLE>
    2088:	00470701 	subeq	r0, r7, r1, lsl #14
    208c:	91020000 	mrsls	r0, (UNDEF: 2)
    2090:	00510d6c 	subseq	r0, r1, ip, ror #26
    2094:	1bb20000 	blne	fec8209c <__StackTop+0xdec7209c>
    2098:	690f0000 	stmdbvs	pc, {}	@ <UNPREDICTABLE>
    209c:	02007864 	andeq	r7, r0, #100, 16	@ 0x640000
    20a0:	5a0b0186 	bpl	2c26c0 <__ROM_SIZE+0x2826c0>
    20a4:	1b000000 	blne	20ac <__copy_table_end__+0xa4c>
    20a8:	19000016 	stmdbne	r0, {r1, r2, r4}
    20ac:	23000016 	movwcs	r0, #22
    20b0:	000005b2 			@ <UNDEFINED> instruction: 0x000005b2
    20b4:	000009fa 	strdeq	r0, [r0], -sl
    20b8:	05540200 	ldrbeq	r0, [r4, #-512]	@ 0xfffffe00
    20bc:	082a0000 	stmdaeq	sl!, {}	@ <UNPREDICTABLE>
    20c0:	1bcc0000 	blne	ff3020c8 <__StackTop+0xdf2f20c8>
    20c4:	01010000 	mrseq	r0, (UNDEF: 1)
    20c8:	00750250 	rsbseq	r0, r5, r0, asr r2
    20cc:	02510101 	subseq	r0, r1, #1073741824	@ 0x40000000
    20d0:	02006c91 	andeq	r6, r0, #37120	@ 0x9100
    20d4:	0000055e 	andeq	r0, r0, lr, asr r5
    20d8:	00001c17 	andeq	r1, r0, r7, lsl ip
    20dc:	00001be0 	andeq	r1, r0, r0, ror #23
    20e0:	02520101 	subseq	r0, r2, #1073741824	@ 0x40000000
    20e4:	02000075 	andeq	r0, r0, #117	@ 0x75
    20e8:	00000566 	andeq	r0, r0, r6, ror #10
    20ec:	00000a2a 	andeq	r0, r0, sl, lsr #20
    20f0:	00001bf4 	strdeq	r1, [r0], -r4
    20f4:	02500101 	subseq	r0, r0, #1073741824	@ 0x40000000
    20f8:	02000071 	andeq	r0, r0, #113	@ 0x71
    20fc:	00000578 	andeq	r0, r0, r8, ror r5
    2100:	00000a2a 	andeq	r0, r0, sl, lsr #20
    2104:	00001c08 	andeq	r1, r0, r8, lsl #24
    2108:	02500101 	subseq	r0, r0, #1073741824	@ 0x40000000
    210c:	23000471 	movwcs	r0, #1137	@ 0x471
    2110:	00000588 	andeq	r0, r0, r8, lsl #11
    2114:	00000a2a 	andeq	r0, r0, sl, lsr #20
    2118:	06c00900 	strbeq	r0, [r0], r0, lsl #18
    211c:	d52f0000 	strle	r0, [pc, #-0]!	@ 2124 <__copy_table_end__+0xac4>
    2120:	0200000a 	andeq	r0, r0, #10
    2124:	1c1201b8 	ldfnes	f0, [r2], {184}	@ 0xb8
    2128:	04b40000 	ldrteq	r0, [r4], #0
    212c:	00620000 	rsbeq	r0, r2, r0
    2130:	9c010000 	stcls	0, cr0, [r1], {-0}
    2134:	00001cf9 	strdeq	r1, [r0], -r9
    2138:	000ae00b 	andeq	lr, sl, fp
    213c:	27b80200 	ldrcs	r0, [r8, r0, lsl #4]!
    2140:	00001c12 	andeq	r1, r0, r2, lsl ip
    2144:	0000162f 	andeq	r1, r0, pc, lsr #12
    2148:	00001629 	andeq	r1, r0, r9, lsr #12
    214c:	0005e50b 	andeq	lr, r5, fp, lsl #10
    2150:	32b80200 	adcscc	r0, r8, #0, 4
    2154:	00000047 	andeq	r0, r0, r7, asr #32
    2158:	0000164e 	andeq	r1, r0, lr, asr #12
    215c:	00001648 	andeq	r1, r0, r8, asr #12
    2160:	0008f10b 	andeq	pc, r8, fp, lsl #2
    2164:	3cb80200 	lfmcc	f0, 4, [r8]
    2168:	0000005a 	andeq	r0, r0, sl, asr r0
    216c:	0000166f 	andeq	r1, r0, pc, ror #12
    2170:	00001669 	andeq	r1, r0, r9, ror #12
    2174:	000a771d 	andeq	r7, sl, sp, lsl r7
    2178:	07ba0200 	ldreq	r0, [sl, r0, lsl #4]!
    217c:	0000005a 	andeq	r0, r0, sl, asr r0
    2180:	0000168a 	andeq	r1, r0, sl, lsl #13
    2184:	00001688 	andeq	r1, r0, r8, lsl #13
    2188:	000f3d1d 	andeq	r3, pc, sp, lsl sp	@ <UNPREDICTABLE>
    218c:	07bb0200 	ldreq	r0, [fp, r0, lsl #4]!
    2190:	0000005a 	andeq	r0, r0, sl, asr r0
    2194:	0000169a 	muleq	r0, sl, r6
    2198:	00001692 	muleq	r0, r2, r6
    219c:	02006e15 	andeq	r6, r0, #336	@ 0x150
    21a0:	004707bc 	strheq	r0, [r7], #-124	@ 0xffffff84
    21a4:	16b10000 	ldrtne	r0, [r1], r0
    21a8:	16af0000 	strtne	r0, [pc], r0
    21ac:	9b1d0000 	blls	7421b4 <__ROM_SIZE+0x7021b4>
    21b0:	02000009 	andeq	r0, r0, #9
    21b4:	00470abc 	strheq	r0, [r7], #-172	@ 0xffffff54
    21b8:	16bb0000 	ldrtne	r0, [fp], r0
    21bc:	16b70000 	ldrtne	r0, [r7], r0
    21c0:	a11d0000 	tstge	sp, r0
    21c4:	0200000b 	andeq	r0, r0, #11
    21c8:	004710bc 	strheq	r1, [r7], #-12
    21cc:	16cb0000 	strbne	r0, [fp], r0
    21d0:	16c70000 	strbne	r0, [r7], r0
    21d4:	d8020000 	stmdale	r2, {}	@ <UNPREDICTABLE>
    21d8:	2a000004 	bcs	21f0 <__copy_table_end__+0xb90>
    21dc:	e300000a 	movw	r0, #10
    21e0:	0100001c 	tsteq	r0, ip, lsl r0
    21e4:	7a025001 	bvc	961f0 <__ROM_SIZE+0x561f0>
    21e8:	f00a0000 			@ <UNDEFINED> instruction: 0xf00a0000
    21ec:	2a000004 	bcs	2204 <__copy_table_end__+0xba4>
    21f0:	0100000a 	tsteq	r0, sl
    21f4:	75075001 	strvc	r5, [r7, #-1]
    21f8:	22007900 	andcs	r7, r0, #0, 18
    21fc:	00000823 	andeq	r0, r0, r3, lsr #16
    2200:	0003f428 	andeq	pc, r3, r8, lsr #8
    2204:	01970200 	orrseq	r0, r7, r0, lsl #4
    2208:	00000640 	andeq	r0, r0, r0, asr #12
    220c:	00000002 	andeq	r0, r0, r2
    2210:	1d2c9c01 	stcne	12, cr9, [ip, #-4]!
    2214:	63430000 	movtvs	r0, #12288	@ 0x3000
    2218:	02006166 	andeq	r6, r0, #-2147483623	@ 0x80000019
    221c:	041c1a97 	ldreq	r1, [ip], #-2711	@ 0xfffff569
    2220:	50010000 	andpl	r0, r1, r0
    2224:	0009001f 	andeq	r0, r9, pc, lsl r0
    2228:	0c980200 	lfmeq	f0, 4, [r8], {0}
    222c:	0000041c 	andeq	r0, r0, ip, lsl r4
    2230:	28005101 	stmdacs	r0, {r0, r8, ip, lr}
    2234:	000009b9 			@ <UNDEFINED> instruction: 0x000009b9
    2238:	d8018701 	stmdale	r1, {r0, r8, r9, sl, pc}
    223c:	58000005 	stmdapl	r0, {r0, r2}
    2240:	01000000 	mrseq	r0, (UNDEF: 0)
    2244:	001db99c 	mulseq	sp, ip, r9
    2248:	72763000 	rsbsvc	r3, r6, #0
    224c:	87010073 	smlsdxhi	r1, r3, r0, r0
    2250:	000e8125 	andeq	r8, lr, r5, lsr #2
    2254:	0016de00 	andseq	sp, r6, r0, lsl #28
    2258:	0016d600 	andseq	sp, r6, r0, lsl #12
    225c:	05ee0200 	strbeq	r0, [lr, #512]!	@ 0x200
    2260:	08180000 	ldmdaeq	r8, {}	@ <UNPREDICTABLE>
    2264:	1d6b0000 	stclne	0, cr0, [fp, #-0]
    2268:	01010000 	mrseq	r0, (UNDEF: 1)
    226c:	d0740350 	rsbsle	r0, r4, r0, asr r3
    2270:	02230000 	eoreq	r0, r3, #0
    2274:	06000006 	streq	r0, [r0], -r6
    2278:	02000008 	andeq	r0, r0, #8
    227c:	00000610 	andeq	r0, r0, r0, lsl r6
    2280:	000007f4 	strdeq	r0, [r0], -r4
    2284:	00001d89 	andeq	r1, r0, r9, lsl #27
    2288:	03500101 	cmpeq	r0, #1073741824	@ 0x40000000
    228c:	0001d874 	andeq	sp, r1, r4, ror r8
    2290:	00061e02 	andeq	r1, r6, r2, lsl #28
    2294:	0007e200 	andeq	lr, r7, r0, lsl #4
    2298:	001d9e00 	andseq	r9, sp, r0, lsl #28
    229c:	50010100 	andpl	r0, r1, r0, lsl #2
    22a0:	02d87403 	sbcseq	r7, r8, #50331648	@ 0x3000000
    22a4:	06301a00 	ldrteq	r1, [r0], -r0, lsl #20
    22a8:	07d00000 	ldrbeq	r0, [r0, r0]
    22ac:	01010000 	mrseq	r0, (UNDEF: 1)
    22b0:	03a30c50 			@ <UNDEFINED> instruction: 0x03a30c50
    22b4:	a82600a5 	stmdage	r6!, {r0, r2, r5, r7}
    22b8:	2300a82d 	movwcs	sl, #2093	@ 0x82d
    22bc:	000003d8 	ldrdeq	r0, [r0], -r8
    22c0:	000f0531 	andeq	r0, pc, r1, lsr r5	@ <UNPREDICTABLE>
    22c4:	00cb5e00 	sbceq	r5, fp, r0, lsl #28
    22c8:	1de90000 	stclne	0, cr0, [r9]
    22cc:	67240000 	strvs	r0, [r4, -r0]!
    22d0:	5e000010 	mcrpl	0, 0, r0, cr0, cr0, {0}
    22d4:	0003d429 	andeq	sp, r3, r9, lsr #8
    22d8:	07f72400 	ldrbeq	r2, [r7, r0, lsl #8]!
    22dc:	1b5f0000 	blne	17c22e4 <__ROM_SIZE+0x17822e4>
    22e0:	0000005a 	andeq	r0, r0, sl, asr r0
    22e4:	0009fa24 	andeq	pc, r9, r4, lsr #20
    22e8:	471b6000 	ldrmi	r6, [fp, -r0]
    22ec:	00000000 	andeq	r0, r0, r0
    22f0:	000bd831 	andeq	sp, fp, r1, lsr r8
    22f4:	003b3d00 	eorseq	r3, fp, r0, lsl #26
    22f8:	1e1b0000 	cdpne	0, 1, cr0, cr11, cr0, {0}
    22fc:	36240000 	strtcc	r0, [r4], -r0
    2300:	3d000006 	stccc	0, cr0, [r0, #-24]	@ 0xffffffe8
    2304:	00003b2d 	andeq	r3, r0, sp, lsr #22
    2308:	74704400 	ldrbtvc	r4, [r0], #-1024	@ 0xfffffc00
    230c:	3e030072 	mcrcc	0, 0, r0, cr3, cr2, {3}
    2310:	00003b2d 	andeq	r3, r0, sp, lsr #22
    2314:	6d744500 	cfldr64vs	mvdx4, [r4, #-0]
    2318:	40030070 	andmi	r0, r3, r0, ror r0
    231c:	00003b14 	andeq	r3, r0, r4, lsl fp
    2320:	05280000 	streq	r0, [r8, #-0]!
    2324:	0400000d 	streq	r0, [r0], #-13
    2328:	08c803e8 	stmiaeq	r8, {r3, r5, r6, r7, r8, r9}^
    232c:	00180000 	andseq	r0, r8, r0
    2330:	9c010000 	stcls	0, cr0, [r1], {-0}
    2334:	00001ea5 	andeq	r1, r0, r5, lsr #29
    2338:	0010670b 	andseq	r6, r0, fp, lsl #14
    233c:	23e80400 	mvncs	r0, #0, 8
    2340:	000003d4 	ldrdeq	r0, [r0], -r4
    2344:	0000170b 	andeq	r1, r0, fp, lsl #14
    2348:	00001707 	andeq	r1, r0, r7, lsl #14
    234c:	0007bf0b 	andeq	fp, r7, fp, lsl #30
    2350:	30e80400 	rsccc	r0, r8, r0, lsl #8
    2354:	00000047 	andeq	r0, r0, r7, asr #32
    2358:	00001729 	andeq	r1, r0, r9, lsr #14
    235c:	00001723 	andeq	r1, r0, r3, lsr #14
    2360:	6c617630 	stclvs	6, cr7, [r1], #-192	@ 0xffffff40
    2364:	44e80400 	strbtmi	r0, [r8], #1024	@ 0x400
    2368:	0000003b 	andeq	r0, r0, fp, lsr r0
    236c:	0000174c 	andeq	r1, r0, ip, asr #14
    2370:	00001748 	andeq	r1, r0, r8, asr #14
    2374:	0008dc0a 	andeq	sp, r8, sl, lsl #24
    2378:	000e8600 	andeq	r8, lr, r0, lsl #12
    237c:	50010100 	andpl	r0, r1, r0, lsl #2
    2380:	a503a309 	strge	sl, [r3, #-777]	@ 0xfffffcf7
    2384:	2da82600 	stccs	6, cr2, [r8]
    2388:	010100a8 	smlatbeq	r1, r8, r0, r0
    238c:	00710251 	rsbseq	r0, r1, r1, asr r2
    2390:	09520101 	ldmdbeq	r2, {r0, r8}^
    2394:	01a503a3 			@ <UNDEFINED> instruction: 0x01a503a3
    2398:	a82da826 	stmdage	sp!, {r1, r2, r5, fp, sp, pc}
    239c:	53010100 	movwpl	r0, #4352	@ 0x1100
    23a0:	01007102 	tsteq	r0, r2, lsl #2
    23a4:	02007d02 	andeq	r7, r0, #2, 26	@ 0x80
    23a8:	00000074 	andeq	r0, r0, r4, ror r0
    23ac:	0009a02f 	andeq	sl, r9, pc, lsr #32
    23b0:	03dd0400 	bicseq	r0, sp, #0, 8
    23b4:	0000003b 	andeq	r0, r0, fp, lsr r0
    23b8:	00000878 	andeq	r0, r0, r8, ror r8
    23bc:	0000001a 	andeq	r0, r0, sl, lsl r0
    23c0:	1f2e9c01 	svcne	0x002e9c01
    23c4:	670b0000 	strvs	r0, [fp, -r0]
    23c8:	04000010 	streq	r0, [r0], #-16
    23cc:	03d423dd 	bicseq	r2, r4, #1946157059	@ 0x74000003
    23d0:	17600000 	strbne	r0, [r0, -r0]!
    23d4:	175c0000 	ldrbne	r0, [ip, -r0]
    23d8:	bf0b0000 	svclt	0x000b0000
    23dc:	04000007 	streq	r0, [r0], #-7
    23e0:	004730dd 	ldrdeq	r3, [r7], #-13
    23e4:	177e0000 	ldrbne	r0, [lr, -r0]!
    23e8:	17780000 	ldrbne	r0, [r8, -r0]!
    23ec:	76460000 	strbvc	r0, [r6], -r0
    23f0:	04006c61 	streq	r6, [r0], #-3169	@ 0xfffff39f
    23f4:	005a0bdf 	ldrsbeq	r0, [sl], #-191	@ 0xffffff41
    23f8:	91020000 	mrsls	r0, (UNDEF: 2)
    23fc:	088a0a74 	stmeq	sl, {r2, r4, r5, r6, r9, fp}
    2400:	0f0d0000 	svceq	0x000d0000
    2404:	01010000 	mrseq	r0, (UNDEF: 1)
    2408:	03a30950 			@ <UNDEFINED> instruction: 0x03a30950
    240c:	a82600a5 	stmdage	r6!, {r0, r2, r5, r7}
    2410:	0100a82d 	tsteq	r0, sp, lsr #16
    2414:	71025101 	tstvc	r2, r1, lsl #2
    2418:	52010100 	andpl	r0, r1, #0, 2
    241c:	a503a309 	strge	sl, [r3, #-777]	@ 0xfffffcf7
    2420:	2da82601 	stccs	6, cr2, [r8, #4]!
    2424:	010100a8 	smlatbeq	r1, r8, r0, r0
    2428:	00710253 	rsbseq	r0, r1, r3, asr r2
    242c:	007d0201 	rsbseq	r0, sp, r1, lsl #4
    2430:	00749102 	rsbseq	r9, r4, r2, lsl #2
    2434:	1de93200 	sfmne	f3, 2, [r9]
    2438:	06300000 	ldrteq	r0, [r0], -r0
    243c:	000a0000 	andeq	r0, sl, r0
    2440:	9c010000 	stcls	0, cr0, [r1], {-0}
    2444:	00001f62 	andeq	r1, r0, r2, ror #30
    2448:	001e0225 	andseq	r0, lr, r5, lsr #4
    244c:	0017a100 	andseq	sl, r7, r0, lsl #2
    2450:	00179d00 	andseq	r9, r7, r0, lsl #26
    2454:	1e0e4700 	cdpne	7, 0, cr4, cr14, cr0, {0}
    2458:	17b20000 	ldrne	r0, [r2, r0]!
    245c:	17b00000 	ldrne	r0, [r0, r0]!
    2460:	f7480000 			@ <UNDEFINED> instruction: 0xf7480000
    2464:	0000001d 	andeq	r0, r0, sp, lsl r0
    2468:	1db93200 	lfmne	f3, 4, [r9]
    246c:	063c0000 	ldrteq	r0, [ip], -r0
    2470:	00040000 	andeq	r0, r4, r0
    2474:	9c010000 	stcls	0, cr0, [r1], {-0}
    2478:	00001f9d 	muleq	r0, sp, pc	@ <UNPREDICTABLE>
    247c:	001ddd25 	andseq	sp, sp, r5, lsr #26
    2480:	0017bc00 	andseq	fp, r7, r0, lsl #24
    2484:	0017ba00 	andseq	fp, r7, r0, lsl #20
    2488:	1dd22500 	cfldr64ne	mvdx2, [r2]
    248c:	17cb0000 	strbne	r0, [fp, r0]
    2490:	17c90000 	strbne	r0, [r9, r0]
    2494:	c7250000 	strgt	r0, [r5, -r0]!
    2498:	da00001d 	ble	2514 <__copy_table_end__+0xeb4>
    249c:	d8000017 	stmdale	r0, {r0, r1, r2, r4}
    24a0:	00000017 	andeq	r0, r0, r7, lsl r0
    24a4:	0007a549 	andeq	sl, r7, r9, asr #10
    24a8:	00079b00 	andeq	r9, r7, r0, lsl #22
    24ac:	00000500 	andeq	r0, r0, r0, lsl #10
    24b0:	000000b3 	strheq	r0, [r0], -r3
    24b4:	04010005 	streq	r0, [r1], #-5
    24b8:	00000691 	muleq	r0, r1, r6
    24bc:	00140601 	andseq	r0, r4, r1, lsl #12
    24c0:	000f0000 	andeq	r0, pc, r0
    24c4:	4503aa00 	strmi	sl, [r3, #-2560]	@ 0xfffff600
    24c8:	3700000f 	strcc	r0, [r0, -pc]
    24cc:	7500000c 	strvc	r0, [r0, #-12]
    24d0:	01000000 	mrseq	r0, (UNDEF: 0)
    24d4:	0f750280 	svceq	0x00750280
    24d8:	01b50000 			@ <UNDEFINED> instruction: 0x01b50000
    24dc:	00000f01 	andeq	r0, r0, r1, lsl #30
    24e0:	0f770218 	svceq	0x00770218
    24e4:	01b50000 			@ <UNDEFINED> instruction: 0x01b50000
    24e8:	00000f01 	andeq	r0, r0, r1, lsl #30
    24ec:	0f890218 	svceq	0x00890218
    24f0:	01b50000 			@ <UNDEFINED> instruction: 0x01b50000
    24f4:	00000ff9 	strdeq	r0, [r0], -r9
    24f8:	0f8b0222 	svceq	0x008b0222
    24fc:	01b50000 			@ <UNDEFINED> instruction: 0x01b50000
    2500:	00000ff9 	strdeq	r0, [r0], -r9
    2504:	0fa20222 	svceq	0x00a20222
    2508:	01b50000 			@ <UNDEFINED> instruction: 0x01b50000
    250c:	0000101d 	andeq	r1, r0, sp, lsl r0
    2510:	0fa40222 	svceq	0x00a40222
    2514:	01b50000 			@ <UNDEFINED> instruction: 0x01b50000
    2518:	0000101d 	andeq	r1, r0, sp, lsl r0
    251c:	0fb30222 	svceq	0x00b30222
    2520:	01b50000 			@ <UNDEFINED> instruction: 0x01b50000
    2524:	00001041 	andeq	r1, r0, r1, asr #32
    2528:	0fb50222 	svceq	0x00b50222
    252c:	01b50000 			@ <UNDEFINED> instruction: 0x01b50000
    2530:	00001041 	andeq	r1, r0, r1, asr #32
    2534:	0fcf0222 	svceq	0x00cf0222
    2538:	01b50000 			@ <UNDEFINED> instruction: 0x01b50000
    253c:	00001065 	andeq	r1, r0, r5, rrx
    2540:	0fd10222 	svceq	0x00d10222
    2544:	01b50000 			@ <UNDEFINED> instruction: 0x01b50000
    2548:	00001065 	andeq	r1, r0, r5, rrx
    254c:	0fe60222 	svceq	0x00e60222
    2550:	01b50000 			@ <UNDEFINED> instruction: 0x01b50000
    2554:	00001089 	andeq	r1, r0, r9, lsl #1
    2558:	0fe80222 	svceq	0x00e80222
    255c:	01b50000 			@ <UNDEFINED> instruction: 0x01b50000
    2560:	00001089 	andeq	r1, r0, r9, lsl #1
    2564:	dd000322 	stcle	3, cr0, [r0, #-136]	@ 0xffffff78
    2568:	0500000a 	streq	r0, [r0, #-10]
    256c:	b9040100 	stmdblt	r4, {r8}
    2570:	19000006 	stmdbne	r0, {r1, r2}
    2574:	00000d5c 	andeq	r0, r0, ip, asr sp
    2578:	0010861d 	andseq	r8, r0, sp, lsl r6
    257c:	000c3700 	andeq	r3, ip, r0, lsl #14
    2580:	00013c00 	andeq	r3, r1, r0, lsl #24
    2584:	00000000 	andeq	r0, r0, r0
    2588:	00149d00 	andseq	r9, r4, r0, lsl #26
    258c:	07080700 	streq	r0, [r8, -r0, lsl #14]
    2590:	000002e0 	andeq	r0, r0, r0, ror #5
    2594:	ea070407 	b	1c35b8 <__ROM_SIZE+0x1835b8>
    2598:	06000002 	streq	r0, [r0], -r2
    259c:	00000b43 	andeq	r0, r0, r3, asr #22
    25a0:	002d1423 	eoreq	r1, sp, r3, lsr #8
    25a4:	041a0000 	ldreq	r0, [sl], #-0
    25a8:	746e6905 	strbtvc	r6, [lr], #-2309	@ 0xfffff6fb
    25ac:	04470600 	strbeq	r0, [r7], #-1536	@ 0xfffffa00
    25b0:	14250000 	strtne	r0, [r5], #-0
    25b4:	0000002d 	andeq	r0, r0, sp, lsr #32
    25b8:	77755f1b 			@ <UNDEFINED> instruction: 0x77755f1b
    25bc:	18270200 	stmdane	r7!, {r9}
    25c0:	00000034 	andeq	r0, r0, r4, lsr r0
    25c4:	9b070207 	blls	1c2de8 <__ROM_SIZE+0x182de8>
    25c8:	06000002 	streq	r0, [r0], -r2
    25cc:	00000a72 	andeq	r0, r0, r2, ror sl
    25d0:	006f142a 	rsbeq	r1, pc, sl, lsr #8
    25d4:	01070000 	mrseq	r0, (UNDEF: 7)
    25d8:	00021208 	andeq	r1, r2, r8, lsl #4
    25dc:	006f0d00 	rsbeq	r0, pc, r0, lsl #26
    25e0:	ab2d0000 	blge	b425e8 <__ROM_SIZE+0xb025e8>
    25e4:	03000000 	movweq	r0, #0
    25e8:	00000760 	andeq	r0, r0, r0, ror #14
    25ec:	06f40300 	ldrbteq	r0, [r4], r0, lsl #6
    25f0:	03010000 	movweq	r0, #4096	@ 0x1000
    25f4:	0000095f 	andeq	r0, r0, pc, asr r9
    25f8:	07c50305 	strbeq	r0, [r5, r5, lsl #6]
    25fc:	03060000 	movweq	r0, #24576	@ 0x6000
    2600:	0000041d 	andeq	r0, r0, sp, lsl r4
    2604:	0d470307 	stcleq	3, cr0, [r7, #-28]	@ 0xffffffe4
    2608:	03080000 	movweq	r0, #32768	@ 0x8000
    260c:	00000649 	andeq	r0, r0, r9, asr #12
    2610:	a9060009 	stmdbge	r6, {r0, r3}
    2614:	3600000a 	strcc	r0, [r0], -sl
    2618:	00007603 	andeq	r7, r0, r3, lsl #12
    261c:	073e0600 	ldreq	r0, [lr, -r0, lsl #12]!
    2620:	284c0000 	stmdacs	ip, {}^	@ <UNPREDICTABLE>
    2624:	000000c1 	andeq	r0, r0, r1, asr #1
    2628:	00073e1c 	andeq	r3, r7, ip, lsl lr
    262c:	53025800 	movwpl	r5, #10240	@ 0x2800
    2630:	0001170a 	andeq	r1, r1, sl, lsl #14
    2634:	084c0400 	stmdaeq	ip, {sl}^
    2638:	0c550000 	mraeq	r0, r5, acc0
    263c:	0000020b 	andeq	r0, r0, fp, lsl #4
    2640:	047a0400 	ldrbteq	r0, [sl], #-1024	@ 0xfffffc00
    2644:	0e560000 	cdpeq	0, 5, cr0, cr6, cr0, {0}
    2648:	00000237 	andeq	r0, r0, r7, lsr r2
    264c:	0a020408 	beq	83674 <__ROM_SIZE+0x43674>
    2650:	07600000 	strbeq	r0, [r0, -r0]!
    2654:	00000132 	andeq	r0, r0, r2, lsr r1
    2658:	063b040c 	ldrteq	r0, [fp], -ip, lsl #8
    265c:	07670000 	strbeq	r0, [r7, -r0]!
    2660:	00000177 	andeq	r0, r0, r7, ror r1
    2664:	09390420 	ldmdbeq	r9!, {r5, sl}
    2668:	076d0000 	strbeq	r0, [sp, -r0]!
    266c:	000001a8 	andeq	r0, r0, r8, lsr #3
    2670:	076d0438 			@ <UNDEFINED> instruction: 0x076d0438
    2674:	07760000 	ldrbeq	r0, [r6, -r0]!
    2678:	000001cd 	andeq	r0, r0, sp, asr #3
    267c:	32060048 	andcc	r0, r6, #72	@ 0x48
    2680:	4d000004 	stcmi	0, cr0, [r0, #-16]
    2684:	00012222 	andeq	r2, r1, r2, lsr #4
    2688:	04321d00 	ldrteq	r1, [r2], #-3328	@ 0xfffff300
    268c:	bc060000 	stclt	0, cr0, [r6], {-0}
    2690:	4e000005 	cdpmi	0, 0, cr0, cr0, cr5, {0}
    2694:	0000510f 	andeq	r5, r0, pc, lsl #2
    2698:	58140b00 	ldmdapl	r4, {r8, r9, fp}
    269c:	00017707 	andeq	r7, r1, r7, lsl #14
    26a0:	0e4e0400 	cdpeq	4, 4, cr0, cr14, cr0, {0}
    26a4:	085a0000 	ldmdaeq	sl, {}^	@ <UNPREDICTABLE>
    26a8:	00000051 	andeq	r0, r0, r1, asr r0
    26ac:	0e580400 	cdpeq	4, 5, cr0, cr8, cr0, {0}
    26b0:	085b0000 	ldmdaeq	fp, {}^	@ <UNPREDICTABLE>
    26b4:	00000051 	andeq	r0, r0, r1, asr r0
    26b8:	0e620404 	cdpeq	4, 6, cr0, cr2, cr4, {0}
    26bc:	085c0000 	ldmdaeq	ip, {}^	@ <UNPREDICTABLE>
    26c0:	00000051 	andeq	r0, r0, r1, asr r0
    26c4:	0e6c0408 	cdpeq	4, 6, cr0, cr12, cr8, {0}
    26c8:	085d0000 	ldmdaeq	sp, {}^	@ <UNPREDICTABLE>
    26cc:	00000051 	andeq	r0, r0, r1, asr r0
    26d0:	0e76040c 	cdpeq	4, 7, cr0, cr6, cr12, {0}
    26d4:	085e0000 	ldmdaeq	lr, {}^	@ <UNPREDICTABLE>
    26d8:	00000051 	andeq	r0, r0, r1, asr r0
    26dc:	180b0010 	stmdane	fp, {r4}
    26e0:	01980762 	orrseq	r0, r8, r2, ror #14
    26e4:	731e0000 	tstvc	lr, #0
    26e8:	64020070 	strvs	r0, [r2], #-112	@ 0xffffff90
    26ec:	00005108 	andeq	r5, r0, r8, lsl #2
    26f0:	e9040000 	stmdb	r4, {}	@ <UNPREDICTABLE>
    26f4:	65000003 	strvs	r0, [r0, #-3]
    26f8:	00019808 	andeq	r9, r1, r8, lsl #16
    26fc:	0f000400 	svceq	0x00000400
    2700:	00000051 	andeq	r0, r0, r1, asr r0
    2704:	000001a8 	andeq	r0, r0, r8, lsr #3
    2708:	00002d10 	andeq	r2, r0, r0, lsl sp
    270c:	0b000400 	bleq	3714 <__copy_table_end__+0x20b4>
    2710:	bd076910 	vstrlt.16	s12, [r7, #-32]	@ 0xffffffe0	@ <UNPREDICTABLE>
    2714:	04000001 	streq	r0, [r0], #-1
    2718:	000003e9 	andeq	r0, r0, r9, ror #7
    271c:	01bd086b 			@ <UNDEFINED> instruction: 0x01bd086b
    2720:	00000000 	andeq	r0, r0, r0
    2724:	0000510f 	andeq	r5, r0, pc, lsl #2
    2728:	0001cd00 	andeq	ip, r1, r0, lsl #26
    272c:	002d1000 	eoreq	r1, sp, r0
    2730:	00030000 	andeq	r0, r3, r0
    2734:	076f100b 	strbeq	r1, [pc, -fp]!
    2738:	00000206 	andeq	r0, r0, r6, lsl #4
    273c:	00079304 	andeq	r9, r7, r4, lsl #6
    2740:	51087100 	mrspl	r7, (UNDEF: 24)
    2744:	00000000 	andeq	r0, r0, r0
    2748:	00044204 	andeq	r4, r4, r4, lsl #4
    274c:	06187200 	ldreq	r7, [r8], -r0, lsl #4
    2750:	04000002 	streq	r0, [r0], #-2
    2754:	000bcd04 	andeq	ip, fp, r4, lsl #26
    2758:	51087300 	mrspl	r7, (UNDEF: 56)
    275c:	08000000 	stmdaeq	r0, {}	@ <UNPREDICTABLE>
    2760:	000e4e04 	andeq	r4, lr, r4, lsl #28
    2764:	51087400 	tstpl	r8, r0, lsl #8
    2768:	0c000000 	stceq	0, cr0, [r0], {-0}
    276c:	01270900 			@ <UNDEFINED> instruction: 0x01270900
    2770:	1b0f0000 	blne	3c2778 <__ROM_SIZE+0x382778>
    2774:	1b000002 	blne	2784 <__copy_table_end__+0x1124>
    2778:	10000002 	andne	r0, r0, r2
    277c:	0000002d 	andeq	r0, r0, sp, lsr #32
    2780:	01070007 	tsteq	r7, r7
    2784:	00021b08 	andeq	r1, r2, r8, lsl #22
    2788:	02321f00 	eorseq	r1, r2, #0, 30
    278c:	ab050000 	blge	142794 <__ROM_SIZE+0x102794>
    2790:	05000000 	streq	r0, [r0, #-0]
    2794:	00000232 	andeq	r0, r0, r2, lsr r2
    2798:	00b60900 	adcseq	r0, r6, r0, lsl #18
    279c:	22090000 	andcs	r0, r9, #0
    27a0:	0d000002 	stceq	0, cr0, [r0, #-8]
    27a4:	0000006f 	andeq	r0, r0, pc, rrx
    27a8:	00026b7d 	andeq	r6, r2, sp, ror fp
    27ac:	09cf0300 	stmibeq	pc, {r8, r9}^	@ <UNPREDICTABLE>
    27b0:	03000000 	movweq	r0, #0
    27b4:	00000776 	andeq	r0, r0, r6, ror r7
    27b8:	09ae0301 	stmibeq	lr!, {r0, r8, r9}
    27bc:	03020000 	movweq	r0, #8192	@ 0x2000
    27c0:	00000947 	andeq	r0, r0, r7, asr #18
    27c4:	0a970303 	beq	fe5c33d8 <__StackTop+0xde5b33d8>
    27c8:	03040000 	movweq	r0, #16384	@ 0x4000
    27cc:	00000a8c 	andeq	r0, r0, ip, lsl #21
    27d0:	fc060005 	stc2	0, cr0, [r6], {5}
    27d4:	85000007 	strhi	r0, [r0, #-7]
    27d8:	00023c03 	andeq	r3, r2, r3, lsl #24
    27dc:	006f0d00 	rsbeq	r0, pc, r0, lsl #26
    27e0:	a5880000 	strge	r0, [r8]
    27e4:	03000002 	movweq	r0, #2
    27e8:	00000e1d 	andeq	r0, r0, sp, lsl lr
    27ec:	0c210300 	stceq	3, cr0, [r1], #-0
    27f0:	03010000 	movweq	r0, #4096	@ 0x1000
    27f4:	00000781 	andeq	r0, r0, r1, lsl #15
    27f8:	0e800302 	cdpeq	3, 8, cr0, cr0, cr2, {0}
    27fc:	03030000 	movweq	r0, #12288	@ 0x3000
    2800:	0000056f 	andeq	r0, r0, pc, ror #10
    2804:	07270304 	streq	r0, [r7, -r4, lsl #6]!
    2808:	00050000 	andeq	r0, r5, r0
    280c:	0007d806 	andeq	sp, r7, r6, lsl #16
    2810:	76039000 	strvc	r9, [r3], -r0
    2814:	0d000002 	stceq	0, cr0, [r0, #-8]
    2818:	0000006f 	andeq	r0, r0, pc, rrx
    281c:	0002cd93 	muleq	r2, r3, sp
    2820:	0c2d0300 	stceq	3, cr0, [sp], #-0
    2824:	03000000 	movweq	r0, #0
    2828:	00000835 	andeq	r0, r0, r5, lsr r8
    282c:	0e8e0301 	cdpeq	3, 8, cr0, cr14, cr1, {0}
    2830:	00020000 	andeq	r0, r2, r0
    2834:	00085c06 	andeq	r5, r8, r6, lsl #24
    2838:	b0039800 	andlt	r9, r3, r0, lsl #16
    283c:	0b000002 	bleq	284c <__copy_table_end__+0x11ec>
    2840:	110b9b0c 	tstne	fp, ip, lsl #22
    2844:	04000003 	streq	r0, [r0], #-3
    2848:	000007f7 	strdeq	r0, [r0], -r7
    284c:	00510b9e 			@ <UNDEFINED> instruction: 0x00510b9e
    2850:	04000000 	streq	r0, [r0], #-0
    2854:	0000055b 	andeq	r0, r0, fp, asr r5
    2858:	03110ca0 	tsteq	r1, #160, 24	@ 0xa000
    285c:	04040000 	streq	r0, [r4], #-0
    2860:	00000954 	andeq	r0, r0, r4, asr r9
    2864:	00640ca2 	rsbeq	r0, r4, r2, lsr #25
    2868:	04080000 	streq	r0, [r8], #-0
    286c:	00000995 	muleq	r0, r5, r9
    2870:	00640ca4 	rsbeq	r0, r4, r4, lsr #25
    2874:	00090000 	andeq	r0, r9, r0
    2878:	00005109 	andeq	r5, r0, r9, lsl #2
    287c:	0f210600 	svceq	0x00210600
    2880:	03a60000 			@ <UNDEFINED> instruction: 0x03a60000
    2884:	000002d8 	ldrdeq	r0, [r0], -r8
    2888:	00011709 	andeq	r1, r1, r9, lsl #14
    288c:	07042000 	streq	r2, [r4, -r0]
    2890:	034d0504 	movteq	r0, #54532	@ 0xd504
    2894:	04070000 	streq	r0, [r7], #-0
    2898:	0002e507 	andeq	lr, r2, r7, lsl #10
    289c:	10512100 	subsne	r2, r1, r0, lsl #2
    28a0:	1d010000 	stcne	0, cr0, [r1, #-0]
    28a4:	04c4110d 	strbeq	r1, [r4], #269	@ 0x10d
    28a8:	cdb30000 	ldcgt	0, cr0, [r3]
    28ac:	61000002 	tstvs	r0, r2
    28b0:	05000003 	streq	r0, [r0, #-3]
    28b4:	00000321 	andeq	r0, r0, r1, lsr #6
    28b8:	00026b05 	andeq	r6, r2, r5, lsl #22
    28bc:	00510500 	subseq	r0, r1, r0, lsl #10
    28c0:	a5050000 	strge	r0, [r5, #-0]
    28c4:	00000002 	andeq	r0, r0, r2
    28c8:	00090811 	andeq	r0, r9, r1, lsl r8
    28cc:	02cdab00 	sbceq	sl, sp, #0, 22
    28d0:	03890000 	orreq	r0, r9, #0
    28d4:	21050000 	mrscs	r0, (UNDEF: 5)
    28d8:	05000003 	streq	r0, [r0, #-3]
    28dc:	0000026b 	andeq	r0, r0, fp, ror #4
    28e0:	00005105 	andeq	r5, r0, r5, lsl #2
    28e4:	02a50500 	adceq	r0, r5, #0, 10
    28e8:	26050000 	strcs	r0, [r5], -r0
    28ec:	00000003 	andeq	r0, r0, r3
    28f0:	00052011 	andeq	r2, r5, r1, lsl r0
    28f4:	02cdaf00 	sbceq	sl, sp, #0, 30
    28f8:	03b10000 			@ <UNDEFINED> instruction: 0x03b10000
    28fc:	21050000 	mrscs	r0, (UNDEF: 5)
    2900:	05000003 	streq	r0, [r0, #-3]
    2904:	0000026b 	andeq	r0, r0, fp, ror #4
    2908:	00005105 	andeq	r5, r0, r5, lsl #2
    290c:	02a50500 	adceq	r0, r5, #0, 10
    2910:	26050000 	strcs	r0, [r5], -r0
    2914:	00000003 	andeq	r0, r0, r3
    2918:	00106f22 	andseq	r6, r0, r2, lsr #30
    291c:	0fc00200 	svceq	0x00c00200
    2920:	00000046 	andeq	r0, r0, r6, asr #32
    2924:	000003cf 	andeq	r0, r0, pc, asr #7
    2928:	00106723 	andseq	r6, r0, r3, lsr #14
    292c:	01b00100 	lslseq	r0, r0, #2
    2930:	0003212a 	andeq	r2, r3, sl, lsr #2
    2934:	c80c0000 	stmdagt	ip, {}	@ <UNPREDICTABLE>
    2938:	be000010 	mcrlt	0, 0, r0, cr0, cr0, {0}
    293c:	0000460f 	andeq	r4, r0, pc, lsl #12
    2940:	00000000 	andeq	r0, r0, r0
    2944:	00000600 	andeq	r0, r0, r0, lsl #12
    2948:	069c0100 	ldreq	r0, [ip], r0, lsl #2
    294c:	0a000004 	beq	2964 <__copy_table_end__+0x1304>
    2950:	00001067 	andeq	r1, r0, r7, rrx
    2954:	212a01aa 	smulwbcs	sl, sl, r1
    2958:	f7000003 			@ <UNDEFINED> instruction: 0xf7000003
    295c:	f3000017 	vqadd.u8	d0, d0, d7
    2960:	24000017 	strcs	r0, [r0], #-23	@ 0xffffffe9
    2964:	00000000 	andeq	r0, r0, r0
    2968:	00000336 	andeq	r0, r0, r6, lsr r3
    296c:	102a0c00 	eorne	r0, sl, r0, lsl #24
    2970:	0aee0000 	beq	ffb82978 <__StackTop+0xdfb72978>
    2974:	00000326 	andeq	r0, r0, r6, lsr #6
    2978:	0000143c 	andeq	r1, r0, ip, lsr r4
    297c:	00000012 	andeq	r0, r0, r2, lsl r0
    2980:	04719c01 	ldrbteq	r9, [r1], #-3073	@ 0xfffff3ff
    2984:	670a0000 	strvs	r0, [sl, -r0]
    2988:	96000010 			@ <UNDEFINED> instruction: 0x96000010
    298c:	03213401 			@ <UNDEFINED> instruction: 0x03213401
    2990:	18140000 	ldmdane	r4, {}	@ <UNPREDICTABLE>
    2994:	18100000 	ldmdane	r0, {}	@ <UNPREDICTABLE>
    2998:	1b120000 	blne	4829a0 <__ROM_SIZE+0x4429a0>
    299c:	98000005 	stmdals	r0, {r0, r2}
    29a0:	00023201 	andeq	r3, r2, r1, lsl #4
    29a4:	00182f00 	andseq	r2, r8, r0, lsl #30
    29a8:	00182d00 	andseq	r2, r8, r0, lsl #26
    29ac:	74701300 	ldrbtvc	r1, [r0], #-768	@ 0xfffffd00
    29b0:	01990072 	orrseq	r0, r9, r2, ror r0
    29b4:	00000311 	andeq	r0, r0, r1, lsl r3
    29b8:	0000183c 	andeq	r1, r0, ip, lsr r8
    29bc:	00001838 	andeq	r1, r0, r8, lsr r8
    29c0:	00144208 	andseq	r4, r4, r8, lsl #4
    29c4:	0004c900 	andeq	ip, r4, r0, lsl #18
    29c8:	50010100 	andpl	r0, r1, r0, lsl #2
    29cc:	a503a309 	strge	sl, [r3, #-777]	@ 0xfffffcf7
    29d0:	2da82600 	stccs	6, cr2, [r8]
    29d4:	000000a8 	andeq	r0, r0, r8, lsr #1
    29d8:	000ffa0c 	andeq	pc, pc, ip, lsl #20
    29dc:	460fed00 	strmi	lr, [pc], -r0, lsl #26
    29e0:	30000000 	andcc	r0, r0, r0
    29e4:	0a000014 	beq	2a3c <__copy_table_end__+0x13dc>
    29e8:	01000000 	mrseq	r0, (UNDEF: 0)
    29ec:	0004c99c 	muleq	r4, ip, r9
    29f0:	10670a00 	rsbne	r0, r7, r0, lsl #20
    29f4:	018b0000 	orreq	r0, fp, r0
    29f8:	0003212b 	andeq	r2, r3, fp, lsr #2
    29fc:	00185200 	andseq	r5, r8, r0, lsl #4
    2a00:	00184e00 	andseq	r4, r8, r0, lsl #28
    2a04:	051b1200 	ldreq	r1, [fp, #-512]	@ 0xfffffe00
    2a08:	018d0000 	orreq	r0, sp, r0
    2a0c:	00000232 	andeq	r0, r0, r2, lsr r2
    2a10:	0000186d 	andeq	r1, r0, sp, ror #16
    2a14:	0000186b 	andeq	r1, r0, fp, ror #16
    2a18:	00143608 	andseq	r3, r4, r8, lsl #12
    2a1c:	0004c900 	andeq	ip, r4, r0, lsl #18
    2a20:	50010100 	andpl	r0, r1, r0, lsl #2
    2a24:	a503a309 	strge	sl, [r3, #-777]	@ 0xfffffcf7
    2a28:	2da82600 	stccs	6, cr2, [r8]
    2a2c:	000000a8 	andeq	r0, r0, r8, lsr #1
    2a30:	00105725 	andseq	r5, r0, r5, lsr #14
    2a34:	01830100 	orreq	r0, r3, r0, lsl #2
    2a38:	00023201 	andeq	r3, r2, r1, lsl #4
    2a3c:	00110000 	andseq	r0, r1, r0
    2a40:	00000200 	andeq	r0, r0, r0, lsl #4
    2a44:	179c0100 	ldrne	r0, [ip, r0, lsl #2]
    2a48:	0a000005 	beq	2a64 <__copy_table_end__+0x1404>
    2a4c:	00001067 	andeq	r1, r0, r7, rrx
    2a50:	212c0183 	smlawbcs	ip, r3, r1, r0
    2a54:	7a000003 	bvc	2a68 <__copy_table_end__+0x1408>
    2a58:	76000018 			@ <UNDEFINED> instruction: 0x76000018
    2a5c:	26000018 			@ <UNDEFINED> instruction: 0x26000018
    2a60:	00001102 	andeq	r1, r0, r2, lsl #2
    2a64:	00000a88 	andeq	r0, r0, r8, lsl #21
    2a68:	09500101 	ldmdbeq	r0, {r0, r8}^
    2a6c:	00a503a3 	adceq	r0, r5, r3, lsr #7
    2a70:	a82da826 	stmdage	sp!, {r1, r2, r5, fp, sp, pc}
    2a74:	0a702700 	beq	1c0c67c <__ROM_SIZE+0x1bcc67c>
    2a78:	3c010000 	stccc	0, cr0, [r1], {-0}
    2a7c:	170c0000 	strne	r0, [ip, -r0]
    2a80:	d7000010 	smladle	r0, r0, r0, r0
    2a84:	0000ab17 	andeq	sl, r0, r7, lsl fp
    2a88:	00140000 	andseq	r0, r4, r0
    2a8c:	00002e00 	andeq	r2, r0, r0, lsl #28
    2a90:	999c0100 	ldmibls	ip, {r8}
    2a94:	0a000005 	beq	2ab0 <__copy_table_end__+0x1450>
    2a98:	0000051b 	andeq	r0, r0, fp, lsl r5
    2a9c:	322d016f 	eorcc	r0, sp, #-1073741797	@ 0xc000001b
    2aa0:	97000002 	strls	r0, [r0, -r2]
    2aa4:	93000018 	movwls	r0, #24
    2aa8:	0a000018 	beq	2b10 <__copy_table_end__+0x14b0>
    2aac:	00001067 	andeq	r1, r0, r7, rrx
    2ab0:	2145016f 	cmpcs	r5, pc, ror #2
    2ab4:	b6000003 	strlt	r0, [r0], -r3
    2ab8:	b0000018 	andlt	r0, r0, r8, lsl r0
    2abc:	13000018 	movwne	r0, #24
    2ac0:	00727470 	rsbseq	r7, r2, r0, ror r4
    2ac4:	03110171 	tsteq	r1, #1073741852	@ 0x4000001c
    2ac8:	18dc0000 	ldmne	ip, {}^	@ <UNPREDICTABLE>
    2acc:	18d40000 	ldmne	r4, {}^	@ <UNPREDICTABLE>
    2ad0:	75280000 	strvc	r0, [r8, #-0]!
    2ad4:	01007377 	tsteq	r0, r7, ror r3
    2ad8:	16160172 			@ <UNDEFINED> instruction: 0x16160172
    2adc:	02000003 	andeq	r0, r0, #3
    2ae0:	28086c91 	stmdacs	r8, {r0, r4, r7, sl, fp, sp, lr}
    2ae4:	99000014 	stmdbls	r0, {r2, r4}
    2ae8:	01000005 	tsteq	r0, r5
    2aec:	a3095001 	movwge	r5, #36865	@ 0x9001
    2af0:	2601a503 	strcs	sl, [r1], -r3, lsl #10
    2af4:	00a82da8 	adceq	r2, r8, r8, lsr #27
    2af8:	02510101 	subseq	r0, r1, #1073741824	@ 0x40000000
    2afc:	00006c91 	muleq	r0, r1, ip
    2b00:	0004de0c 	andeq	sp, r4, ip, lsl #28
    2b04:	ab17d900 	blge	5f8f0c <__ROM_SIZE+0x5b8f0c>
    2b08:	04000000 	streq	r0, [r0], #-0
    2b0c:	fa000011 	blx	2b58 <__copy_table_end__+0x14f8>
    2b10:	01000002 	tsteq	r0, r2
    2b14:	000a109c 	muleq	sl, ip, r0
    2b18:	10672900 	rsbne	r2, r7, r0, lsl #18
    2b1c:	69010000 	stmdbvs	r1, {}	@ <UNPREDICTABLE>
    2b20:	00032129 	andeq	r2, r3, r9, lsr #2
    2b24:	00190300 	andseq	r0, r9, r0, lsl #6
    2b28:	0018ff00 	andseq	pc, r8, r0, lsl #30
    2b2c:	77751400 	ldrbvc	r1, [r5, -r0, lsl #8]!
    2b30:	47690073 			@ <UNDEFINED> instruction: 0x47690073
    2b34:	00000a10 	andeq	r0, r0, r0, lsl sl
    2b38:	00001918 	andeq	r1, r0, r8, lsl r9
    2b3c:	00001914 	andeq	r1, r0, r4, lsl r9
    2b40:	00706f15 	rsbseq	r6, r0, r5, lsl pc
    2b44:	0051076b 	subseq	r0, r1, fp, ror #14
    2b48:	19850000 	stmibne	r5, {}	@ <UNPREDICTABLE>
    2b4c:	19290000 	stmdbne	r9!, {}	@ <UNPREDICTABLE>
    2b50:	4a0e0000 	bmi	382b58 <__ROM_SIZE+0x342b58>
    2b54:	6c000010 	stcvs	0, cr0, [r0], {16}
    2b58:	00003f07 	andeq	r3, r0, r7, lsl #30
    2b5c:	001b4500 	andseq	r4, fp, r0, lsl #10
    2b60:	001b3d00 	andseq	r3, fp, r0, lsl #26
    2b64:	65721600 	ldrbvs	r1, [r2, #-1536]!	@ 0xfffffa00
    2b68:	51710067 	cmnpl	r1, r7, rrx
    2b6c:	02000000 	andeq	r0, r0, #0
    2b70:	73165891 	tstvc	r6, #9502720	@ 0x910000
    2b74:	51720070 	cmnpl	r2, r0, ror r0
    2b78:	02000000 	andeq	r0, r0, #0
    2b7c:	22175c91 	andscs	r5, r7, #37120	@ 0x9100
    2b80:	84000001 	strhi	r0, [r0], #-1
    2b84:	0e000006 	cdpeq	0, 0, cr0, cr0, cr6, {0}
    2b88:	00000f36 	andeq	r0, r0, r6, lsr pc
    2b8c:	0051089f 			@ <UNDEFINED> instruction: 0x0051089f
    2b90:	1b690000 	blne	1a42b98 <__ROM_SIZE+0x1a02b98>
    2b94:	1b650000 	blne	1942b9c <__ROM_SIZE+0x1902b9c>
    2b98:	f8020000 			@ <UNDEFINED> instruction: 0xf8020000
    2b9c:	89000011 	stmdbhi	r0, {r0, r4}
    2ba0:	5d000003 	stcpl	0, cr0, [r0, #-12]
    2ba4:	01000006 	tsteq	r0, r6
    2ba8:	76025001 	strvc	r5, [r2], -r1
    2bac:	51010100 	mrspl	r0, (UNDEF: 17)
    2bb0:	01013001 	tsteq	r1, r1
    2bb4:	013d0152 	teqeq	sp, r2, asr r1
    2bb8:	30015301 	andcc	r5, r1, r1, lsl #6
    2bbc:	007d0201 	rsbseq	r0, sp, r1, lsl #4
    2bc0:	00007902 	andeq	r7, r0, r2, lsl #18
    2bc4:	00121408 	andseq	r1, r2, r8, lsl #8
    2bc8:	00036100 	andeq	r6, r3, r0, lsl #2
    2bcc:	50010100 	andpl	r0, r1, r0, lsl #2
    2bd0:	01007602 	tsteq	r0, r2, lsl #12
    2bd4:	30015101 	andcc	r5, r1, r1, lsl #2
    2bd8:	01520101 	cmpeq	r2, r1, lsl #2
    2bdc:	5301013d 	movwpl	r0, #4413	@ 0x113d
    2be0:	02013001 	andeq	r3, r1, #1
    2be4:	7902007d 	stmdbvc	r2, {r0, r2, r3, r4, r5, r6}
    2be8:	2a000000 	bcs	2bf0 <__copy_table_end__+0x1590>
    2bec:	00001162 	andeq	r1, r0, r2, ror #2
    2bf0:	00000018 	andeq	r0, r0, r8, lsl r0
    2bf4:	000006a5 	andeq	r0, r0, r5, lsr #13
    2bf8:	0007680e 	andeq	r6, r7, lr, lsl #16
    2bfc:	5108ca00 	tstpl	r8, r0, lsl #20
    2c00:	84000000 	strhi	r0, [r0], #-0
    2c04:	8200001b 	andhi	r0, r0, #27
    2c08:	0000001b 	andeq	r0, r0, fp, lsl r0
    2c0c:	00013017 	andeq	r3, r1, r7, lsl r0
    2c10:	00073a00 	andeq	r3, r7, r0, lsl #20
    2c14:	10110e00 	andsne	r0, r1, r0, lsl #28
    2c18:	0ce60000 	stcleq	0, cr0, [r6]
    2c1c:	0000003f 	andeq	r0, r0, pc, lsr r0
    2c20:	00001b91 	muleq	r0, r1, fp
    2c24:	00001b8d 	andeq	r1, r0, sp, lsl #23
    2c28:	0012c402 	andseq	ip, r2, r2, lsl #8
    2c2c:	00038900 	andeq	r8, r3, r0, lsl #18
    2c30:	0006eb00 	andeq	lr, r6, r0, lsl #22
    2c34:	50010100 	andpl	r0, r1, r0, lsl #2
    2c38:	01007602 	tsteq	r0, r2, lsl #12
    2c3c:	30015101 	andcc	r5, r1, r1, lsl #2
    2c40:	01520101 	cmpeq	r2, r1, lsl #2
    2c44:	5301013d 	movwpl	r0, #4413	@ 0x113d
    2c48:	02013001 	andeq	r3, r1, #1
    2c4c:	7902007d 	stmdbvc	r2, {r0, r2, r3, r4, r5, r6}
    2c50:	ca020000 	bgt	82c58 <__ROM_SIZE+0x42c58>
    2c54:	15000012 	strne	r0, [r0, #-18]	@ 0xffffffee
    2c58:	ff00000a 			@ <UNDEFINED> instruction: 0xff00000a
    2c5c:	01000006 	tsteq	r0, r6
    2c60:	75025001 	strvc	r5, [r2, #-1]
    2c64:	e4020000 	str	r0, [r2], #-0
    2c68:	15000012 	strne	r0, [r0, #-18]	@ 0xffffffee
    2c6c:	1300000a 	movwne	r0, #10
    2c70:	01000007 	tsteq	r0, r7
    2c74:	75025001 	strvc	r5, [r2, #-1]
    2c78:	06080000 	streq	r0, [r8], -r0
    2c7c:	61000013 	tstvs	r0, r3, lsl r0
    2c80:	01000003 	tsteq	r0, r3
    2c84:	76025001 	strvc	r5, [r2], -r1
    2c88:	51010100 	mrspl	r0, (UNDEF: 17)
    2c8c:	01013001 	tsteq	r1, r1
    2c90:	013d0152 	teqeq	sp, r2, asr r1
    2c94:	30015301 	andcc	r5, r1, r1, lsl #6
    2c98:	007d0201 	rsbseq	r0, sp, r1, lsl #4
    2c9c:	00007902 	andeq	r7, r0, r2, lsl #18
    2ca0:	11180200 	tstne	r8, r0, lsl #4
    2ca4:	0a150000 	beq	542cac <__ROM_SIZE+0x502cac>
    2ca8:	074e0000 	strbeq	r0, [lr, -r0]
    2cac:	01010000 	mrseq	r0, (UNDEF: 1)
    2cb0:	00750250 	rsbseq	r0, r5, r0, asr r2
    2cb4:	11520200 	cmpne	r2, r0, lsl #4
    2cb8:	03890000 	orreq	r0, r9, #0
    2cbc:	077b0000 	ldrbeq	r0, [fp, -r0]!
    2cc0:	01010000 	mrseq	r0, (UNDEF: 1)
    2cc4:	00760250 	rsbseq	r0, r6, r0, asr r2
    2cc8:	01510101 	cmpeq	r1, r1, lsl #2
    2ccc:	52010130 	andpl	r0, r1, #48, 2
    2cd0:	3f007404 	svccc	0x00007404
    2cd4:	5301011a 	movwpl	r0, #4378	@ 0x111a
    2cd8:	02013001 	andeq	r3, r1, #1
    2cdc:	7702007d 	smlsdxvc	r2, sp, r0, r0
    2ce0:	60020000 	andvs	r0, r2, r0
    2ce4:	61000011 	tstvs	r0, r1, lsl r0
    2ce8:	a5000003 	strge	r0, [r0, #-3]
    2cec:	01000007 	tsteq	r0, r7
    2cf0:	76025001 	strvc	r5, [r2], -r1
    2cf4:	51010100 	mrspl	r0, (UNDEF: 17)
    2cf8:	01013001 	tsteq	r1, r1
    2cfc:	013d0152 	teqeq	sp, r2, asr r1
    2d00:	30015301 	andcc	r5, r1, r1, lsl #6
    2d04:	007d0201 	rsbseq	r0, sp, r1, lsl #4
    2d08:	00007702 	andeq	r7, r0, r2, lsl #14
    2d0c:	00118402 	andseq	r8, r1, r2, lsl #8
    2d10:	00033e00 	andeq	r3, r3, r0, lsl #28
    2d14:	0007c300 	andeq	ip, r7, r0, lsl #6
    2d18:	50010100 	andpl	r0, r1, r0, lsl #2
    2d1c:	01007602 	tsteq	r0, r2, lsl #12
    2d20:	30015101 	andcc	r5, r1, r1, lsl #2
    2d24:	01530101 	cmpeq	r3, r1, lsl #2
    2d28:	be020030 	mcrlt	0, 0, r0, cr2, cr0, {1}
    2d2c:	15000011 	strne	r0, [r0, #-17]	@ 0xffffffef
    2d30:	d700000a 	strle	r0, [r0, -sl]
    2d34:	01000007 	tsteq	r0, r7
    2d38:	75025001 	strvc	r5, [r2, #-1]
    2d3c:	d8020000 	stmdale	r2, {}	@ <UNPREDICTABLE>
    2d40:	3e000011 	mcrcc	0, 0, r0, cr0, cr1, {0}
    2d44:	f0000003 			@ <UNDEFINED> instruction: 0xf0000003
    2d48:	01000007 	tsteq	r0, r7
    2d4c:	76025001 	strvc	r5, [r2], -r1
    2d50:	51010100 	mrspl	r0, (UNDEF: 17)
    2d54:	02003101 	andeq	r3, r0, #1073741824	@ 0x40000000
    2d58:	00001232 	andeq	r1, r0, r2, lsr r2
    2d5c:	0000033e 	andeq	r0, r0, lr, lsr r3
    2d60:	0000081c 	andeq	r0, r0, ip, lsl r8
    2d64:	02500101 	subseq	r0, r0, #1073741824	@ 0x40000000
    2d68:	01010076 	tsteq	r1, r6, ror r0
    2d6c:	01310151 	teqeq	r1, r1, asr r1
    2d70:	740a5201 	strvc	r5, [sl], #-513	@ 0xfffffdff
    2d74:	231a3700 	tstcs	sl, #0, 14
    2d78:	243f4001 	ldrtcs	r4, [pc], #-1	@ 2d80 <__copy_table_end__+0x1720>
    2d7c:	53010121 	movwpl	r0, #4385	@ 0x1121
    2d80:	02003501 	andeq	r3, r0, #4194304	@ 0x400000
    2d84:	00001240 	andeq	r1, r0, r0, asr #4
    2d88:	00000a15 	andeq	r0, r0, r5, lsl sl
    2d8c:	00000830 	andeq	r0, r0, r0, lsr r8
    2d90:	02500101 	subseq	r0, r0, #1073741824	@ 0x40000000
    2d94:	02000075 	andeq	r0, r0, #117	@ 0x75
    2d98:	00001258 	andeq	r1, r0, r8, asr r2
    2d9c:	0000033e 	andeq	r0, r0, lr, lsr r3
    2da0:	00000858 	andeq	r0, r0, r8, asr r8
    2da4:	02500101 	subseq	r0, r0, #1073741824	@ 0x40000000
    2da8:	01010076 	tsteq	r1, r6, ror r0
    2dac:	01300151 	teqeq	r0, r1, asr r1
    2db0:	74065201 	strvc	r5, [r6], #-513	@ 0xfffffdff
    2db4:	ffff0a00 			@ <UNDEFINED> instruction: 0xffff0a00
    2db8:	5301011a 	movwpl	r0, #4378	@ 0x111a
    2dbc:	02003001 	andeq	r3, r0, #1
    2dc0:	0000128c 	andeq	r1, r0, ip, lsl #5
    2dc4:	00000389 	andeq	r0, r0, r9, lsl #7
    2dc8:	00000882 	andeq	r0, r0, r2, lsl #17
    2dcc:	02500101 	subseq	r0, r0, #1073741824	@ 0x40000000
    2dd0:	01010076 	tsteq	r1, r6, ror r0
    2dd4:	01300151 	teqeq	r0, r1, asr r1
    2dd8:	3d015201 	sfmcc	f5, 4, [r1, #-4]
    2ddc:	01530101 	cmpeq	r3, r1, lsl #2
    2de0:	7d020130 	stfvcs	f0, [r2, #-192]	@ 0xffffff40
    2de4:	5c910200 	lfmpl	f0, 4, [r1], {0}
    2de8:	129a0200 	addsne	r0, sl, #0, 4
    2dec:	033e0000 	teqeq	lr, #0
    2df0:	08a50000 	stmiaeq	r5!, {}	@ <UNPREDICTABLE>
    2df4:	01010000 	mrseq	r0, (UNDEF: 1)
    2df8:	00760250 	rsbseq	r0, r6, r0, asr r2
    2dfc:	01510101 	cmpeq	r1, r1, lsl #2
    2e00:	52010135 	andpl	r0, r1, #1073741837	@ 0x4000000d
    2e04:	01013001 	tsteq	r1, r1
    2e08:	00300153 	eorseq	r0, r0, r3, asr r1
    2e0c:	0012a802 	andseq	sl, r2, r2, lsl #16
    2e10:	000a1500 	andeq	r1, sl, r0, lsl #10
    2e14:	0008b900 	andeq	fp, r8, r0, lsl #18
    2e18:	50010100 	andpl	r0, r1, r0, lsl #2
    2e1c:	00007502 	andeq	r7, r0, r2, lsl #10
    2e20:	00130e02 	andseq	r0, r3, r2, lsl #28
    2e24:	000a1500 	andeq	r1, sl, r0, lsl #10
    2e28:	0008cd00 	andeq	ip, r8, r0, lsl #26
    2e2c:	50010100 	andpl	r0, r1, r0, lsl #2
    2e30:	00007502 	andeq	r7, r0, r2, lsl #10
    2e34:	00132202 	andseq	r2, r3, r2, lsl #4
    2e38:	000a1500 	andeq	r1, sl, r0, lsl #10
    2e3c:	0008e100 	andeq	lr, r8, r0, lsl #2
    2e40:	50010100 	andpl	r0, r1, r0, lsl #2
    2e44:	00007502 	andeq	r7, r0, r2, lsl #10
    2e48:	00133c02 	andseq	r3, r3, r2, lsl #24
    2e4c:	00033e00 	andeq	r3, r3, r0, lsl #28
    2e50:	0008ff00 	andeq	pc, r8, r0, lsl #30
    2e54:	50010100 	andpl	r0, r1, r0, lsl #2
    2e58:	01007602 	tsteq	r0, r2, lsl #12
    2e5c:	33015101 	movwcc	r5, #4353	@ 0x1101
    2e60:	01530101 	cmpeq	r3, r1, lsl #2
    2e64:	54020033 	strpl	r0, [r2], #-51	@ 0xffffffcd
    2e68:	15000013 	strne	r0, [r0, #-19]	@ 0xffffffed
    2e6c:	1300000a 	movwne	r0, #10
    2e70:	01000009 	tsteq	r0, r9
    2e74:	75025001 	strvc	r5, [r2, #-1]
    2e78:	6a020000 	bvs	82e80 <__ROM_SIZE+0x42e80>
    2e7c:	3e000013 	mcrcc	0, 0, r0, cr0, cr3, {0}
    2e80:	31000003 	tstcc	r0, r3
    2e84:	01000009 	tsteq	r0, r9
    2e88:	76025001 	strvc	r5, [r2], -r1
    2e8c:	51010100 	mrspl	r0, (UNDEF: 17)
    2e90:	01013401 	tsteq	r1, r1, lsl #8
    2e94:	00300153 	eorseq	r0, r0, r3, asr r1
    2e98:	00138602 	andseq	r8, r3, r2, lsl #12
    2e9c:	00033e00 	andeq	r3, r3, r0, lsl #28
    2ea0:	00095d00 	andeq	r5, r9, r0, lsl #26
    2ea4:	50010100 	andpl	r0, r1, r0, lsl #2
    2ea8:	01007602 	tsteq	r0, r2, lsl #12
    2eac:	33015101 	movwcc	r5, #4353	@ 0x1101
    2eb0:	0a520101 	beq	14832bc <__ROM_SIZE+0x14432bc>
    2eb4:	1a3f0074 	bne	fc308c <__ROM_SIZE+0xf8308c>
    2eb8:	3f440123 	svccc	0x00440123
    2ebc:	01012124 	tsteq	r1, r4, lsr #2
    2ec0:	00330153 	eorseq	r0, r3, r3, asr r1
    2ec4:	00139402 	andseq	r9, r3, r2, lsl #8
    2ec8:	000a1500 	andeq	r1, sl, r0, lsl #10
    2ecc:	00097100 	andeq	r7, r9, r0, lsl #2
    2ed0:	50010100 	andpl	r0, r1, r0, lsl #2
    2ed4:	00007502 	andeq	r7, r0, r2, lsl #10
    2ed8:	0013b002 	andseq	fp, r3, r2
    2edc:	00033e00 	andeq	r3, r3, r0, lsl #28
    2ee0:	00098f00 	andeq	r8, r9, r0, lsl #30
    2ee4:	50010100 	andpl	r0, r1, r0, lsl #2
    2ee8:	01007602 	tsteq	r0, r2, lsl #12
    2eec:	31015101 	tstcc	r1, r1, lsl #2
    2ef0:	01530101 	cmpeq	r3, r1, lsl #2
    2ef4:	c8020035 	stmdagt	r2, {r0, r2, r4, r5}
    2ef8:	89000013 	stmdbhi	r0, {r0, r1, r4}
    2efc:	bb000003 	bllt	2f10 <__copy_table_end__+0x18b0>
    2f00:	01000009 	tsteq	r0, r9
    2f04:	76025001 	strvc	r5, [r2], -r1
    2f08:	51010100 	mrspl	r0, (UNDEF: 17)
    2f0c:	01007802 	tsteq	r0, r2, lsl #16
    2f10:	3e015201 	cdpcc	2, 0, cr5, cr1, cr1, {0}
    2f14:	02530101 	subseq	r0, r3, #1073741824	@ 0x40000000
    2f18:	02010078 	andeq	r0, r1, #120	@ 0x78
    2f1c:	7402007d 	strvc	r0, [r2], #-125	@ 0xffffff83
    2f20:	d6020000 	strle	r0, [r2], -r0
    2f24:	61000013 	tstvs	r0, r3, lsl r0
    2f28:	e7000003 	str	r0, [r0, -r3]
    2f2c:	01000009 	tsteq	r0, r9
    2f30:	76025001 	strvc	r5, [r2], -r1
    2f34:	51010100 	mrspl	r0, (UNDEF: 17)
    2f38:	01007802 	tsteq	r0, r2, lsl #16
    2f3c:	3f015201 	svccc	0x00015201
    2f40:	02530101 	subseq	r0, r3, #1073741824	@ 0x40000000
    2f44:	02010078 	andeq	r0, r1, #120	@ 0x78
    2f48:	7402007d 	strvc	r0, [r2], #-125	@ 0xffffff83
    2f4c:	f6080000 			@ <UNDEFINED> instruction: 0xf6080000
    2f50:	3e000013 	mcrcc	0, 0, r0, cr0, cr3, {0}
    2f54:	01000003 	tsteq	r0, r3
    2f58:	76025001 	strvc	r5, [r2], -r1
    2f5c:	51010100 	mrspl	r0, (UNDEF: 17)
    2f60:	01013101 	tsteq	r1, r1, lsl #2
    2f64:	00740a52 	rsbseq	r0, r4, r2, asr sl
    2f68:	01231a37 			@ <UNDEFINED> instruction: 0x01231a37
    2f6c:	21243f40 			@ <UNDEFINED> instruction: 0x21243f40
    2f70:	01530101 	cmpeq	r3, r1, lsl #2
    2f74:	09000031 	stmdbeq	r0, {r0, r4, r5}
    2f78:	00000316 	andeq	r0, r0, r6, lsl r3
    2f7c:	0010b72b 	andseq	fp, r0, fp, lsr #14
    2f80:	01510100 	cmpeq	r1, r0, lsl #2
    2f84:	00000064 	andeq	r0, r0, r4, rrx
    2f88:	000010ac 	andeq	r1, r0, ip, lsr #1
    2f8c:	00000038 	andeq	r0, r0, r8, lsr r0
    2f90:	0a549c01 	beq	1529f9c <__ROM_SIZE+0x14e9f9c>
    2f94:	75140000 	ldrvc	r0, [r4, #-0]
    2f98:	51007377 	tstpl	r0, r7, ror r3
    2f9c:	000a1028 	andeq	r1, sl, r8, lsr #32
    2fa0:	001bae00 	andseq	sl, fp, r0, lsl #28
    2fa4:	001ba200 	andseq	sl, fp, r0, lsl #4
    2fa8:	00621500 	rsbeq	r1, r2, r0, lsl #10
    2fac:	00640853 	rsbeq	r0, r4, r3, asr r8
    2fb0:	1bd60000 	blne	ff582fb8 <__StackTop+0xdf572fb8>
    2fb4:	1bd20000 	blne	ff482fbc <__StackTop+0xdf472fbc>
    2fb8:	2c000000 	stccs	0, cr0, [r0], {-0}
    2fbc:	000009a0 	andeq	r0, r0, r0, lsr #19
    2fc0:	3403dd02 	strcc	sp, [r3], #-3330	@ 0xfffff2fe
    2fc4:	03000000 	movweq	r0, #0
    2fc8:	00000a88 	andeq	r0, r0, r8, lsl #21
    2fcc:	00106718 	andseq	r6, r0, r8, lsl r7
    2fd0:	2123dd00 			@ <UNDEFINED> instruction: 0x2123dd00
    2fd4:	18000003 	stmdane	r0, {r0, r1}
    2fd8:	000007bf 			@ <UNDEFINED> instruction: 0x000007bf
    2fdc:	003f30dd 	ldrsbteq	r3, [pc], -sp
    2fe0:	762d0000 	strtvc	r0, [sp], -r0
    2fe4:	02006c61 	andeq	r6, r0, #24832	@ 0x6100
    2fe8:	00510bdf 	ldrsbeq	r0, [r1], #-191	@ 0xffffff41
    2fec:	2e000000 	cdpcs	0, 0, cr0, cr0, cr0, {0}
    2ff0:	00000a54 	andeq	r0, r0, r4, asr sl
    2ff4:	000010e4 	andeq	r1, r0, r4, ror #1
    2ff8:	0000001a 	andeq	r0, r0, sl, lsl r0
    2ffc:	652f9c01 	strvs	r9, [pc, #-3073]!	@ 2403 <__copy_table_end__+0xda3>
    3000:	ea00000a 	b	3030 <__copy_table_end__+0x19d0>
    3004:	e600001b 			@ <UNDEFINED> instruction: 0xe600001b
    3008:	3000001b 	andcc	r0, r0, fp, lsl r0
    300c:	00000a7b 	andeq	r0, r0, fp, ror sl
    3010:	31749102 	cmncc	r4, r2, lsl #2
    3014:	00000a70 	andeq	r0, r0, r0, ror sl
    3018:	10f6080c 	rscsne	r0, r6, ip, lsl #16
    301c:	03890000 	orreq	r0, r9, #0
    3020:	01010000 	mrseq	r0, (UNDEF: 1)
    3024:	03a30950 			@ <UNDEFINED> instruction: 0x03a30950
    3028:	a82600a5 	stmdage	r6!, {r0, r2, r5, r7}
    302c:	0100a82d 	tsteq	r0, sp, lsr #16
    3030:	30015101 	andcc	r5, r1, r1, lsl #2
    3034:	01520101 	cmpeq	r2, r1, lsl #2
    3038:	5301013c 	movwpl	r0, #4412	@ 0x113c
    303c:	02013001 	andeq	r3, r1, #1
    3040:	9102007d 	tstls	r2, sp, ror r0
    3044:	00000074 	andeq	r0, r0, r4, ror r0
    3048:	0000002f 	andeq	r0, r0, pc, lsr #32
    304c:	04010005 	streq	r0, [r1], #-5
    3050:	000009b2 			@ <UNDEFINED> instruction: 0x000009b2
    3054:	001a1201 	andseq	r1, sl, r1, lsl #4
    3058:	00145000 	andseq	r5, r4, r0
    305c:	df01ec00 	svcle	0x0001ec00
    3060:	19000010 	stmdbne	r0, {r4}
    3064:	75000011 	strvc	r0, [r0, #-17]	@ 0xffffffef
    3068:	01000000 	mrseq	r0, (UNDEF: 0)
    306c:	07a50280 	streq	r0, [r5, r0, lsl #5]!
    3070:	51310000 	teqpl	r1, r0
    3074:	ec000014 	stc	0, cr0, [r0], {20}
    3078:	Address 0x3078 is out of bounds.


Disassembly of section .debug_abbrev:

00000000 <.debug_abbrev>:
   0:	10011101 	andne	r1, r1, r1, lsl #2
   4:	12011117 	andne	r1, r1, #-1073741819	@ 0xc0000005
   8:	1b0e030f 	blne	380c4c <__ROM_SIZE+0x340c4c>
   c:	130e250e 	movwne	r2, #58638	@ 0xe50e
  10:	02000005 	andeq	r0, r0, #5
  14:	0e03002e 	cdpeq	0, 0, cr0, cr3, cr14, {1}
  18:	15490c3f 	strbne	r0, [r9, #-3135]	@ 0xfffff3c1
  1c:	0f120111 	svceq	0x00120111
  20:	3b030000 	blcc	c0028 <__ROM_SIZE+0x80028>
  24:	00000000 	andeq	r0, r0, r0
  28:	03000d01 	movweq	r0, #3329	@ 0xd01
  2c:	03213a0e 			@ <UNDEFINED> instruction: 0x03213a0e
  30:	2139053b 	teqcs	r9, fp, lsr r5
  34:	38134912 	ldmdacc	r3, {r1, r4, r8, fp, lr}
  38:	0200000b 	andeq	r0, r0, #11
  3c:	0b0b0024 	bleq	2c00d4 <__ROM_SIZE+0x2800d4>
  40:	0e030b3e 	vmoveq.16	d3[0], r0
  44:	35030000 	strcc	r0, [r3, #-0]
  48:	00134900 	andseq	r4, r3, r0, lsl #18
  4c:	00260400 	eoreq	r0, r6, r0, lsl #8
  50:	00001349 	andeq	r1, r0, r9, asr #6
  54:	03000d05 	movweq	r0, #3333	@ 0xd05
  58:	03213a08 			@ <UNDEFINED> instruction: 0x03213a08
  5c:	2139053b 	teqcs	r9, fp, lsr r5
  60:	38134912 	ldmdacc	r3, {r1, r4, r8, fp, lr}
  64:	0600000b 	streq	r0, [r0], -fp
  68:	13490101 	movtne	r0, #37121	@ 0x9101
  6c:	00001301 	andeq	r1, r0, r1, lsl #6
  70:	49002107 	stmdbmi	r0, {r0, r1, r2, r8, sp}
  74:	000b2f13 	andeq	r2, fp, r3, lsl pc
  78:	00160800 	andseq	r0, r6, r0, lsl #16
  7c:	0b3a0e03 	bleq	e83890 <__ROM_SIZE+0xe43890>
  80:	0b390b3b 	bleq	e42d74 <__ROM_SIZE+0xe02d74>
  84:	00001349 	andeq	r1, r0, r9, asr #6
  88:	03003409 	movweq	r3, #1033	@ 0x409
  8c:	3b0b3a0e 	blcc	2ce8cc <__ROM_SIZE+0x28e8cc>
  90:	490b390b 	stmdbmi	fp, {r0, r1, r3, r8, fp, ip, sp}
  94:	3c193f13 	ldccc	15, cr3, [r9], {19}
  98:	0a000019 	beq	104 <__Vectors+0x104>
  9c:	193f002e 	ldmdbne	pc!, {r1, r2, r3, r5}	@ <UNPREDICTABLE>
  a0:	213a0e03 	teqcs	sl, r3, lsl #28
  a4:	390b3b01 	stmdbcc	fp, {r0, r8, r9, fp, ip, sp}
  a8:	19270621 	stmdbne	r7!, {r0, r5, r9, sl}
  ac:	06120111 			@ <UNDEFINED> instruction: 0x06120111
  b0:	197a1840 	ldmdbne	sl!, {r6, fp, ip}^
  b4:	110b0000 	mrsne	r0, (UNDEF: 11)
  b8:	130e2501 	movwne	r2, #58625	@ 0xe501
  bc:	1b0e030b 	blne	380cf0 <__ROM_SIZE+0x340cf0>
  c0:	1117550e 	tstne	r7, lr, lsl #10
  c4:	00171001 	andseq	r1, r7, r1
  c8:	00240c00 	eoreq	r0, r4, r0, lsl #24
  cc:	0b3e0b0b 	bleq	f82d00 <__ROM_SIZE+0xf42d00>
  d0:	00000803 	andeq	r0, r0, r3, lsl #16
  d4:	0b01130d 	bleq	44d10 <__ROM_SIZE+0x4d10>
  d8:	3b0b3a0b 	blcc	2ce90c <__ROM_SIZE+0x28e90c>
  dc:	010b3905 	tsteq	fp, r5, lsl #18
  e0:	0e000013 	mcreq	0, 0, r0, cr0, cr3, {0}
  e4:	0e030016 	mcreq	0, 0, r0, cr3, cr6, {0}
  e8:	053b0b3a 	ldreq	r0, [fp, #-2874]!	@ 0xfffff4c6
  ec:	13490b39 	movtne	r0, #39737	@ 0x9b39
  f0:	0f0f0000 	svceq	0x000f0000
  f4:	490b0b00 	stmdbmi	fp, {r8, r9, fp}
  f8:	10000013 	andne	r0, r0, r3, lsl r0
  fc:	19270015 	stmdbne	r7!, {r0, r2, r4}
 100:	34110000 	ldrcc	r0, [r1], #-0
 104:	3a134700 	bcc	4d1d0c <__ROM_SIZE+0x491d0c>
 108:	020b390b 	andeq	r3, fp, #180224	@ 0x2c000
 10c:	00000018 	andeq	r0, r0, r8, lsl r0
 110:	25011101 	strcs	r1, [r1, #-257]	@ 0xfffffeff
 114:	030b130e 	movweq	r1, #45838	@ 0xb30e
 118:	550e1b0e 	strpl	r1, [lr, #-2830]	@ 0xfffff4f2
 11c:	10011117 	andne	r1, r1, r7, lsl r1
 120:	02000017 	andeq	r0, r0, #23
 124:	193f012e 	ldmdbne	pc!, {r1, r2, r3, r5, r8}	@ <UNPREDICTABLE>
 128:	0b3a0e03 	bleq	e8393c <__ROM_SIZE+0xe4393c>
 12c:	0b390b3b 	bleq	e42e20 <__ROM_SIZE+0xe02e20>
 130:	193c1927 	ldmdbne	ip!, {r0, r1, r2, r5, r8, fp, ip}
 134:	00001301 	andeq	r1, r0, r1, lsl #6
 138:	49000503 	stmdbmi	r0, {r0, r1, r8, sl}
 13c:	04000013 	streq	r0, [r0], #-19	@ 0xffffffed
 140:	0b0b000f 	bleq	2c0184 <__ROM_SIZE+0x280184>
 144:	00001349 	andeq	r1, r0, r9, asr #6
 148:	0b002405 	bleq	9164 <__copy_table_end__+0x7b04>
 14c:	030b3e0b 	movweq	r3, #48651	@ 0xbe0b
 150:	0600000e 	streq	r0, [r0], -lr
 154:	13490026 	movtne	r0, #36902	@ 0x9026
 158:	2e070000 	cdpcs	0, 0, cr0, cr7, cr0, {0}
 15c:	03193f00 	tsteq	r9, #0, 30
 160:	3b0b3a0e 	blcc	2ce9a0 <__ROM_SIZE+0x28e9a0>
 164:	270b390b 	strcs	r3, [fp, -fp, lsl #18]
 168:	11134919 	tstne	r3, r9, lsl r9
 16c:	40061201 	andmi	r1, r6, r1, lsl #4
 170:	00197c18 	andseq	r7, r9, r8, lsl ip
 174:	00240800 	eoreq	r0, r4, r0, lsl #16
 178:	0b3e0b0b 	bleq	f82dac <__ROM_SIZE+0xf42dac>
 17c:	00000803 	andeq	r0, r0, r3, lsl #16
 180:	00240100 	eoreq	r0, r4, r0, lsl #2
 184:	0b3e0b0b 	bleq	f82db8 <__ROM_SIZE+0xf42db8>
 188:	00000e03 	andeq	r0, r0, r3, lsl #28
 18c:	03000502 	movweq	r0, #1282	@ 0x502
 190:	01213a08 			@ <UNDEFINED> instruction: 0x01213a08
 194:	0b390b3b 	bleq	e42e88 <__ROM_SIZE+0xe02e88>
 198:	18021349 	stmdane	r2, {r0, r3, r6, r8, r9, ip}
 19c:	11030000 	mrsne	r0, (UNDEF: 3)
 1a0:	130e2501 	movwne	r2, #58625	@ 0xe501
 1a4:	1b0e030b 	blne	380dd8 <__ROM_SIZE+0x340dd8>
 1a8:	1117550e 	tstne	r7, lr, lsl #10
 1ac:	00171001 	andseq	r1, r7, r1
 1b0:	00160400 	andseq	r0, r6, r0, lsl #8
 1b4:	0b3a0e03 	bleq	e839c8 <__ROM_SIZE+0xe439c8>
 1b8:	0b390b3b 	bleq	e42eac <__ROM_SIZE+0xe02eac>
 1bc:	00001349 	andeq	r1, r0, r9, asr #6
 1c0:	0b002405 	bleq	91dc <__copy_table_end__+0x7b7c>
 1c4:	030b3e0b 	movweq	r3, #48651	@ 0xbe0b
 1c8:	06000008 	streq	r0, [r0], -r8
 1cc:	13490026 	movtne	r0, #36902	@ 0x9026
 1d0:	0f070000 	svceq	0x00070000
 1d4:	490b0b00 	stmdbmi	fp, {r8, r9, fp}
 1d8:	08000013 	stmdaeq	r0, {r0, r1, r4}
 1dc:	193f012e 	ldmdbne	pc!, {r1, r2, r3, r5, r8}	@ <UNPREDICTABLE>
 1e0:	0b3a0e03 	bleq	e839f4 <__ROM_SIZE+0xe439f4>
 1e4:	0b390b3b 	bleq	e42ed8 <__ROM_SIZE+0xe02ed8>
 1e8:	01111927 	tsteq	r1, r7, lsr #18
 1ec:	18400612 	stmdane	r0, {r1, r4, r9, sl}^
 1f0:	1301197c 	movwne	r1, #6524	@ 0x197c
 1f4:	2e090000 	cdpcs	0, 0, cr0, cr9, cr0, {0}
 1f8:	03193f01 	tsteq	r9, #1, 30
 1fc:	3b0b3a0e 	blcc	2cea3c <__ROM_SIZE+0x28ea3c>
 200:	270b390b 	strcs	r3, [fp, -fp, lsl #18]
 204:	11134919 	tstne	r3, r9, lsl r9
 208:	40061201 	andmi	r1, r6, r1, lsl #4
 20c:	00197a18 	andseq	r7, r9, r8, lsl sl
 210:	49010000 	stmdbmi	r1, {}	@ <UNPREDICTABLE>
 214:	7e180200 	cdpvc	2, 1, cr0, cr8, cr0, {0}
 218:	02000018 	andeq	r0, r0, #24
 21c:	017d0148 	cmneq	sp, r8, asr #2
 220:	1301137f 	movwne	r1, #4991	@ 0x137f
 224:	34030000 	strcc	r0, [r3], #-0
 228:	3a0e0300 	bcc	380e30 <__ROM_SIZE+0x340e30>
 22c:	39053b0b 	stmdbcc	r5, {r0, r1, r3, r8, r9, fp, ip, sp}
 230:	0213490b 	andseq	r4, r3, #180224	@ 0x2c000
 234:	1742b717 	smlaldne	fp, r2, r7, r7
 238:	0d040000 	stceq	0, cr0, [r4, #-0]
 23c:	3a0e0300 	bcc	380e44 <__ROM_SIZE+0x340e44>
 240:	390b3b0b 	stmdbcc	fp, {r0, r1, r3, r8, r9, fp, ip, sp}
 244:	3813490b 	ldmdacc	r3, {r0, r1, r3, r8, fp, lr}
 248:	0500000b 	streq	r0, [r0, #-11]
 24c:	13490005 	movtne	r0, #36869	@ 0x9005
 250:	05060000 	streq	r0, [r6, #-0]
 254:	3a0e0300 	bcc	380e5c <__ROM_SIZE+0x340e5c>
 258:	39053b0b 	stmdbcc	r5, {r0, r1, r3, r8, r9, fp, ip, sp}
 25c:	0213490b 	andseq	r4, r3, #180224	@ 0x2c000
 260:	1742b717 	smlaldne	fp, r2, r7, r7
 264:	28070000 	stmdacs	r7, {}	@ <UNPREDICTABLE>
 268:	1c0e0300 	stcne	3, cr0, [lr], {-0}
 26c:	0800000b 	stmdaeq	r0, {r0, r1, r3}
 270:	0e030016 	mcreq	0, 0, r0, cr3, cr6, {0}
 274:	0b3b0b3a 	bleq	ec2f64 <__ROM_SIZE+0xe82f64>
 278:	13490b39 	movtne	r0, #39737	@ 0x9b39
 27c:	0f090000 	svceq	0x00090000
 280:	04210b00 	strteq	r0, [r1], #-2816	@ 0xfffff500
 284:	00001349 	andeq	r1, r0, r9, asr #6
 288:	7d01480a 	stcvc	8, cr4, [r1, #-40]	@ 0xffffffd8
 28c:	00137f01 	andseq	r7, r3, r1, lsl #30
 290:	00050b00 	andeq	r0, r5, r0, lsl #22
 294:	0b3a0e03 	bleq	e83aa8 <__ROM_SIZE+0xe43aa8>
 298:	0b390b3b 	bleq	e42f8c <__ROM_SIZE+0xe02f8c>
 29c:	17021349 	strne	r1, [r2, -r9, asr #6]
 2a0:	001742b7 			@ <UNDEFINED> instruction: 0x001742b7
 2a4:	012e0c00 			@ <UNDEFINED> instruction: 0x012e0c00
 2a8:	0e03193f 			@ <UNDEFINED> instruction: 0x0e03193f
 2ac:	0b3b0b3a 	bleq	ec2f9c <__ROM_SIZE+0xe82f9c>
 2b0:	19270b39 	stmdbne	r7!, {r0, r3, r4, r5, r8, r9, fp}
 2b4:	1301193c 	movwne	r1, #6460	@ 0x193c
 2b8:	0b0d0000 	bleq	3402c0 <__ROM_SIZE+0x3002c0>
 2bc:	01175501 	tsteq	r7, r1, lsl #10
 2c0:	0e000013 	mcreq	0, 0, r0, cr0, cr3, {0}
 2c4:	0803000d 	stmdaeq	r3, {r0, r2, r3}
 2c8:	0b3b0b3a 	bleq	ec2fb8 <__ROM_SIZE+0xe82fb8>
 2cc:	13490b39 	movtne	r0, #39737	@ 0x9b39
 2d0:	00000b38 	andeq	r0, r0, r8, lsr fp
 2d4:	0300340f 	movweq	r3, #1039	@ 0x40f
 2d8:	3b0b3a08 	blcc	2ceb00 <__ROM_SIZE+0x28eb00>
 2dc:	490b3905 	stmdbmi	fp, {r0, r2, r8, fp, ip, sp}
 2e0:	b7170213 			@ <UNDEFINED> instruction: 0xb7170213
 2e4:	00001742 	andeq	r1, r0, r2, asr #14
 2e8:	0b002410 	bleq	9330 <__copy_table_end__+0x7cd0>
 2ec:	030b3e0b 	movweq	r3, #48651	@ 0xbe0b
 2f0:	1100000e 	tstne	r0, lr
 2f4:	0e030113 	mcreq	1, 0, r0, cr3, cr3, {0}
 2f8:	0b3a0b0b 	bleq	e82f2c <__ROM_SIZE+0xe42f2c>
 2fc:	0b390b3b 	bleq	e42ff0 <__ROM_SIZE+0xe02ff0>
 300:	00001301 	andeq	r1, r0, r1, lsl #6
 304:	0b011312 	bleq	44f54 <__ROM_SIZE+0x4f54>
 308:	3b0b3a0b 	blcc	2ceb3c <__ROM_SIZE+0x28eb3c>
 30c:	010b390b 	tsteq	fp, fp, lsl #18
 310:	13000013 	movwne	r0, #19
 314:	193f012e 	ldmdbne	pc!, {r1, r2, r3, r5, r8}	@ <UNPREDICTABLE>
 318:	0b3a0e03 	bleq	e83b2c <__ROM_SIZE+0xe43b2c>
 31c:	2139053b 	teqcs	r9, fp, lsr r5
 320:	49192701 	ldmdbmi	r9, {r0, r8, r9, sl, sp}
 324:	12011113 	andne	r1, r1, #-1073741820	@ 0xc0000004
 328:	7a184006 	bvc	610348 <__ROM_SIZE+0x5d0348>
 32c:	00130119 	andseq	r0, r3, r9, lsl r1
 330:	00341400 	eorseq	r1, r4, r0, lsl #8
 334:	0b3a0e03 	bleq	e83b48 <__ROM_SIZE+0xe43b48>
 338:	0b39053b 	bleq	e4182c <__ROM_SIZE+0xe0182c>
 33c:	18021349 	stmdane	r2, {r0, r3, r6, r8, r9, ip}
 340:	34150000 	ldrcc	r0, [r5], #-0
 344:	3a080300 	bcc	200f4c <__ROM_SIZE+0x1c0f4c>
 348:	390b3b0b 	stmdbcc	fp, {r0, r1, r3, r8, r9, fp, ip, sp}
 34c:	0213490b 	andseq	r4, r3, #180224	@ 0x2c000
 350:	1742b717 	smlaldne	fp, r2, r7, r7
 354:	48160000 	ldmdami	r6, {}	@ <UNPREDICTABLE>
 358:	01017d01 	tsteq	r1, r1, lsl #26
 35c:	17000013 	smladne	r0, r3, r0, r0
 360:	213e0104 	teqcs	lr, r4, lsl #2
 364:	01210b07 			@ <UNDEFINED> instruction: 0x01210b07
 368:	213a1349 	teqcs	sl, r9, asr #6
 36c:	390b3b04 	stmdbcc	fp, {r2, r8, r9, fp, ip, sp}
 370:	13010521 	movwne	r0, #5409	@ 0x1521
 374:	01180000 	tsteq	r8, r0
 378:	01134901 	tsteq	r3, r1, lsl #18
 37c:	19000013 	stmdbne	r0, {r0, r1, r4}
 380:	13490021 	movtne	r0, #36897	@ 0x9021
 384:	00000b2f 	andeq	r0, r0, pc, lsr #22
 388:	7d01481a 	stcvc	8, cr4, [r1, #-104]	@ 0xffffff98
 38c:	19018201 	stmdbne	r1, {r0, r9, pc}
 390:	0000137f 	andeq	r1, r0, pc, ror r3
 394:	03012e1b 	movweq	r2, #7707	@ 0x1e1b
 398:	3b0b3a0e 	blcc	2cebd8 <__ROM_SIZE+0x28ebd8>
 39c:	01213905 			@ <UNDEFINED> instruction: 0x01213905
 3a0:	13491927 	movtne	r1, #39207	@ 0x9927
 3a4:	06120111 			@ <UNDEFINED> instruction: 0x06120111
 3a8:	197a1840 	ldmdbne	sl!, {r6, fp, ip}^
 3ac:	00001301 	andeq	r1, r0, r1, lsl #6
 3b0:	0300051c 	movweq	r0, #1308	@ 0x51c
 3b4:	3b0b3a08 	blcc	2cebdc <__ROM_SIZE+0x28ebdc>
 3b8:	490b3905 	stmdbmi	fp, {r0, r2, r8, fp, ip, sp}
 3bc:	b7170213 			@ <UNDEFINED> instruction: 0xb7170213
 3c0:	00001742 	andeq	r1, r0, r2, asr #14
 3c4:	0300341d 	movweq	r3, #1053	@ 0x41d
 3c8:	3b0b3a0e 	blcc	2cec08 <__ROM_SIZE+0x28ec08>
 3cc:	490b390b 	stmdbmi	fp, {r0, r1, r3, r8, fp, ip, sp}
 3d0:	b7170213 			@ <UNDEFINED> instruction: 0xb7170213
 3d4:	00001742 	andeq	r1, r0, r2, asr #14
 3d8:	0300341e 	movweq	r3, #1054	@ 0x41e
 3dc:	3b0b3a08 	blcc	2cec04 <__ROM_SIZE+0x28ec04>
 3e0:	490b3905 	stmdbmi	fp, {r0, r2, r8, fp, ip, sp}
 3e4:	00180213 	andseq	r0, r8, r3, lsl r2
 3e8:	00051f00 	andeq	r1, r5, r0, lsl #30
 3ec:	0b3a0e03 	bleq	e83c00 <__ROM_SIZE+0xe43c00>
 3f0:	0b390b3b 	bleq	e430e4 <__ROM_SIZE+0xe030e4>
 3f4:	18021349 	stmdane	r2, {r0, r3, r6, r8, r9, ip}
 3f8:	2e200000 	cdpcs	0, 2, cr0, cr0, cr0, {0}
 3fc:	03193f01 	tsteq	r9, #1, 30
 400:	3b0b3a0e 	blcc	2cec40 <__ROM_SIZE+0x28ec40>
 404:	270b390b 	strcs	r3, [fp, -fp, lsl #18]
 408:	3c134919 			@ <UNDEFINED> instruction: 0x3c134919
 40c:	00130119 	andseq	r0, r3, r9, lsl r1
 410:	012e2100 			@ <UNDEFINED> instruction: 0x012e2100
 414:	0e03193f 			@ <UNDEFINED> instruction: 0x0e03193f
 418:	3b04213a 	blcc	108908 <__ROM_SIZE+0xc8908>
 41c:	270b390b 	strcs	r3, [fp, -fp, lsl #18]
 420:	11134919 	tstne	r3, r9, lsl r9
 424:	40061201 	andmi	r1, r6, r1, lsl #4
 428:	01197a18 	tsteq	r9, r8, lsl sl
 42c:	22000013 	andcs	r0, r0, #19
 430:	0111010b 	tsteq	r1, fp, lsl #2
 434:	13010612 	movwne	r0, #5650	@ 0x1612
 438:	48230000 	stmdami	r3!, {}	@ <UNPREDICTABLE>
 43c:	7f017d00 	svcvc	0x00017d00
 440:	24000013 	strcs	r0, [r0], #-19	@ 0xffffffed
 444:	0e030005 	cdpeq	0, 0, cr0, cr3, cr5, {0}
 448:	3b03213a 	blcc	c8938 <__ROM_SIZE+0x88938>
 44c:	490b390b 	stmdbmi	fp, {r0, r1, r3, r8, fp, ip, sp}
 450:	25000013 	strcs	r0, [r0, #-19]	@ 0xffffffed
 454:	13310005 	teqne	r1, #5
 458:	42b71702 	adcsmi	r1, r7, #524288	@ 0x80000
 45c:	26000017 			@ <UNDEFINED> instruction: 0x26000017
 460:	13490026 	movtne	r0, #36902	@ 0x9026
 464:	15270000 	strne	r0, [r7, #-0]!
 468:	49192701 	ldmdbmi	r9, {r0, r8, r9, sl, sp}
 46c:	00130113 	andseq	r0, r3, r3, lsl r1
 470:	012e2800 			@ <UNDEFINED> instruction: 0x012e2800
 474:	0b3a0e03 	bleq	e83c88 <__ROM_SIZE+0xe43c88>
 478:	0b390b3b 	bleq	e4316c <__ROM_SIZE+0xe0316c>
 47c:	01111927 	tsteq	r1, r7, lsr #18
 480:	18400612 	stmdane	r0, {r1, r4, r9, sl}^
 484:	1301197a 	movwne	r1, #6522	@ 0x197a
 488:	13290000 			@ <UNDEFINED> instruction: 0x13290000
 48c:	3c0e0300 	stccc	3, cr0, [lr], {-0}
 490:	2a000019 	bcs	4fc <search_EIT_table+0x48>
 494:	0e03000d 	cdpeq	0, 0, cr0, cr3, cr13, {0}
 498:	3b01213a 	blcc	48988 <__ROM_SIZE+0x8988>
 49c:	1521390b 	strne	r3, [r1, #-2315]!	@ 0xfffff6f5
 4a0:	05381349 	ldreq	r1, [r8, #-841]!	@ 0xfffffcb7
 4a4:	342b0000 	strtcc	r0, [fp], #-0
 4a8:	3a0e0300 	bcc	3810b0 <__ROM_SIZE+0x3410b0>
 4ac:	0b3b0221 	bleq	ec0d38 <__ROM_SIZE+0xe80d38>
 4b0:	49142139 	ldmdbmi	r4, {r0, r3, r4, r5, r8, sp}
 4b4:	3c193f13 	ldccc	15, cr3, [r9], {19}
 4b8:	2c000019 	stccs	0, cr0, [r0], {25}
 4bc:	01800049 	orreq	r0, r0, r9, asr #32
 4c0:	00187e13 	andseq	r7, r8, r3, lsl lr
 4c4:	012e2d00 			@ <UNDEFINED> instruction: 0x012e2d00
 4c8:	0e03193f 			@ <UNDEFINED> instruction: 0x0e03193f
 4cc:	3b04213a 	blcc	1089bc <__ROM_SIZE+0xc89bc>
 4d0:	0821390b 	stmdaeq	r1!, {r0, r1, r3, r8, fp, ip, sp}
 4d4:	01111927 	tsteq	r1, r7, lsr #18
 4d8:	18400612 	stmdane	r0, {r1, r4, r9, sl}^
 4dc:	1301197a 	movwne	r1, #6522	@ 0x197a
 4e0:	482e0000 	stmdami	lr!, {}	@ <UNPREDICTABLE>
 4e4:	00017d01 	andeq	r7, r1, r1, lsl #26
 4e8:	012e2f00 			@ <UNDEFINED> instruction: 0x012e2f00
 4ec:	0b3a0e03 	bleq	e83d00 <__ROM_SIZE+0xe43d00>
 4f0:	0b390b3b 	bleq	e431e4 <__ROM_SIZE+0xe031e4>
 4f4:	13491927 	movtne	r1, #39207	@ 0x9927
 4f8:	06120111 			@ <UNDEFINED> instruction: 0x06120111
 4fc:	197a1840 	ldmdbne	sl!, {r6, fp, ip}^
 500:	00001301 	andeq	r1, r0, r1, lsl #6
 504:	03000530 	movweq	r0, #1328	@ 0x530
 508:	3b0b3a08 	blcc	2ced30 <__ROM_SIZE+0x28ed30>
 50c:	490b390b 	stmdbmi	fp, {r0, r1, r3, r8, fp, ip, sp}
 510:	b7170213 			@ <UNDEFINED> instruction: 0xb7170213
 514:	00001742 	andeq	r1, r0, r2, asr #14
 518:	03012e31 	movweq	r2, #7729	@ 0x1e31
 51c:	03213a0e 			@ <UNDEFINED> instruction: 0x03213a0e
 520:	21390b3b 	teqcs	r9, fp, lsr fp
 524:	49192703 	ldmdbmi	r9, {r0, r1, r8, r9, sl, sp}
 528:	03212013 			@ <UNDEFINED> instruction: 0x03212013
 52c:	00001301 	andeq	r1, r0, r1, lsl #6
 530:	31012e32 	tstcc	r1, r2, lsr lr
 534:	12011113 	andne	r1, r1, #-1073741820	@ 0xc0000004
 538:	7a184006 	bvc	610558 <__ROM_SIZE+0x5d0558>
 53c:	00130119 	andseq	r0, r3, r9, lsl r1
 540:	01113300 	tsteq	r1, r0, lsl #6
 544:	0b130e25 	bleq	4c3de0 <__ROM_SIZE+0x483de0>
 548:	0e1b0e03 	cdpeq	14, 1, cr0, cr11, cr3, {0}
 54c:	06120111 			@ <UNDEFINED> instruction: 0x06120111
 550:	00001710 	andeq	r1, r0, r0, lsl r7
 554:	0b002434 	bleq	962c <__copy_table_end__+0x7fcc>
 558:	030b3e0b 	movweq	r3, #48651	@ 0xbe0b
 55c:	35000008 	strcc	r0, [r0, #-8]
 560:	08030016 	stmdaeq	r3, {r1, r2, r4}
 564:	0b3b0b3a 	bleq	ec3254 <__ROM_SIZE+0xe83254>
 568:	13490b39 	movtne	r0, #39737	@ 0x9b39
 56c:	15360000 	ldrne	r0, [r6, #-0]!
 570:	01192701 	tsteq	r9, r1, lsl #14
 574:	37000013 	smladcc	r0, r3, r0, r0
 578:	0b0b000f 	bleq	2c05bc <__ROM_SIZE+0x2805bc>
 57c:	13380000 	teqne	r8, #0
 580:	3a050b01 	bcc	14318c <__ROM_SIZE+0x10318c>
 584:	390b3b0b 	stmdbcc	fp, {r0, r1, r3, r8, r9, fp, ip, sp}
 588:	0013010b 	andseq	r0, r3, fp, lsl #2
 58c:	01043900 	tsteq	r4, r0, lsl #18
 590:	0b3e0e03 	bleq	f83da4 <__ROM_SIZE+0xf43da4>
 594:	13490b0b 	movtne	r0, #39691	@ 0x9b0b
 598:	0b3b0b3a 	bleq	ec3288 <__ROM_SIZE+0xe83288>
 59c:	13010b39 	movwne	r0, #6969	@ 0x1b39
 5a0:	2e3a0000 	cdpcs	0, 3, cr0, cr10, cr0, {0}
 5a4:	03193f01 	tsteq	r9, #1, 30
 5a8:	3b0b3a0e 	blcc	2cede8 <__ROM_SIZE+0x28ede8>
 5ac:	270b390b 	strcs	r3, [fp, -fp, lsl #18]
 5b0:	19018719 	stmdbne	r1, {r0, r3, r4, r8, r9, sl, pc}
 5b4:	1301193c 	movwne	r1, #6460	@ 0x193c
 5b8:	0b3b0000 	bleq	ec05c0 <__ROM_SIZE+0xe805c0>
 5bc:	00175501 	andseq	r5, r7, r1, lsl #10
 5c0:	00343c00 	eorseq	r3, r4, r0, lsl #24
 5c4:	0b3a0803 	bleq	e825d8 <__ROM_SIZE+0xe425d8>
 5c8:	0b39053b 	bleq	e41abc <__ROM_SIZE+0xe01abc>
 5cc:	00001349 	andeq	r1, r0, r9, asr #6
 5d0:	7d01483d 	stcvc	8, cr4, [r1, #-244]	@ 0xffffff0c
 5d4:	19018201 	stmdbne	r1, {r0, r9, pc}
 5d8:	053e0000 	ldreq	r0, [lr, #-0]!
 5dc:	3a0e0300 	bcc	3811e4 <__ROM_SIZE+0x3411e4>
 5e0:	39053b0b 	stmdbcc	r5, {r0, r1, r3, r8, r9, fp, ip, sp}
 5e4:	0213490b 	andseq	r4, r3, #180224	@ 0x2c000
 5e8:	3f000018 	svccc	0x00000018
 5ec:	017d0148 	cmneq	sp, r8, asr #2
 5f0:	7f190182 	svcvc	0x00190182
 5f4:	00130113 	andseq	r0, r3, r3, lsl r1
 5f8:	00484000 	subeq	r4, r8, r0
 5fc:	0182017d 	orreq	r0, r2, sp, ror r1
 600:	00137f19 	andseq	r7, r3, r9, lsl pc
 604:	010b4100 	mrseq	r4, (UNDEF: 27)
 608:	06120111 			@ <UNDEFINED> instruction: 0x06120111
 60c:	2e420000 	cdpcs	0, 4, cr0, cr2, cr0, {0}
 610:	3a0e0301 	bcc	38121c <__ROM_SIZE+0x34121c>
 614:	39053b0b 	stmdbcc	r5, {r0, r1, r3, r8, r9, fp, ip, sp}
 618:	8719270b 	ldrhi	r2, [r9, -fp, lsl #14]
 61c:	01111901 	tsteq	r1, r1, lsl #18
 620:	18400612 	stmdane	r0, {r1, r4, r9, sl}^
 624:	1301197a 	movwne	r1, #6522	@ 0x197a
 628:	05430000 	strbeq	r0, [r3, #-0]
 62c:	3a080300 	bcc	201234 <__ROM_SIZE+0x1c1234>
 630:	390b3b0b 	stmdbcc	fp, {r0, r1, r3, r8, r9, fp, ip, sp}
 634:	0213490b 	andseq	r4, r3, #180224	@ 0x2c000
 638:	44000018 	strmi	r0, [r0], #-24	@ 0xffffffe8
 63c:	08030005 	stmdaeq	r3, {r0, r2}
 640:	0b3b0b3a 	bleq	ec3330 <__ROM_SIZE+0xe83330>
 644:	13490b39 	movtne	r0, #39737	@ 0x9b39
 648:	34450000 	strbcc	r0, [r5], #-0
 64c:	3a080300 	bcc	201254 <__ROM_SIZE+0x1c1254>
 650:	390b3b0b 	stmdbcc	fp, {r0, r1, r3, r8, r9, fp, ip, sp}
 654:	0013490b 	andseq	r4, r3, fp, lsl #18
 658:	00344600 	eorseq	r4, r4, r0, lsl #12
 65c:	0b3a0803 	bleq	e82670 <__ROM_SIZE+0xe42670>
 660:	0b390b3b 	bleq	e43354 <__ROM_SIZE+0xe03354>
 664:	18021349 	stmdane	r2, {r0, r3, r6, r8, r9, ip}
 668:	34470000 	strbcc	r0, [r7], #-0
 66c:	02133100 	andseq	r3, r3, #0, 2
 670:	1742b717 	smlaldne	fp, r2, r7, r7
 674:	05480000 	strbeq	r0, [r8, #-0]
 678:	1c133100 	ldfnes	f3, [r3], {-0}
 67c:	4900000b 	stmdbmi	r0, {r0, r1, r3}
 680:	193f002e 	ldmdbne	pc!, {r1, r2, r3, r5}	@ <UNPREDICTABLE>
 684:	0e6e193c 			@ <UNDEFINED> instruction: 0x0e6e193c
 688:	0b3a0e03 	bleq	e83e9c <__ROM_SIZE+0xe43e9c>
 68c:	00000b3b 	andeq	r0, r0, fp, lsr fp
 690:	01110100 	tsteq	r1, r0, lsl #2
 694:	01111710 	tsteq	r1, r0, lsl r7
 698:	0e030f12 	mcreq	15, 0, r0, cr3, cr2, {0}
 69c:	0e250e1b 	mcreq	14, 1, r0, cr5, cr11, {0}
 6a0:	00000513 	andeq	r0, r0, r3, lsl r5
 6a4:	03002e02 	movweq	r2, #3586	@ 0xe02
 6a8:	49193f0e 	ldmdbmi	r9, {r1, r2, r3, r8, r9, sl, fp, ip, sp}
 6ac:	12011115 	andne	r1, r1, #1073741829	@ 0x40000005
 6b0:	0300000f 	movweq	r0, #15
 6b4:	0000003b 	andeq	r0, r0, fp, lsr r0
 6b8:	00490100 	subeq	r0, r9, r0, lsl #2
 6bc:	187e1802 	ldmdane	lr!, {r1, fp, ip}^
 6c0:	48020000 	stmdami	r2, {}	@ <UNPREDICTABLE>
 6c4:	7f017d01 	svcvc	0x00017d01
 6c8:	00130113 	andseq	r0, r3, r3, lsl r1
 6cc:	00280300 	eoreq	r0, r8, r0, lsl #6
 6d0:	0b1c0e03 	bleq	703ee4 <__ROM_SIZE+0x6c3ee4>
 6d4:	0d040000 	stceq	0, cr0, [r4, #-0]
 6d8:	3a0e0300 	bcc	3812e0 <__ROM_SIZE+0x3412e0>
 6dc:	0b3b0221 	bleq	ec0f68 <__ROM_SIZE+0xe80f68>
 6e0:	13490b39 	movtne	r0, #39737	@ 0x9b39
 6e4:	00000b38 	andeq	r0, r0, r8, lsr fp
 6e8:	49000505 	stmdbmi	r0, {r0, r2, r8, sl}
 6ec:	06000013 			@ <UNDEFINED> instruction: 0x06000013
 6f0:	0e030016 	mcreq	0, 0, r0, cr3, cr6, {0}
 6f4:	3b02213a 	blcc	88be4 <__ROM_SIZE+0x48be4>
 6f8:	490b390b 	stmdbmi	fp, {r0, r1, r3, r8, fp, ip, sp}
 6fc:	07000013 	smladeq	r0, r3, r0, r0
 700:	0b0b0024 	bleq	2c0798 <__ROM_SIZE+0x280798>
 704:	0e030b3e 	vmoveq.16	d3[0], r0
 708:	48080000 	stmdami	r8, {}	@ <UNPREDICTABLE>
 70c:	7f017d01 	svcvc	0x00017d01
 710:	09000013 	stmdbeq	r0, {r0, r1, r4}
 714:	210b000f 	tstcs	fp, pc
 718:	00134904 	andseq	r4, r3, r4, lsl #18
 71c:	00050a00 	andeq	r0, r5, r0, lsl #20
 720:	213a0e03 	teqcs	sl, r3, lsl #28
 724:	39053b01 	stmdbcc	r5, {r0, r8, r9, fp, ip, sp}
 728:	0213490b 	andseq	r4, r3, #180224	@ 0x2c000
 72c:	1742b717 	smlaldne	fp, r2, r7, r7
 730:	130b0000 	movwne	r0, #45056	@ 0xb000
 734:	3a0b0b01 	bcc	2c3340 <__ROM_SIZE+0x283340>
 738:	0b3b0221 	bleq	ec0fc4 <__ROM_SIZE+0xe80fc4>
 73c:	13010b39 	movwne	r0, #6969	@ 0x1b39
 740:	2e0c0000 	cdpcs	0, 0, cr0, cr12, cr0, {0}
 744:	03193f01 	tsteq	r9, #1, 30
 748:	02213a0e 	eoreq	r3, r1, #57344	@ 0xe000
 74c:	0b390b3b 	bleq	e43440 <__ROM_SIZE+0xe03440>
 750:	13491927 	movtne	r1, #39207	@ 0x9927
 754:	06120111 			@ <UNDEFINED> instruction: 0x06120111
 758:	197a1840 	ldmdbne	sl!, {r6, fp, ip}^
 75c:	00001301 	andeq	r1, r0, r1, lsl #6
 760:	3e01040d 	cdpcc	4, 0, cr0, cr1, cr13, {0}
 764:	210b0721 	tstcs	fp, r1, lsr #14
 768:	3a134901 	bcc	4d2b74 <__ROM_SIZE+0x492b74>
 76c:	0b3b0221 	bleq	ec0ff8 <__ROM_SIZE+0xe80ff8>
 770:	01052139 	tsteq	r5, r9, lsr r1
 774:	0e000013 	mcreq	0, 0, r0, cr0, cr3, {0}
 778:	0e030034 	mcreq	0, 0, r0, cr3, cr4, {1}
 77c:	3b01213a 	blcc	48c6c <__ROM_SIZE+0x8c6c>
 780:	490b390b 	stmdbmi	fp, {r0, r1, r3, r8, fp, ip, sp}
 784:	b7170213 			@ <UNDEFINED> instruction: 0xb7170213
 788:	00001742 	andeq	r1, r0, r2, asr #14
 78c:	4901010f 	stmdbmi	r1, {r0, r1, r2, r3, r8}
 790:	00130113 	andseq	r0, r3, r3, lsl r1
 794:	00211000 	eoreq	r1, r1, r0
 798:	0b2f1349 	bleq	bc54c4 <__ROM_SIZE+0xb854c4>
 79c:	2e110000 	cdpcs	0, 1, cr0, cr1, cr0, {0}
 7a0:	03193f01 	tsteq	r9, #1, 30
 7a4:	02213a0e 	eoreq	r3, r1, #57344	@ 0xe000
 7a8:	21390b3b 	teqcs	r9, fp, lsr fp
 7ac:	49192716 	ldmdbmi	r9, {r1, r2, r4, r8, r9, sl, sp}
 7b0:	01193c13 	tsteq	r9, r3, lsl ip
 7b4:	12000013 	andne	r0, r0, #19
 7b8:	0e030034 	mcreq	0, 0, r0, cr3, cr4, {1}
 7bc:	3b01213a 	blcc	48cac <__ROM_SIZE+0x8cac>
 7c0:	1a213905 	bne	84ebdc <__ROM_SIZE+0x80ebdc>
 7c4:	17021349 	strne	r1, [r2, -r9, asr #6]
 7c8:	001742b7 			@ <UNDEFINED> instruction: 0x001742b7
 7cc:	00341300 	eorseq	r1, r4, r0, lsl #6
 7d0:	213a0803 	teqcs	sl, r3, lsl #16
 7d4:	39053b01 	stmdbcc	r5, {r0, r8, r9, fp, ip, sp}
 7d8:	13490821 	movtne	r0, #38945	@ 0x9821
 7dc:	42b71702 	adcsmi	r1, r7, #524288	@ 0x80000
 7e0:	14000017 	strne	r0, [r0], #-23	@ 0xffffffe9
 7e4:	08030005 	stmdaeq	r3, {r0, r2}
 7e8:	3b01213a 	blcc	48cd8 <__ROM_SIZE+0x8cd8>
 7ec:	490b390b 	stmdbmi	fp, {r0, r1, r3, r8, fp, ip, sp}
 7f0:	b7170213 			@ <UNDEFINED> instruction: 0xb7170213
 7f4:	00001742 	andeq	r1, r0, r2, asr #14
 7f8:	03003415 	movweq	r3, #1045	@ 0x415
 7fc:	01213a08 			@ <UNDEFINED> instruction: 0x01213a08
 800:	0b390b3b 	bleq	e434f4 <__ROM_SIZE+0xe034f4>
 804:	17021349 	strne	r1, [r2, -r9, asr #6]
 808:	001742b7 			@ <UNDEFINED> instruction: 0x001742b7
 80c:	00341600 	eorseq	r1, r4, r0, lsl #12
 810:	213a0803 	teqcs	sl, r3, lsl #16
 814:	390b3b01 	stmdbcc	fp, {r0, r8, r9, fp, ip, sp}
 818:	13490721 	movtne	r0, #38689	@ 0x9721
 81c:	00001802 	andeq	r1, r0, r2, lsl #16
 820:	55010b17 	strpl	r0, [r1, #-2839]	@ 0xfffff4e9
 824:	00130117 	andseq	r0, r3, r7, lsl r1
 828:	00051800 	andeq	r1, r5, r0, lsl #16
 82c:	213a0e03 	teqcs	sl, r3, lsl #28
 830:	390b3b02 	stmdbcc	fp, {r1, r8, r9, fp, ip, sp}
 834:	0013490b 	andseq	r4, r3, fp, lsl #18
 838:	01111900 	tsteq	r1, r0, lsl #18
 83c:	0b130e25 	bleq	4c40d8 <__ROM_SIZE+0x4840d8>
 840:	0e1b0e03 	cdpeq	14, 1, cr0, cr11, cr3, {0}
 844:	01111755 	tsteq	r1, r5, asr r7
 848:	00001710 	andeq	r1, r0, r0, lsl r7
 84c:	0b00241a 	bleq	98bc <__copy_table_end__+0x825c>
 850:	030b3e0b 	movweq	r3, #48651	@ 0xbe0b
 854:	1b000008 	blne	87c <_Unwind_GetGR+0x4>
 858:	08030016 	stmdaeq	r3, {r1, r2, r4}
 85c:	0b3b0b3a 	bleq	ec354c <__ROM_SIZE+0xe8354c>
 860:	13490b39 	movtne	r0, #39737	@ 0x9b39
 864:	131c0000 	tstne	ip, #0
 868:	0b0e0301 	bleq	381474 <__ROM_SIZE+0x341474>
 86c:	3b0b3a0b 	blcc	2cf0a0 <__ROM_SIZE+0x28f0a0>
 870:	010b390b 	tsteq	fp, fp, lsl #18
 874:	1d000013 	stcne	0, cr0, [r0, #-76]	@ 0xffffffb4
 878:	0e030013 	mcreq	0, 0, r0, cr3, cr3, {0}
 87c:	0000193c 	andeq	r1, r0, ip, lsr r9
 880:	03000d1e 	movweq	r0, #3358	@ 0xd1e
 884:	3b0b3a08 	blcc	2cf0ac <__ROM_SIZE+0x28f0ac>
 888:	490b390b 	stmdbmi	fp, {r0, r1, r3, r8, fp, ip, sp}
 88c:	000b3813 	andeq	r3, fp, r3, lsl r8
 890:	01151f00 	tsteq	r5, r0, lsl #30
 894:	13011927 	movwne	r1, #6439	@ 0x1927
 898:	0f200000 	svceq	0x00200000
 89c:	000b0b00 	andeq	r0, fp, r0, lsl #22
 8a0:	002e2100 	eoreq	r2, lr, r0, lsl #2
 8a4:	0e03193f 			@ <UNDEFINED> instruction: 0x0e03193f
 8a8:	0b3b0b3a 	bleq	ec3598 <__ROM_SIZE+0xe83598>
 8ac:	19270b39 	stmdbne	r7!, {r0, r3, r4, r5, r8, r9, fp}
 8b0:	3c190187 	ldfccs	f0, [r9], {135}	@ 0x87
 8b4:	22000019 	andcs	r0, r0, #25
 8b8:	193f012e 	ldmdbne	pc!, {r1, r2, r3, r5, r8}	@ <UNPREDICTABLE>
 8bc:	0b3a0e03 	bleq	e840d0 <__ROM_SIZE+0xe440d0>
 8c0:	0b390b3b 	bleq	e435b4 <__ROM_SIZE+0xe035b4>
 8c4:	13491927 	movtne	r1, #39207	@ 0x9927
 8c8:	00001301 	andeq	r1, r0, r1, lsl #6
 8cc:	03000523 	movweq	r0, #1315	@ 0x523
 8d0:	3b0b3a0e 	blcc	2cf110 <__ROM_SIZE+0x28f110>
 8d4:	490b3905 	stmdbmi	fp, {r0, r2, r8, fp, ip, sp}
 8d8:	24000013 	strcs	r0, [r0], #-19	@ 0xffffffed
 8dc:	017d0048 	cmneq	sp, r8, asr #32
 8e0:	0000137f 	andeq	r1, r0, pc, ror r3
 8e4:	03012e25 	movweq	r2, #7717	@ 0x1e25
 8e8:	3b0b3a0e 	blcc	2cf128 <__ROM_SIZE+0x28f128>
 8ec:	270b3905 	strcs	r3, [fp, -r5, lsl #18]
 8f0:	11134919 	tstne	r3, r9, lsl r9
 8f4:	40061201 	andmi	r1, r6, r1, lsl #4
 8f8:	01197a18 	tsteq	r9, r8, lsl sl
 8fc:	26000013 			@ <UNDEFINED> instruction: 0x26000013
 900:	017d0148 	cmneq	sp, r8, asr #2
 904:	7f190182 	svcvc	0x00190182
 908:	27000013 	smladcs	r0, r3, r0, r0
 90c:	01800049 	orreq	r0, r0, r9, asr #32
 910:	00187e13 	andseq	r7, r8, r3, lsl lr
 914:	00342800 	eorseq	r2, r4, r0, lsl #16
 918:	0b3a0803 	bleq	e8292c <__ROM_SIZE+0xe4292c>
 91c:	0b39053b 	bleq	e41e10 <__ROM_SIZE+0xe01e10>
 920:	18021349 	stmdane	r2, {r0, r3, r6, r8, r9, ip}
 924:	05290000 	streq	r0, [r9, #-0]!
 928:	3a0e0300 	bcc	381530 <__ROM_SIZE+0x341530>
 92c:	390b3b0b 	stmdbcc	fp, {r0, r1, r3, r8, r9, fp, ip, sp}
 930:	0213490b 	andseq	r4, r3, #180224	@ 0x2c000
 934:	1742b717 	smlaldne	fp, r2, r7, r7
 938:	0b2a0000 	bleq	a80940 <__ROM_SIZE+0xa40940>
 93c:	12011101 	andne	r1, r1, #1073741824	@ 0x40000000
 940:	00130106 	andseq	r0, r3, r6, lsl #2
 944:	012e2b00 			@ <UNDEFINED> instruction: 0x012e2b00
 948:	0b3a0e03 	bleq	e8415c <__ROM_SIZE+0xe4415c>
 94c:	0b390b3b 	bleq	e43640 <__ROM_SIZE+0xe03640>
 950:	13491927 	movtne	r1, #39207	@ 0x9927
 954:	06120111 			@ <UNDEFINED> instruction: 0x06120111
 958:	197a1840 	ldmdbne	sl!, {r6, fp, ip}^
 95c:	00001301 	andeq	r1, r0, r1, lsl #6
 960:	03012e2c 	movweq	r2, #7724	@ 0x1e2c
 964:	3b0b3a0e 	blcc	2cf1a4 <__ROM_SIZE+0x28f1a4>
 968:	270b390b 	strcs	r3, [fp, -fp, lsl #18]
 96c:	20134919 	andscs	r4, r3, r9, lsl r9
 970:	0013010b 	andseq	r0, r3, fp, lsl #2
 974:	00342d00 	eorseq	r2, r4, r0, lsl #26
 978:	0b3a0803 	bleq	e8298c <__ROM_SIZE+0xe4298c>
 97c:	0b390b3b 	bleq	e43670 <__ROM_SIZE+0xe03670>
 980:	00001349 	andeq	r1, r0, r9, asr #6
 984:	31012e2e 	tstcc	r1, lr, lsr #28
 988:	12011113 	andne	r1, r1, #-1073741820	@ 0xc0000004
 98c:	7a184006 	bvc	6109ac <__ROM_SIZE+0x5d09ac>
 990:	2f000019 	svccs	0x00000019
 994:	13310005 	teqne	r1, #5
 998:	42b71702 	adcsmi	r1, r7, #524288	@ 0x80000
 99c:	30000017 	andcc	r0, r0, r7, lsl r0
 9a0:	13310034 	teqne	r1, #52	@ 0x34
 9a4:	00001802 	andeq	r1, r0, r2, lsl #16
 9a8:	31000531 	tstcc	r0, r1, lsr r5
 9ac:	000b1c13 	andeq	r1, fp, r3, lsl ip
 9b0:	11010000 	mrsne	r0, (UNDEF: 1)
 9b4:	11171001 	tstne	r7, r1
 9b8:	030f1201 	movweq	r1, #61953	@ 0xf201
 9bc:	250e1b0e 	strcs	r1, [lr, #-2830]	@ 0xfffff4f2
 9c0:	0005130e 	andeq	r1, r5, lr, lsl #6
 9c4:	002e0200 	eoreq	r0, lr, r0, lsl #4
 9c8:	193f0e03 	ldmdbne	pc!, {r0, r1, r9, sl, fp}	@ <UNPREDICTABLE>
 9cc:	01111549 	tsteq	r1, r9, asr #10
 9d0:	00000f12 	andeq	r0, r0, r2, lsl pc
 9d4:	00003b03 	andeq	r3, r0, r3, lsl #22
	...

Disassembly of section .debug_aranges:

00000000 <.debug_aranges>:
   0:	0000001c 	andeq	r0, r0, ip, lsl r0
   4:	00000002 	andeq	r0, r0, r2
   8:	00040000 	andeq	r0, r4, r0
   c:	00000000 	andeq	r0, r0, r0
  10:	000003c0 	andeq	r0, r0, r0, asr #7
  14:	00000058 	andeq	r0, r0, r8, asr r0
	...
  20:	00000024 	andeq	r0, r0, r4, lsr #32
  24:	01370002 	teqeq	r7, r2
  28:	00040000 	andeq	r0, r4, r0
	...
  34:	0000001c 	andeq	r0, r0, ip, lsl r0
  38:	00000418 	andeq	r0, r0, r8, lsl r4
  3c:	00000028 	andeq	r0, r0, r8, lsr #32
	...
  48:	0000001c 	andeq	r0, r0, ip, lsl r0
  4c:	03c40002 	biceq	r0, r4, #2
  50:	00040000 	andeq	r0, r4, r0
  54:	00000000 	andeq	r0, r0, r0
  58:	00000440 	andeq	r0, r0, r0, asr #8
  5c:	00000014 	andeq	r0, r0, r4, lsl r0
	...
  68:	00000024 	andeq	r0, r0, r4, lsr #32
  6c:	042c0002 	strteq	r0, [ip], #-2
  70:	00040000 	andeq	r0, r4, r0
  74:	00000000 	andeq	r0, r0, r0
  78:	00000454 	andeq	r0, r0, r4, asr r4
  7c:	00000020 	andeq	r0, r0, r0, lsr #32
  80:	00000474 	andeq	r0, r0, r4, ror r4
  84:	0000002c 	andeq	r0, r0, ip, lsr #32
	...
  90:	0000001c 	andeq	r0, r0, ip, lsl r0
  94:	05070002 	streq	r0, [r7, #-2]
  98:	00040000 	andeq	r0, r4, r0
  9c:	00000000 	andeq	r0, r0, r0
  a0:	000004a0 	andeq	r0, r0, r0, lsr #9
  a4:	00000a60 	andeq	r0, r0, r0, ror #20
	...
  b0:	0000001c 	andeq	r0, r0, ip, lsl r0
  b4:	24b00002 	ldrtcs	r0, [r0], #2
  b8:	00040000 	andeq	r0, r4, r0
  bc:	00000000 	andeq	r0, r0, r0
  c0:	00000f00 	andeq	r0, r0, r0, lsl #30
  c4:	000001aa 	andeq	r0, r0, sl, lsr #3
	...
  d0:	0000002c 	andeq	r0, r0, ip, lsr #32
  d4:	25670002 	strbcs	r0, [r7, #-2]!
  d8:	00040000 	andeq	r0, r4, r0
  dc:	00000000 	andeq	r0, r0, r0
  e0:	000010ac 	andeq	r1, r0, ip, lsr #1
  e4:	000003a2 	andeq	r0, r0, r2, lsr #7
  e8:	00000000 	andeq	r0, r0, r0
  ec:	00000006 	andeq	r0, r0, r6
  f0:	00000000 	andeq	r0, r0, r0
  f4:	00000006 	andeq	r0, r0, r6
	...
 100:	0000001c 	andeq	r0, r0, ip, lsl r0
 104:	30480002 	subcc	r0, r8, r2
 108:	00040000 	andeq	r0, r4, r0
 10c:	00000000 	andeq	r0, r0, r0
 110:	00001450 	andeq	r1, r0, r0, asr r4
 114:	000000ec 	andeq	r0, r0, ip, ror #1
	...

Disassembly of section .debug_str:

00000000 <.debug_str>:
       0:	432f2e2e 			@ <UNDEFINED> instruction: 0x432f2e2e
       4:	5349534d 	movtpl	r5, #37709	@ 0x934d
       8:	442f355f 	strtmi	r3, [pc], #-1375	@ 10 <__Vectors+0x10>
       c:	63697665 	cmnvs	r9, #105906176	@ 0x6500000
      10:	52412f65 	subpl	r2, r1, #404	@ 0x194
      14:	52412f4d 	subpl	r2, r1, #308	@ 0x134
      18:	334d434d 	movtcc	r4, #54093	@ 0xd34d
      1c:	756f532f 	strbvc	r5, [pc, #-815]!	@ fffffcf5 <__StackTop+0xdffefcf5>
      20:	2f656372 	svccs	0x00656372
      24:	2f434347 	svccs	0x00434347
      28:	72617473 	rsbvc	r7, r1, #1929379840	@ 0x73000000
      2c:	5f707574 	svcpl	0x00707574
      30:	434d5241 	movtmi	r5, #53825	@ 0xd241
      34:	532e334d 			@ <UNDEFINED> instruction: 0x532e334d
      38:	6f682f00 	svcvs	0x00682f00
      3c:	782f656d 	stmdavc	pc!, {r0, r2, r3, r5, r6, r8, sl, sp, lr}	@ <UNPREDICTABLE>
      40:	442f7973 	strtmi	r7, [pc], #-2419	@ 48 <__Vectors+0x48>
      44:	6d75636f 	ldclvs	3, cr6, [r5, #-444]!	@ 0xfffffe44
      48:	73746e65 	cmnvc	r4, #1616	@ 0x650
      4c:	6f72502f 	svcvs	0x0072502f
      50:	7463656a 	strbtvc	r6, [r3], #-1386	@ 0xfffffa96
      54:	4d45512f 	stfmie	f5, [r5, #-188]	@ 0xffffff44
      58:	5f435f55 	svcpl	0x00435f55
      5c:	53334d4c 	teqpl	r3, #76, 26	@ 0x1300
      60:	35363936 	ldrcc	r3, [r6, #-2358]!	@ 0xfffff6ca
      64:	2f425645 	svccs	0x00425645
      68:	74726175 	ldrbtvc	r6, [r2], #-373	@ 0xfffffe8b
      6c:	6f72705f 	svcvs	0x0072705f
      70:	6d617267 	sfmvs	f7, 2, [r1, #-412]!	@ 0xfffffe64
      74:	554e4700 	strbpl	r4, [lr, #-1792]	@ 0xfffff900
      78:	20534120 	subscs	r4, r3, r0, lsr #2
      7c:	32342e32 	eorscc	r2, r4, #800	@ 0x320
      80:	73655200 	cmnvc	r5, #0, 4
      84:	485f7465 	ldmdami	pc, {r0, r2, r5, r6, sl, ip, sp, lr}^	@ <UNPREDICTABLE>
      88:	6c646e61 	stclvs	14, cr6, [r4], #-388	@ 0xfffffe7c
      8c:	4e007265 	cdpmi	2, 0, cr7, cr0, cr5, {3}
      90:	485f494d 	ldmdami	pc, {r0, r2, r3, r6, r8, fp, lr}^	@ <UNPREDICTABLE>
      94:	6c646e61 	stclvs	14, cr6, [r4], #-388	@ 0xfffffe7c
      98:	48007265 	stmdami	r0, {r0, r2, r5, r6, r9, ip, sp, lr}
      9c:	46647261 	strbtmi	r7, [r4], -r1, ror #4
      a0:	746c7561 	strbtvc	r7, [ip], #-1377	@ 0xfffffa9f
      a4:	6e61485f 	mcrvs	8, 3, r4, cr1, cr15, {2}
      a8:	72656c64 	rsbvc	r6, r5, #100, 24	@ 0x6400
      ac:	6d654d00 	stclvs	13, cr4, [r5, #-0]
      b0:	616e614d 	cmnvs	lr, sp, asr #2
      b4:	485f6567 	ldmdami	pc, {r0, r1, r2, r5, r6, r8, sl, sp, lr}^	@ <UNPREDICTABLE>
      b8:	6c646e61 	stclvs	14, cr6, [r4], #-388	@ 0xfffffe7c
      bc:	42007265 	andmi	r7, r0, #1342177286	@ 0x50000006
      c0:	61467375 	hvcvs	26421	@ 0x6735
      c4:	5f746c75 	svcpl	0x00746c75
      c8:	646e6148 	strbtvs	r6, [lr], #-328	@ 0xfffffeb8
      cc:	0072656c 	rsbseq	r6, r2, ip, ror #10
      d0:	67617355 			@ <UNDEFINED> instruction: 0x67617355
      d4:	75614665 	strbvc	r4, [r1, #-1637]!	@ 0xfffff99b
      d8:	485f746c 	ldmdami	pc, {r2, r3, r5, r6, sl, ip, sp, lr}^	@ <UNPREDICTABLE>
      dc:	6c646e61 	stclvs	14, cr6, [r4], #-388	@ 0xfffffe7c
      e0:	53007265 	movwpl	r7, #613	@ 0x265
      e4:	485f4356 	ldmdami	pc, {r1, r2, r4, r6, r8, r9, lr}^	@ <UNPREDICTABLE>
      e8:	6c646e61 	stclvs	14, cr6, [r4], #-388	@ 0xfffffe7c
      ec:	44007265 	strmi	r7, [r0], #-613	@ 0xfffffd9b
      f0:	67756265 	ldrbvs	r6, [r5, -r5, ror #4]!
      f4:	5f6e6f4d 	svcpl	0x006e6f4d
      f8:	646e6148 	strbtvs	r6, [lr], #-328	@ 0xfffffeb8
      fc:	0072656c 	rsbseq	r6, r2, ip, ror #10
     100:	646e6550 	strbtvs	r6, [lr], #-1360	@ 0xfffffab0
     104:	485f5653 	ldmdami	pc, {r0, r1, r4, r6, r9, sl, ip, lr}^	@ <UNPREDICTABLE>
     108:	6c646e61 	stclvs	14, cr6, [r4], #-388	@ 0xfffffe7c
     10c:	53007265 	movwpl	r7, #613	@ 0x265
     110:	69547379 	ldmdbvs	r4, {r0, r3, r4, r5, r6, r8, r9, ip, sp, lr}^
     114:	485f6b63 	ldmdami	pc, {r0, r1, r5, r6, r8, r9, fp, sp, lr}^	@ <UNPREDICTABLE>
     118:	6c646e61 	stclvs	14, cr6, [r4], #-388	@ 0xfffffe7c
     11c:	49007265 	stmdbmi	r0, {r0, r2, r5, r6, r9, ip, sp, lr}
     120:	7265746e 	rsbvc	r7, r5, #1845493760	@ 0x6e000000
     124:	74707572 	ldrbtvc	r7, [r0], #-1394	@ 0xfffffa8e
     128:	61485f30 	cmpvs	r8, r0, lsr pc
     12c:	656c646e 	strbvs	r6, [ip, #-1134]!	@ 0xfffffb92
     130:	6e490072 	mcrvs	0, 2, r0, cr9, cr2, {3}
     134:	72726574 	rsbsvc	r6, r2, #116, 10	@ 0x1d000000
     138:	31747075 	cmncc	r4, r5, ror r0
     13c:	6e61485f 	mcrvs	8, 3, r4, cr1, cr15, {2}
     140:	72656c64 	rsbvc	r6, r5, #100, 24	@ 0x6400
     144:	746e4900 	strbtvc	r4, [lr], #-2304	@ 0xfffff700
     148:	75727265 	ldrbvc	r7, [r2, #-613]!	@ 0xfffffd9b
     14c:	5f327470 	svcpl	0x00327470
     150:	646e6148 	strbtvs	r6, [lr], #-328	@ 0xfffffeb8
     154:	0072656c 	rsbseq	r6, r2, ip, ror #10
     158:	65746e49 	ldrbvs	r6, [r4, #-3657]!	@ 0xfffff1b7
     15c:	70757272 	rsbsvc	r7, r5, r2, ror r2
     160:	485f3374 	ldmdami	pc, {r2, r4, r5, r6, r8, r9, ip, sp}^	@ <UNPREDICTABLE>
     164:	6c646e61 	stclvs	14, cr6, [r4], #-388	@ 0xfffffe7c
     168:	49007265 	stmdbmi	r0, {r0, r2, r5, r6, r9, ip, sp, lr}
     16c:	7265746e 	rsbvc	r7, r5, #1845493760	@ 0x6e000000
     170:	74707572 	ldrbtvc	r7, [r0], #-1394	@ 0xfffffa8e
     174:	61485f34 	cmpvs	r8, r4, lsr pc
     178:	656c646e 	strbvs	r6, [ip, #-1134]!	@ 0xfffffb92
     17c:	6e490072 	mcrvs	0, 2, r0, cr9, cr2, {3}
     180:	72726574 	rsbsvc	r6, r2, #116, 10	@ 0x1d000000
     184:	35747075 	ldrbcc	r7, [r4, #-117]!	@ 0xffffff8b
     188:	6e61485f 	mcrvs	8, 3, r4, cr1, cr15, {2}
     18c:	72656c64 	rsbvc	r6, r5, #100, 24	@ 0x6400
     190:	746e4900 	strbtvc	r4, [lr], #-2304	@ 0xfffff700
     194:	75727265 	ldrbvc	r7, [r2, #-613]!	@ 0xfffffd9b
     198:	5f367470 	svcpl	0x00367470
     19c:	646e6148 	strbtvs	r6, [lr], #-328	@ 0xfffffeb8
     1a0:	0072656c 	rsbseq	r6, r2, ip, ror #10
     1a4:	65746e49 	ldrbvs	r6, [r4, #-3657]!	@ 0xfffff1b7
     1a8:	70757272 	rsbsvc	r7, r5, r2, ror r2
     1ac:	485f3774 	ldmdami	pc, {r2, r4, r5, r6, r8, r9, sl, ip, sp}^	@ <UNPREDICTABLE>
     1b0:	6c646e61 	stclvs	14, cr6, [r4], #-388	@ 0xfffffe7c
     1b4:	49007265 	stmdbmi	r0, {r0, r2, r5, r6, r9, ip, sp, lr}
     1b8:	7265746e 	rsbvc	r7, r5, #1845493760	@ 0x6e000000
     1bc:	74707572 	ldrbtvc	r7, [r0], #-1394	@ 0xfffffa8e
     1c0:	61485f38 	cmpvs	r8, r8, lsr pc
     1c4:	656c646e 	strbvs	r6, [ip, #-1134]!	@ 0xfffffb92
     1c8:	6e490072 	mcrvs	0, 2, r0, cr9, cr2, {3}
     1cc:	72726574 	rsbsvc	r6, r2, #116, 10	@ 0x1d000000
     1d0:	39747075 	ldmdbcc	r4!, {r0, r2, r4, r5, r6, ip, sp, lr}^
     1d4:	6e61485f 	mcrvs	8, 3, r4, cr1, cr15, {2}
     1d8:	72656c64 	rsbvc	r6, r5, #100, 24	@ 0x6400
     1dc:	66654400 	strbtvs	r4, [r5], -r0, lsl #8
     1e0:	746c7561 	strbtvc	r7, [ip], #-1377	@ 0xfffffa9f
     1e4:	6e61485f 	mcrvs	8, 3, r4, cr1, cr15, {2}
     1e8:	72656c64 	rsbvc	r6, r5, #100, 24	@ 0x6400
     1ec:	464d4d00 	strbmi	r4, [sp], -r0, lsl #26
     1f0:	48530052 	ldmdami	r3, {r1, r4, r6}^
     1f4:	00525343 	subseq	r5, r2, r3, asr #6
     1f8:	74737953 	ldrbtvc	r7, [r3], #-2387	@ 0xfffff6ad
     1fc:	6e496d65 	cdpvs	13, 4, cr6, cr9, cr5, {3}
     200:	56007469 	strpl	r7, [r0], -r9, ror #8
     204:	00524f54 	subseq	r4, r2, r4, asr pc
     208:	45534552 	ldrbmi	r4, [r3, #-1362]	@ 0xfffffaae
     20c:	44455652 	strbmi	r5, [r5], #-1618	@ 0xfffff9ae
     210:	6e750030 	mrcvs	0, 3, r0, cr5, cr0, {1}
     214:	6e676973 			@ <UNDEFINED> instruction: 0x6e676973
     218:	63206465 			@ <UNDEFINED> instruction: 0x63206465
     21c:	00726168 	rsbseq	r6, r2, r8, ror #2
     220:	20554e47 	subscs	r4, r5, r7, asr #28
     224:	20373143 	eorscs	r3, r7, r3, asr #2
     228:	322e3331 	eorcc	r3, lr, #-1006632960	@ 0xc4000000
     22c:	3220312e 	eorcc	r3, r0, #-2147483637	@ 0x8000000b
     230:	31333230 	teqcc	r3, r0, lsr r2
     234:	20393030 	eorscs	r3, r9, r0, lsr r0
     238:	70636d2d 	rsbvc	r6, r3, sp, lsr #26
     23c:	6f633d75 	svcvs	0x00633d75
     240:	78657472 	stmdavc	r5!, {r1, r4, r5, r6, sl, ip, sp, lr}^
     244:	20336d2d 	eorscs	r6, r3, sp, lsr #26
     248:	68746d2d 	ldmdavs	r4!, {r0, r2, r3, r5, r8, sl, fp, sp, lr}^
     24c:	20626d75 	rsbcs	r6, r2, r5, ror sp
     250:	6c666d2d 	stclvs	13, cr6, [r6], #-180	@ 0xffffff4c
     254:	2d74616f 	ldfcse	f6, [r4, #-444]!	@ 0xfffffe44
     258:	3d696261 	sfmcc	f6, 2, [r9, #-388]!	@ 0xfffffe7c
     25c:	74666f73 	strbtvc	r6, [r6], #-3955	@ 0xfffff08d
     260:	616d2d20 	cmnvs	sp, r0, lsr #26
     264:	3d686372 	stclcc	3, cr6, [r8, #-456]!	@ 0xfffffe38
     268:	766d7261 	strbtvc	r7, [sp], -r1, ror #4
     26c:	206d2d37 	rsbcs	r2, sp, r7, lsr sp
     270:	2d20672d 	stccs	7, cr6, [r0, #-180]!	@ 0xffffff4c
     274:	2d20304f 	stccs	0, cr3, [r0, #-316]!	@ 0xfffffec4
     278:	6e756666 	cdpvs	6, 7, cr6, cr5, cr6, {3}
     27c:	6f697463 	svcvs	0x00697463
     280:	65732d6e 	ldrbvs	r2, [r3, #-3438]!	@ 0xfffff292
     284:	6f697463 	svcvs	0x00697463
     288:	2d20736e 	stccs	3, cr7, [r0, #-440]!	@ 0xfffffe48
     28c:	74616466 	strbtvc	r6, [r1], #-1126	@ 0xfffffb9a
     290:	65732d61 	ldrbvs	r2, [r3, #-3425]!	@ 0xfffff29f
     294:	6f697463 	svcvs	0x00697463
     298:	7300736e 	movwvc	r7, #878	@ 0x36e
     29c:	74726f68 	ldrbtvc	r6, [r2], #-3944	@ 0xfffff098
     2a0:	736e7520 	cmnvc	lr, #32, 10	@ 0x8000000
     2a4:	656e6769 	strbvs	r6, [lr, #-1897]!	@ 0xfffff897
     2a8:	6e692064 	cdpvs	0, 6, cr2, cr9, cr4, {3}
     2ac:	46430074 			@ <UNDEFINED> instruction: 0x46430074
     2b0:	48005253 	stmdami	r0, {r0, r1, r4, r6, r9, ip, lr}
     2b4:	00525346 	subseq	r5, r2, r6, asr #6
     2b8:	65565f5f 	ldrbvs	r5, [r6, #-3935]	@ 0xfffff0a1
     2bc:	726f7463 	rsbvc	r7, pc, #1660944384	@ 0x63000000
     2c0:	50430073 	subpl	r0, r3, r3, ror r0
     2c4:	00524341 	subseq	r4, r2, r1, asr #6
     2c8:	726f6873 	rsbvc	r6, pc, #7536640	@ 0x730000
     2cc:	6e692074 	mcrvs	0, 3, r2, cr9, cr4, {3}
     2d0:	43530074 	cmpmi	r3, #116	@ 0x74
     2d4:	79545f42 	ldmdbvc	r4, {r1, r6, r8, r9, sl, fp, ip, lr}^
     2d8:	44006570 	strmi	r6, [r0], #-1392	@ 0xfffffa90
     2dc:	00525346 	subseq	r5, r2, r6, asr #6
     2e0:	676e6f6c 	strbvs	r6, [lr, -ip, ror #30]!
     2e4:	6e6f6c20 	cdpvs	12, 6, cr6, cr15, cr0, {1}
     2e8:	6e752067 	cdpvs	0, 7, cr2, cr5, cr7, {3}
     2ec:	6e676973 			@ <UNDEFINED> instruction: 0x6e676973
     2f0:	69206465 	stmdbvs	r0!, {r0, r2, r5, r6, sl, sp, lr}
     2f4:	4900746e 	stmdbmi	r0, {r1, r2, r3, r5, r6, sl, ip, sp, lr}
     2f8:	00525343 	subseq	r5, r2, r3, asr #6
     2fc:	43524941 	cmpmi	r2, #1064960	@ 0x104000
     300:	53490052 	movtpl	r0, #36946	@ 0x9052
     304:	42005241 	andmi	r5, r0, #268435460	@ 0x10000004
     308:	00524146 	subseq	r4, r2, r6, asr #2
     30c:	432f2e2e 			@ <UNDEFINED> instruction: 0x432f2e2e
     310:	5349534d 	movtpl	r5, #37709	@ 0x934d
     314:	442f355f 	strtmi	r3, [pc], #-1375	@ 31c <__Vectors+0x31c>
     318:	63697665 	cmnvs	r9, #105906176	@ 0x6500000
     31c:	52412f65 	subpl	r2, r1, #404	@ 0x194
     320:	52412f4d 	subpl	r2, r1, #308	@ 0x134
     324:	334d434d 	movtcc	r4, #54093	@ 0xd34d
     328:	756f532f 	strbvc	r5, [pc, #-815]!	@ 1 <__Vectors+0x1>
     32c:	2f656372 	svccs	0x00656372
     330:	74737973 	ldrbtvc	r7, [r3], #-2419	@ 0xfffff68d
     334:	415f6d65 	cmpmi	pc, r5, ror #26
     338:	4d434d52 	stclmi	13, cr4, [r3, #-328]	@ 0xfffffeb8
     33c:	00632e33 	rsbeq	r2, r3, r3, lsr lr
     340:	746e6975 	strbtvc	r6, [lr], #-2421	@ 0xfffff68b
     344:	00745f38 	rsbseq	r5, r4, r8, lsr pc
     348:	676e6f6c 	strbvs	r6, [lr, -ip, ror #30]!
     34c:	6e6f6c20 	cdpvs	12, 6, cr6, cr15, cr0, {1}
     350:	6e692067 	cdpvs	0, 6, cr2, cr9, cr7, {3}
     354:	50430074 	subpl	r0, r3, r4, ror r0
     358:	00444955 	subeq	r4, r4, r5, asr r9
     35c:	54434556 	strbpl	r4, [r3], #-1366	@ 0xfffffaaa
     360:	545f524f 	ldrbpl	r5, [pc], #-591	@ 368 <__Vectors+0x368>
     364:	454c4241 	strbmi	r4, [ip, #-577]	@ 0xfffffdbf
     368:	7079545f 	rsbsvc	r5, r9, pc, asr r4
     36c:	79530065 	ldmdbvc	r3, {r0, r2, r5, r6}^
     370:	6d657473 	cfstrdvs	mvd7, [r5, #-460]!	@ 0xfffffe34
     374:	65726f43 	ldrbvs	r6, [r2, #-3907]!	@ 0xfffff0bd
     378:	636f6c43 	cmnvs	pc, #17152	@ 0x4300
     37c:	7953006b 	ldmdbvc	r3, {r0, r1, r3, r5, r6}^
     380:	6d657473 	cfstrdvs	mvd7, [r5, #-460]!	@ 0xfffffe34
     384:	65726f43 	ldrbvs	r6, [r2, #-3907]!	@ 0xfffff0bd
     388:	636f6c43 	cmnvs	pc, #17152	@ 0x4300
     38c:	6470556b 	ldrbtvs	r5, [r0], #-1387	@ 0xfffffa95
     390:	00657461 	rsbeq	r7, r5, r1, ror #8
     394:	41464d4d 	cmpmi	r6, sp, asr #26
     398:	69750052 	ldmdbvs	r5!, {r1, r4, r6}^
     39c:	3233746e 	eorscc	r7, r3, #1845493760	@ 0x6e000000
     3a0:	4100745f 	tstmi	r0, pc, asr r4
     3a4:	00525346 	subseq	r5, r2, r6, asr #6
     3a8:	6e697270 	mcrvs	2, 3, r7, cr9, cr0, {3}
     3ac:	72745374 	rsbsvc	r5, r4, #116, 6	@ 0xd0000001
     3b0:	00676e69 	rsbeq	r6, r7, r9, ror #28
     3b4:	6e69616d 	powvsez	f6, f1, #5.0
     3b8:	6d00632e 	stcvs	3, cr6, [r0, #-184]	@ 0xffffff48
     3bc:	006e6961 	rsbeq	r6, lr, r1, ror #18
     3c0:	6f695f5f 	svcvs	0x00695f5f
     3c4:	7475705f 	ldrbtvc	r7, [r5], #-95	@ 0xffffffa1
     3c8:	72616863 	rsbvc	r6, r1, #6488064	@ 0x630000
     3cc:	72617500 	rsbvc	r7, r1, #0, 10
     3d0:	00632e74 	rsbeq	r2, r3, r4, ror lr
     3d4:	676e6f6c 	strbvs	r6, [lr, -ip, ror #30]!
     3d8:	756f6420 	strbvc	r6, [pc, #-1056]!	@ ffffffc0 <__StackTop+0xdffeffc0>
     3dc:	00656c62 	rsbeq	r6, r5, r2, ror #24
     3e0:	63676572 	cmnvs	r7, #478150656	@ 0x1c800000
     3e4:	7373616c 	cmnvc	r3, #108, 2
     3e8:	74696200 	strbtvc	r6, [r9], #-512	@ 0xfffffe00
     3ec:	74746170 	ldrbtvc	r6, [r4], #-368	@ 0xfffffe90
     3f0:	006e7265 	rsbeq	r7, lr, r5, ror #4
     3f4:	776e555f 			@ <UNDEFINED> instruction: 0x776e555f
     3f8:	5f646e69 	svcpl	0x00646e69
     3fc:	75626544 	strbvc	r6, [r2, #-1348]!	@ 0xfffffabc
     400:	6f6f4867 	svcvs	0x006f4867
     404:	7274006b 	rsbsvc	r0, r4, #107	@ 0x6b
     408:	5f656361 	svcpl	0x00656361
     40c:	75677261 	strbvc	r7, [r7, #-609]!	@ 0xfffffd9f
     410:	746e656d 	strbtvc	r6, [lr], #-1389	@ 0xfffffa93
     414:	65727000 	ldrbvs	r7, [r2, #-0]!
     418:	70735f76 	rsbsvc	r5, r3, r6, ror pc
     41c:	52555f00 	subspl	r5, r5, #0, 30
     420:	4e495f43 	cdpmi	15, 4, cr5, cr9, cr3, {2}
     424:	4c415453 	cfstrdmi	mvd5, [r1], {83}	@ 0x53
     428:	4f435f4c 	svcmi	0x00435f4c
     42c:	5845544e 	stmdapl	r5, {r1, r2, r3, r6, sl, ip, lr}^
     430:	555f0054 	ldrbpl	r0, [pc, #-84]	@ 3e4 <Reset_Handler+0x24>
     434:	6e69776e 	cdpvs	7, 6, cr7, cr9, cr14, {3}
     438:	6f435f64 	svcvs	0x00435f64
     43c:	7865746e 	stmdavc	r5!, {r1, r2, r3, r5, r6, sl, ip, sp, lr}^
     440:	68650074 	stmdavs	r5!, {r2, r4, r5, r6}^
     444:	5f007074 	svcpl	0x00007074
     448:	69776e55 	ldmdbvs	r7!, {r0, r2, r4, r6, r9, sl, fp, sp, lr}^
     44c:	505f646e 	subspl	r6, pc, lr, ror #8
     450:	5f007274 	svcpl	0x00007274
     454:	69776e55 	ldmdbvs	r7!, {r0, r2, r4, r6, r9, sl, fp, sp, lr}^
     458:	535f646e 	cmppl	pc, #1845493760	@ 0x6e000000
     45c:	5f706f74 	svcpl	0x00706f74
     460:	5f006e46 	svcpl	0x00006e46
     464:	756e675f 	strbvc	r6, [lr, #-1887]!	@ 0xfffff8a1
     468:	776e555f 			@ <UNDEFINED> instruction: 0x776e555f
     46c:	5f646e69 	svcpl	0x00646e69
     470:	6b636142 	blvs	18d8980 <__ROM_SIZE+0x1898980>
     474:	63617274 	cmnvs	r1, #116, 4	@ 0x40000007
     478:	78650065 	stmdavc	r5!, {r0, r2, r5, r6}^
     47c:	74706563 	ldrbtvc	r6, [r0], #-1379	@ 0xfffffa9d
     480:	5f6e6f69 	svcpl	0x006e6f69
     484:	61656c63 	cmnvs	r5, r3, ror #24
     488:	0070756e 	rsbseq	r7, r0, lr, ror #10
     48c:	78635f5f 	stmdavc	r3!, {r0, r1, r2, r3, r4, r6, r8, r9, sl, fp, ip, lr}^
     490:	65625f61 	strbvs	r5, [r2, #-3937]!	@ 0xfffff09f
     494:	5f6e6967 	svcpl	0x006e6967
     498:	61656c63 	cmnvs	r5, r3, ror #24
     49c:	0070756e 	rsbseq	r7, r0, lr, ror #10
     4a0:	5f53555f 	svcpl	0x0053555f
     4a4:	49574e55 	ldmdbmi	r7, {r0, r2, r4, r6, r9, sl, fp, lr}^
     4a8:	465f444e 	ldrbmi	r4, [pc], -lr, asr #8
     4ac:	454d4152 	strbmi	r4, [sp, #-338]	@ 0xfffffeae
     4b0:	5345525f 	movtpl	r5, #21087	@ 0x525f
     4b4:	00454d55 	subeq	r4, r5, r5, asr sp
     4b8:	5f706d74 	svcpl	0x00706d74
     4bc:	6e756f63 	cdpvs	15, 7, cr6, cr5, cr3, {3}
     4c0:	00325f74 	eorseq	r5, r2, r4, ror pc
     4c4:	776e555f 			@ <UNDEFINED> instruction: 0x776e555f
     4c8:	5f646e69 	svcpl	0x00646e69
     4cc:	5f535256 	svcpl	0x00535256
     4d0:	00706f50 	rsbseq	r6, r0, r0, asr pc
     4d4:	72746e65 	rsbsvc	r6, r4, #1616	@ 0x650
     4d8:	72765f79 	rsbsvc	r5, r6, #484	@ 0x1e4
     4dc:	5f5f0073 	svcpl	0x005f0073
     4e0:	5f756e67 	svcpl	0x00756e67
     4e4:	69776e75 	ldmdbvs	r7!, {r0, r2, r4, r5, r6, r9, sl, fp, sp, lr}^
     4e8:	655f646e 	ldrbvs	r6, [pc, #-1134]	@ 82 <__Vectors+0x82>
     4ec:	75636578 	strbvc	r6, [r3, #-1400]!	@ 0xfffffa88
     4f0:	6e006574 	cfrshl64vs	mvdx0, mvdx4, r6
     4f4:	765f6d75 			@ <UNDEFINED> instruction: 0x765f6d75
     4f8:	33767066 	cmncc	r6, #102	@ 0x66
     4fc:	6765725f 			@ <UNDEFINED> instruction: 0x6765725f
     500:	5f5f0073 	svcpl	0x005f0073
     504:	5f756e67 	svcpl	0x00756e67
     508:	69776e75 	ldmdbvs	r7!, {r0, r2, r4, r5, r6, r9, sl, fp, sp, lr}^
     50c:	675f646e 	ldrbvs	r6, [pc, -lr, ror #8]
     510:	705f7465 	subsvc	r7, pc, r5, ror #8
     514:	64615f72 	strbtvs	r5, [r1], #-3954	@ 0xfffff08e
     518:	75007264 	strvc	r7, [r0, #-612]	@ 0xfffffd9c
     51c:	00706263 	rsbseq	r6, r0, r3, ror #4
     520:	776e555f 			@ <UNDEFINED> instruction: 0x776e555f
     524:	5f646e69 	svcpl	0x00646e69
     528:	5f535256 	svcpl	0x00535256
     52c:	00746547 	rsbseq	r6, r4, r7, asr #10
     530:	666c6573 			@ <UNDEFINED> instruction: 0x666c6573
     534:	5f6c6572 	svcpl	0x006c6572
     538:	7366666f 	cmnvc	r6, #116391936	@ 0x6f00000
     53c:	31337465 	teqcc	r3, r5, ror #8
     540:	675f5f00 	ldrbvs	r5, [pc, -r0, lsl #30]
     544:	555f756e 	ldrbpl	r7, [pc, #-1390]	@ ffffffde <__StackTop+0xdffeffde>
     548:	6e69776e 	cdpvs	7, 6, cr7, cr9, cr14, {3}
     54c:	6f465f64 	svcvs	0x00465f64
     550:	64656372 	strbtvs	r6, [r5], #-882	@ 0xfffffc8e
     554:	69776e55 	ldmdbvs	r7!, {r0, r2, r4, r6, r9, sl, fp, sp, lr}^
     558:	6e00646e 	cdpvs	4, 0, cr6, cr0, cr14, {3}
     55c:	00747865 	rsbseq	r7, r4, r5, ror #16
     560:	776e555f 			@ <UNDEFINED> instruction: 0x776e555f
     564:	5f646e69 	svcpl	0x00646e69
     568:	43746547 	cmnmi	r4, #297795584	@ 0x11c00000
     56c:	5f004146 	svcpl	0x00004146
     570:	53525655 	cmppl	r2, #89128960	@ 0x5500000
     574:	4c465f44 	mcrrmi	15, 4, r5, r6, cr4
     578:	0054414f 	subseq	r4, r4, pc, asr #2
     57c:	5f6d7463 	svcpl	0x006d7463
     580:	63637573 	cmnvs	r3, #482344960	@ 0x1cc00000
     584:	65646565 	strbvs	r6, [r4, #-1381]!	@ 0xfffffa9b
     588:	6d740064 	ldclvs	0, cr0, [r4, #-400]!	@ 0xfffffe70
     58c:	6f635f70 	svcvs	0x00635f70
     590:	00746e75 	rsbseq	r6, r4, r5, ror lr
     594:	73726570 	cmnvc	r2, #112, 10	@ 0x1c000000
     598:	6c616e6f 	stclvs	14, cr6, [r1], #-444	@ 0xfffffe44
     59c:	5f797469 	svcpl	0x00797469
     5a0:	74756f72 	ldrbtvc	r6, [r5], #-3954	@ 0xfffff08e
     5a4:	00656e69 	rsbeq	r6, r5, r9, ror #28
     5a8:	786d6d77 	stmdavc	sp!, {r0, r1, r2, r4, r5, r6, r8, sl, fp, sp, lr}^
     5ac:	65725f63 	ldrbvs	r5, [r2, #-3939]!	@ 0xfffff09d
     5b0:	69007367 	stmdbvs	r0, {r0, r1, r2, r5, r6, r8, r9, ip, sp, lr}
     5b4:	61725f6e 	cmnvs	r2, lr, ror #30
     5b8:	0065676e 	rsbeq	r6, r5, lr, ror #14
     5bc:	776e555f 			@ <UNDEFINED> instruction: 0x776e555f
     5c0:	5f646e69 	svcpl	0x00646e69
     5c4:	5f544845 	svcpl	0x00544845
     5c8:	64616548 	strbtvs	r6, [r1], #-1352	@ 0xfffffab8
     5cc:	5f007265 	svcpl	0x00007265
     5d0:	756e675f 	strbvc	r6, [lr, #-1887]!	@ 0xfffff8a1
     5d4:	776e555f 			@ <UNDEFINED> instruction: 0x776e555f
     5d8:	5f646e69 	svcpl	0x00646e69
     5dc:	65766153 	ldrbvs	r6, [r6, #-339]!	@ 0xfffffead
     5e0:	5046565f 	subpl	r5, r6, pc, asr r6
     5e4:	65726e00 	ldrbvs	r6, [r2, #-3584]!	@ 0xfffff200
     5e8:	555f0063 	ldrbpl	r0, [pc, #-99]	@ 58d <get_eit_entry+0x4d>
     5ec:	4e555f53 	mrcmi	15, 2, r5, cr5, cr3, {2}
     5f0:	444e4957 	strbmi	r4, [lr], #-2391	@ 0xfffff6a9
     5f4:	4152465f 	cmpmi	r2, pc, asr r6
     5f8:	535f454d 	cmppl	pc, #322961408	@ 0x13400000
     5fc:	54524154 	ldrbpl	r4, [r2], #-340	@ 0xfffffeac
     600:	00474e49 	subeq	r4, r7, r9, asr #28
     604:	6e675f5f 	mcrvs	15, 3, r5, cr7, cr15, {2}
     608:	6e555f75 	mrcvs	15, 2, r5, cr5, cr5, {3}
     60c:	646e6977 	strbtvs	r6, [lr], #-2423	@ 0xfffff689
     610:	7661535f 			@ <UNDEFINED> instruction: 0x7661535f
     614:	4d575f65 	ldclmi	15, cr5, [r7, #-404]	@ 0xfffffe6c
     618:	0043584d 	subeq	r5, r3, sp, asr #16
     61c:	5f6d7463 	svcpl	0x006d7463
     620:	63637573 	cmnvs	r3, #482344960	@ 0x1cc00000
     624:	65646565 	strbvs	r6, [r4, #-1381]!	@ 0xfffffa9b
     628:	69775f64 	ldmdbvs	r7!, {r2, r5, r6, r8, r9, sl, fp, ip, lr}^
     62c:	705f6874 	subsvc	r6, pc, r4, ror r8	@ <UNPREDICTABLE>
     630:	745f7274 	ldrbvc	r7, [pc], #-628	@ 638 <_Unwind_decode_typeinfo_ptr.constprop.0+0x8>
     634:	61625f6f 	cmnvs	r2, pc, ror #30
     638:	62006573 	andvs	r6, r0, #482344960	@ 0x1cc00000
     63c:	69727261 	ldmdbvs	r2!, {r0, r5, r6, r9, ip, sp, lr}^
     640:	635f7265 	cmpvs	pc, #1342177286	@ 0x50000006
     644:	65686361 	strbvs	r6, [r8, #-865]!	@ 0xfffffc9f
     648:	52555f00 	subspl	r5, r5, #0, 30
     64c:	41465f43 	cmpmi	r6, r3, asr #30
     650:	52554c49 	subspl	r4, r5, #18688	@ 0x4900
     654:	5f5f0045 	svcpl	0x005f0045
     658:	5f756e67 	svcpl	0x00756e67
     65c:	69776e55 	ldmdbvs	r7!, {r0, r2, r4, r6, r9, sl, fp, sp, lr}^
     660:	525f646e 	subspl	r6, pc, #1845493760	@ 0x6e000000
     664:	6d757365 	ldclvs	3, cr7, [r5, #-404]!	@ 0xfffffe6c
     668:	68700065 	ldmdavs	r0!, {r0, r2, r5, r6}^
     66c:	31657361 	cmncc	r5, r1, ror #6
     670:	7372765f 	cmnvc	r2, #99614720	@ 0x5f00000
     674:	615f5f00 	cmpvs	pc, r0, lsl #30
     678:	69626165 	stmdbvs	r2!, {r0, r2, r5, r6, r8, sp, lr}^
     67c:	776e755f 			@ <UNDEFINED> instruction: 0x776e755f
     680:	5f646e69 	svcpl	0x00646e69
     684:	5f707063 	svcpl	0x00707063
     688:	00307270 	eorseq	r7, r0, r0, ror r2
     68c:	786d6d77 	stmdavc	sp!, {r0, r1, r2, r4, r5, r6, r8, sl, fp, sp, lr}^
     690:	5f5f0063 	svcpl	0x005f0063
     694:	62616561 	rsbvs	r6, r1, #406847488	@ 0x18400000
     698:	6e755f69 	cdpvs	15, 7, cr5, cr5, cr9, {3}
     69c:	646e6977 	strbtvs	r6, [lr], #-2423	@ 0xfffff689
     6a0:	7070635f 	rsbsvc	r6, r0, pc, asr r3
     6a4:	3272705f 	rsbscc	r7, r2, #95	@ 0x5f
     6a8:	6d6d7700 	stclvs	7, cr7, [sp, #-0]
     6ac:	72006478 	andvc	r6, r0, #120, 8	@ 0x78000000
     6b0:	65727065 	ldrbvs	r7, [r2, #-101]!	@ 0xffffff9b
     6b4:	746e6573 	strbtvc	r6, [lr], #-1395	@ 0xfffffa8d
     6b8:	6f697461 	svcvs	0x00697461
     6bc:	555f006e 	ldrbpl	r0, [pc, #-110]	@ 656 <unwind_phase2+0x12>
     6c0:	4f465f53 	svcmi	0x00465f53
     6c4:	5f454352 	svcpl	0x00454352
     6c8:	49574e55 	ldmdbmi	r7, {r0, r2, r4, r6, r9, sl, fp, lr}^
     6cc:	5f00444e 	svcpl	0x0000444e
     6d0:	69776e55 	ldmdbvs	r7!, {r0, r2, r4, r6, r9, sl, fp, sp, lr}^
     6d4:	445f646e 	ldrbmi	r6, [pc], #-1134	@ 6dc <unwind_phase2_forced+0x5c>
     6d8:	74656c65 	strbtvc	r6, [r5], #-3173	@ 0xfffff39b
     6dc:	63784565 	cmnvs	r8, #423624704	@ 0x19400000
     6e0:	69747065 	ldmdbvs	r4!, {r0, r2, r5, r6, ip, sp, lr}^
     6e4:	76006e6f 	strvc	r6, [r0], -pc, ror #28
     6e8:	65756c61 	ldrbvs	r6, [r5, #-3169]!	@ 0xfffff39f
     6ec:	48450070 	stmdami	r5, {r4, r5, r6}^
     6f0:	00363154 	eorseq	r3, r6, r4, asr r1
     6f4:	4352555f 	cmpmi	r2, #398458880	@ 0x17c00000
     6f8:	524f465f 	subpl	r4, pc, #99614720	@ 0x5f00000
     6fc:	4e474945 	vmlsmi.f16	s9, s14, s10	@ <UNPREDICTABLE>
     700:	4358455f 	cmpmi	r8, #398458880	@ 0x17c00000
     704:	49545045 	ldmdbmi	r4, {r0, r2, r6, ip, lr}^
     708:	435f4e4f 	cmpmi	pc, #1264	@ 0x4f0
     70c:	48475541 	stmdami	r7, {r0, r6, r8, sl, ip, lr}^
     710:	6e750054 	mrcvs	0, 3, r0, cr5, cr4, {2}
     714:	646e6977 	strbtvs	r6, [lr], #-2423	@ 0xfffff689
     718:	6168705f 	qdsubvs	r7, pc, r8	@ <UNPREDICTABLE>
     71c:	5f326573 	svcpl	0x00326573
     720:	63726f66 	cmnvs	r2, #408	@ 0x198
     724:	5f006465 	svcpl	0x00006465
     728:	53525655 	cmppl	r2, #89128960	@ 0x5500000
     72c:	4f445f44 	svcmi	0x00445f44
     730:	454c4255 	strbmi	r4, [ip, #-597]	@ 0xfffffdab
     734:	6f747300 	svcvs	0x00747300
     738:	72615f70 	rsbvc	r5, r1, #112, 30	@ 0x1c0
     73c:	555f0067 	ldrbpl	r0, [pc, #-103]	@ 6dd <unwind_phase2_forced+0x5d>
     740:	6e69776e 	cdpvs	7, 6, cr7, cr9, cr14, {3}
     744:	6f435f64 	svcvs	0x00435f64
     748:	6f72746e 	svcvs	0x0072746e
     74c:	6c425f6c 	mcrrvs	15, 6, r5, r2, cr12
     750:	006b636f 	rsbeq	r6, fp, pc, ror #6
     754:	76706676 			@ <UNDEFINED> instruction: 0x76706676
     758:	74735f33 	ldrbtvc	r5, [r3], #-3891	@ 0xfffff0cd
     75c:	00747261 	rsbseq	r7, r4, r1, ror #4
     760:	4352555f 	cmpmi	r2, #398458880	@ 0x17c00000
     764:	004b4f5f 	subeq	r4, fp, pc, asr pc
     768:	6b73616d 	blvs	1cd8d24 <__ROM_SIZE+0x1c98d24>
     76c:	5f727000 	svcpl	0x00727000
     770:	68636163 	stmdavs	r3!, {r0, r1, r5, r6, r8, sp, lr}^
     774:	555f0065 	ldrbpl	r0, [pc, #-101]	@ 717 <unwind_phase2_forced+0x97>
     778:	43535256 	cmpmi	r3, #1610612741	@ 0x60000005
     77c:	5046565f 	subpl	r5, r6, pc, asr r6
     780:	56555f00 	ldrbpl	r5, [r5], -r0, lsl #30
     784:	5f445352 	svcpl	0x00445352
     788:	58415046 	stmdapl	r1, {r1, r2, r6, ip, lr}^
     78c:	77755f00 	ldrbvc	r5, [r5, -r0, lsl #30]!
     790:	66003631 			@ <UNDEFINED> instruction: 0x66003631
     794:	6174736e 	cmnvs	r4, lr, ror #6
     798:	5f007472 	svcpl	0x00007472
     79c:	6975625f 	ldmdbvs	r5!, {r0, r1, r2, r3, r4, r6, r9, sp, lr}^
     7a0:	6e69746c 	cdpvs	4, 6, cr7, cr9, cr12, {3}
     7a4:	6d656d5f 	stclvs	13, cr6, [r5, #-380]!	@ 0xfffffe84
     7a8:	00797063 	rsbseq	r7, r9, r3, rrx
     7ac:	786d6d77 	stmdavc	sp!, {r0, r1, r2, r4, r5, r6, r8, sl, fp, sp, lr}^
     7b0:	65725f64 	ldrbvs	r5, [r2, #-3940]!	@ 0xfffff09c
     7b4:	73007367 	movwvc	r7, #871	@ 0x367
     7b8:	5f706f74 	svcpl	0x00706f74
     7bc:	72006e66 	andvc	r6, r0, #1632	@ 0x660
     7c0:	6f6e6765 	svcvs	0x006e6765
     7c4:	52555f00 	subspl	r5, r5, #0, 30
     7c8:	41485f43 	cmpmi	r8, r3, asr #30
     7cc:	454c444e 	strbmi	r4, [ip, #-1102]	@ 0xfffffbb2
     7d0:	4f465f52 	svcmi	0x00465f52
     7d4:	00444e55 	subeq	r4, r4, r5, asr lr
     7d8:	776e555f 			@ <UNDEFINED> instruction: 0x776e555f
     7dc:	5f646e69 	svcpl	0x00646e69
     7e0:	5f535256 	svcpl	0x00535256
     7e4:	61746144 	cmnvs	r4, r4, asr #2
     7e8:	72706552 	rsbsvc	r6, r0, #343932928	@ 0x14800000
     7ec:	6e657365 	cdpvs	3, 6, cr7, cr5, cr5, {3}
     7f0:	69746174 	ldmdbvs	r4!, {r2, r4, r5, r6, r8, sp, lr}^
     7f4:	64006e6f 	strvs	r6, [r0], #-3695	@ 0xfffff191
     7f8:	00617461 	rsbeq	r7, r1, r1, ror #8
     7fc:	776e555f 			@ <UNDEFINED> instruction: 0x776e555f
     800:	5f646e69 	svcpl	0x00646e69
     804:	5f535256 	svcpl	0x00535256
     808:	43676552 	cmnmi	r7, #343932928	@ 0x14800000
     80c:	7373616c 	cmnvc	r3, #108, 2
     810:	61687000 	cmnvs	r8, r0
     814:	5f326573 	svcpl	0x00326573
     818:	6c6c6163 	stfvse	f6, [ip], #-396	@ 0xfffffe74
     81c:	656e755f 	strbvs	r7, [lr, #-1375]!	@ 0xfffffaa1
     820:	63657078 	cmnvs	r5, #120	@ 0x78
     824:	5f646574 	svcpl	0x00646574
     828:	65746661 	ldrbvs	r6, [r4, #-1633]!	@ 0xfffff99f
     82c:	6e755f72 	mrcvs	15, 3, r5, cr5, cr2, {3}
     830:	646e6977 	strbtvs	r6, [lr], #-2423	@ 0xfffff689
     834:	56555f00 	ldrbpl	r5, [r5], -r0, lsl #30
     838:	5f525352 	svcpl	0x00525352
     83c:	5f544f4e 	svcpl	0x00544f4e
     840:	4c504d49 	mrrcmi	13, 4, r4, r0, cr9
     844:	4e454d45 	cdpmi	13, 4, cr4, cr5, cr5, {2}
     848:	00444554 	subeq	r4, r4, r4, asr r5
     84c:	65637865 	strbvs	r7, [r3, #-2149]!	@ 0xfffff79b
     850:	6f697470 	svcvs	0x00697470
     854:	6c635f6e 	stclvs	15, cr5, [r3], #-440	@ 0xfffffe48
     858:	00737361 	rsbseq	r7, r3, r1, ror #6
     85c:	776e555f 			@ <UNDEFINED> instruction: 0x776e555f
     860:	5f646e69 	svcpl	0x00646e69
     864:	5f535256 	svcpl	0x00535256
     868:	75736552 	ldrbvc	r6, [r3, #-1362]!	@ 0xfffffaae
     86c:	5f00746c 	svcpl	0x0000746c
     870:	6178635f 	cmnvs	r8, pc, asr r3
     874:	7079745f 	rsbsvc	r7, r9, pc, asr r4
     878:	616d5f65 	cmnvs	sp, r5, ror #30
     87c:	5f686374 	svcpl	0x00686374
     880:	75736572 	ldrbvc	r6, [r3, #-1394]!	@ 0xfffffa8e
     884:	6200746c 	andvs	r7, r0, #108, 8	@ 0x6c000000
     888:	006c6f6f 	rsbeq	r6, ip, pc, ror #30
     88c:	776e555f 			@ <UNDEFINED> instruction: 0x776e555f
     890:	5f646e69 	svcpl	0x00646e69
     894:	706d6f43 	rsbvc	r6, sp, r3, asr #30
     898:	6574656c 	ldrbvs	r6, [r4, #-1388]!	@ 0xfffffa94
     89c:	65737000 	ldrbvs	r7, [r3, #-0]!
     8a0:	5f6f6475 	svcpl	0x006f6475
     8a4:	73676572 	cmnvc	r7, #478150656	@ 0x1c800000
     8a8:	675f5f00 	ldrbvs	r5, [pc, -r0, lsl #30]
     8ac:	555f756e 	ldrbpl	r7, [pc, #-1390]	@ 346 <__Vectors+0x346>
     8b0:	6e69776e 	cdpvs	7, 6, cr7, cr9, cr14, {3}
     8b4:	65525f64 	ldrbvs	r5, [r2, #-3940]	@ 0xfffff09c
     8b8:	726f7473 	rsbvc	r7, pc, #1929379840	@ 0x73000000
     8bc:	4d575f65 	ldclmi	15, cr5, [r7, #-404]	@ 0xfffffe6c
     8c0:	0043584d 	subeq	r5, r3, sp, asr #16
     8c4:	776e555f 			@ <UNDEFINED> instruction: 0x776e555f
     8c8:	5f646e69 	svcpl	0x00646e69
     8cc:	69746341 	ldmdbvs	r4!, {r0, r6, r8, r9, sp, lr}^
     8d0:	75006e6f 	strvc	r6, [r0, #-3695]	@ 0xfffff191
     8d4:	6e69776e 	cdpvs	7, 6, cr7, cr9, cr14, {3}
     8d8:	68705f64 	ldmdavs	r0!, {r2, r5, r6, r8, r9, sl, fp, ip, lr}^
     8dc:	32657361 	rsbcc	r7, r5, #-2080374783	@ 0x84000001
     8e0:	53555f00 	cmppl	r5, #0, 30
     8e4:	5443415f 	strbpl	r4, [r3], #-351	@ 0xfffffea1
     8e8:	5f4e4f49 	svcpl	0x004e4f49
     8ec:	4b53414d 	blmi	14d0e28 <__ROM_SIZE+0x1490e28>
     8f0:	74657200 	strbtvc	r7, [r5], #-512	@ 0xfffffe00
     8f4:	5f6e7275 	svcpl	0x006e7275
     8f8:	72646461 	rsbvc	r6, r4, #1627389952	@ 0x61000000
     8fc:	00737365 	rsbseq	r7, r3, r5, ror #6
     900:	646e6168 	strbtvs	r6, [lr], #-360	@ 0xfffffe98
     904:	0072656c 	rsbseq	r6, r2, ip, ror #10
     908:	776e555f 			@ <UNDEFINED> instruction: 0x776e555f
     90c:	5f646e69 	svcpl	0x00646e69
     910:	5f535256 	svcpl	0x00535256
     914:	00746553 	rsbseq	r6, r4, r3, asr r5
     918:	33544845 	cmpcc	r4, #4521984	@ 0x450000
     91c:	6f630032 	svcvs	0x00630032
     920:	6e65746e 	cdpvs	4, 6, cr7, cr5, cr14, {3}
     924:	63610074 	cmnvs	r1, #116	@ 0x74
     928:	6e6f6974 			@ <UNDEFINED> instruction: 0x6e6f6974
     92c:	455f5f00 	ldrbmi	r5, [pc, #-3840]	@ fffffa34 <__StackTop+0xdffefa34>
     930:	655f5449 	ldrbvs	r5, [pc, #-1097]	@ 4ef <search_EIT_table+0x3b>
     934:	7972746e 	ldmdbvc	r2!, {r1, r2, r3, r5, r6, sl, ip, sp, lr}^
     938:	656c6300 	strbvs	r6, [ip, #-768]!	@ 0xfffffd00
     93c:	70756e61 	rsbsvc	r6, r5, r1, ror #28
     940:	6361635f 	cmnvs	r1, #2080374785	@ 0x7c000001
     944:	5f006568 	svcpl	0x00006568
     948:	53525655 	cmppl	r2, #89128960	@ 0x5500000
     94c:	4d575f43 	ldclmi	15, cr5, [r7, #-268]	@ 0xfffffef4
     950:	0044584d 	subeq	r5, r4, sp, asr #16
     954:	65747962 	ldrbvs	r7, [r4, #-2402]!	@ 0xfffff69e
     958:	656c5f73 	strbvs	r5, [ip, #-3955]!	@ 0xfffff08d
     95c:	5f007466 	svcpl	0x00007466
     960:	5f435255 	svcpl	0x00435255
     964:	5f444e45 	svcpl	0x00444e45
     968:	535f464f 	cmppl	pc, #82837504	@ 0x4f00000
     96c:	4b434154 	blmi	10d0ec4 <__ROM_SIZE+0x1090ec4>
     970:	73656400 	cmnvc	r5, #0, 8
     974:	6f660074 	svcvs	0x00660074
     978:	64656372 	strbtvs	r6, [r5], #-882	@ 0xfffffc8e
     97c:	776e755f 			@ <UNDEFINED> instruction: 0x776e755f
     980:	00646e69 	rsbeq	r6, r4, r9, ror #28
     984:	5f53555f 	svcpl	0x0053555f
     988:	5f444e45 	svcpl	0x00444e45
     98c:	535f464f 	cmppl	pc, #82837504	@ 0x4f00000
     990:	4b434154 	blmi	10d0ee8 <__ROM_SIZE+0x1090ee8>
     994:	726f7700 	rsbvc	r7, pc, #0, 14
     998:	6c5f7364 	mrrcvs	3, 6, r7, pc, cr4	@ <UNPREDICTABLE>
     99c:	00746665 	rsbseq	r6, r4, r5, ror #12
     9a0:	776e555f 			@ <UNDEFINED> instruction: 0x776e555f
     9a4:	5f646e69 	svcpl	0x00646e69
     9a8:	47746547 	ldrbmi	r6, [r4, -r7, asr #10]!
     9ac:	555f0052 	ldrbpl	r0, [pc, #-82]	@ 962 <__gnu_unwind_pr_common+0x2>
     9b0:	43535256 	cmpmi	r3, #1610612741	@ 0x60000005
     9b4:	4150465f 	cmpmi	r0, pc, asr r6
     9b8:	73657200 	cmnvc	r5, #0, 4
     9bc:	65726f74 	ldrbvs	r6, [r2, #-3956]!	@ 0xfffff08c
     9c0:	6e6f6e5f 	mcrvs	14, 3, r6, cr15, cr15, {2}
     9c4:	726f635f 	rsbvc	r6, pc, #2080374785	@ 0x7c000001
     9c8:	65725f65 	ldrbvs	r5, [r2, #-3941]!	@ 0xfffff09b
     9cc:	5f007367 	svcpl	0x00007367
     9d0:	53525655 	cmppl	r2, #89128960	@ 0x5500000
     9d4:	4f435f43 	svcmi	0x00435f43
     9d8:	5f004552 	svcpl	0x00004552
     9dc:	756e675f 	strbvc	r6, [lr, #-1887]!	@ 0xfffff8a1
     9e0:	776e555f 			@ <UNDEFINED> instruction: 0x776e555f
     9e4:	5f646e69 	svcpl	0x00646e69
     9e8:	75736552 	ldrbvc	r6, [r3, #-1362]!	@ 0xfffffaae
     9ec:	6f5f656d 	svcvs	0x005f656d
     9f0:	65525f72 	ldrbvs	r5, [r2, #-3954]	@ 0xfffff08e
     9f4:	6f726874 	svcvs	0x00726874
     9f8:	6f630077 	svcvs	0x00630077
     9fc:	6361706d 	cmnvs	r1, #109	@ 0x6d
     a00:	6e750074 	mrcvs	0, 3, r0, cr5, cr4, {3}
     a04:	646e6977 	strbtvs	r6, [lr], #-2423	@ 0xfffff689
     a08:	635f7265 	cmpvs	pc, #1342177286	@ 0x50000006
     a0c:	65686361 	strbvs	r6, [r8, #-865]!	@ 0xfffffc9f
     a10:	675f5f00 	ldrbvs	r5, [pc, -r0, lsl #30]
     a14:	555f756e 	ldrbpl	r7, [pc, #-1390]	@ 4ae <selfrel_offset31+0xe>
     a18:	6e69776e 	cdpvs	7, 6, cr7, cr9, cr14, {3}
     a1c:	69465f64 	stmdbvs	r6, {r2, r5, r6, r8, r9, sl, fp, ip, lr}^
     a20:	655f646e 	ldrbvs	r6, [pc, #-1134]	@ 5ba <get_eit_entry+0x7a>
     a24:	78646978 	stmdavc	r4!, {r3, r4, r5, r6, r8, fp, sp, lr}^
     a28:	76617300 	strbtvc	r7, [r1], -r0, lsl #6
     a2c:	765f6465 	ldrbvc	r6, [pc], -r5, ror #8
     a30:	6d007372 	stcvs	3, cr7, [r0, #-456]	@ 0xfffffe38
     a34:	68637461 	stmdavs	r3!, {r0, r5, r6, sl, ip, sp, lr}^
     a38:	5f006465 	svcpl	0x00006465
     a3c:	756e675f 	strbvc	r6, [lr, #-1887]!	@ 0xfffff8a1
     a40:	776e555f 			@ <UNDEFINED> instruction: 0x776e555f
     a44:	5f646e69 	svcpl	0x00646e69
     a48:	73696152 	cmnvc	r9, #-2147483628	@ 0x80000014
     a4c:	63784565 	cmnvs	r8, #423624704	@ 0x19400000
     a50:	69747065 	ldmdbvs	r4!, {r0, r2, r5, r6, ip, sp, lr}^
     a54:	5f006e6f 	svcpl	0x00006e6f
     a58:	756e675f 	strbvc	r6, [lr, #-1887]!	@ 0xfffff8a1
     a5c:	776e555f 			@ <UNDEFINED> instruction: 0x776e555f
     a60:	5f646e69 	svcpl	0x00646e69
     a64:	74736552 	ldrbtvc	r6, [r3], #-1362	@ 0xfffffaae
     a68:	5f65726f 	svcpl	0x0065726f
     a6c:	584d4d57 	stmdapl	sp, {r0, r1, r2, r4, r6, r8, sl, fp, lr}^
     a70:	755f0044 	ldrbvc	r0, [pc, #-68]	@ a34 <__gnu_unwind_pr_common+0xd4>
     a74:	6e003877 	mcrvs	8, 0, r3, cr0, cr7, {3}
     a78:	5f747865 	svcpl	0x00747865
     a7c:	69006e66 	stmdbvs	r0, {r1, r2, r5, r6, r9, sl, fp, sp, lr}
     a80:	65725f73 	ldrbvs	r5, [r2, #-3955]!	@ 0xfffff08d
     a84:	65726566 	ldrbvs	r6, [r2, #-1382]!	@ 0xfffffa9a
     a88:	0065636e 	rsbeq	r6, r5, lr, ror #6
     a8c:	5256555f 	subspl	r5, r6, #398458880	@ 0x17c00000
     a90:	505f4353 	subspl	r4, pc, r3, asr r3	@ <UNPREDICTABLE>
     a94:	5f004341 	svcpl	0x00004341
     a98:	53525655 	cmppl	r2, #89128960	@ 0x5500000
     a9c:	4d575f43 	ldclmi	15, cr5, [r7, #-268]	@ 0xfffffef4
     aa0:	0043584d 	subeq	r5, r3, sp, asr #16
     aa4:	65726f63 	ldrbvs	r6, [r2, #-3939]!	@ 0xfffff09d
     aa8:	6e555f00 	cdpvs	15, 5, cr5, cr5, cr0, {0}
     aac:	646e6977 	strbtvs	r6, [lr], #-2423	@ 0xfffff689
     ab0:	6165525f 	cmnvs	r5, pc, asr r2
     ab4:	5f6e6f73 	svcpl	0x006e6f73
     ab8:	65646f43 	strbvs	r6, [r4, #-3907]!	@ 0xfffff0bd
     abc:	65737000 	ldrbvs	r7, [r3, #-0]!
     ac0:	006f6475 	rsbeq	r6, pc, r5, ror r4	@ <UNPREDICTABLE>
     ac4:	776e555f 			@ <UNDEFINED> instruction: 0x776e555f
     ac8:	5f646e69 	svcpl	0x00646e69
     acc:	63617254 	cmnvs	r1, #84, 4	@ 0x40000005
     ad0:	6e465f65 	cdpvs	15, 4, cr5, cr6, cr5, {3}
     ad4:	61657300 	cmnvs	r5, r0, lsl #6
     ad8:	5f686372 	svcpl	0x00686372
     adc:	5f544945 	svcpl	0x00544945
     ae0:	6c626174 	stfvse	f6, [r2], #-464	@ 0xfffffe30
     ae4:	74720065 	ldrbtvc	r0, [r2], #-101	@ 0xffffff9b
     ae8:	635f6974 	cmpvs	pc, #116, 18	@ 0x1d0000
     aec:	746e756f 	strbtvc	r7, [lr], #-1391	@ 0xfffffa91
     af0:	675f5f00 	ldrbvs	r5, [pc, -r0, lsl #30]
     af4:	555f756e 	ldrbpl	r7, [pc, #-1390]	@ 58e <get_eit_entry+0x4e>
     af8:	6e69776e 	cdpvs	7, 6, cr7, cr9, cr14, {3}
     afc:	61535f64 	cmpvs	r3, r4, ror #30
     b00:	565f6576 			@ <UNDEFINED> instruction: 0x565f6576
     b04:	445f5046 	ldrbmi	r5, [pc], #-70	@ b0c <__gnu_unwind_pr_common+0x1ac>
     b08:	675f5f00 	ldrbvs	r5, [pc, -r0, lsl #30]
     b0c:	555f756e 	ldrbpl	r7, [pc, #-1390]	@ 5a6 <get_eit_entry+0x66>
     b10:	6e69776e 	cdpvs	7, 6, cr7, cr9, cr14, {3}
     b14:	61535f64 	cmpvs	r3, r4, ror #30
     b18:	565f6576 			@ <UNDEFINED> instruction: 0x565f6576
     b1c:	445f5046 	ldrbmi	r5, [pc], #-70	@ b24 <__gnu_unwind_pr_common+0x1c4>
     b20:	5f36315f 	svcpl	0x0036315f
     b24:	335f6f74 	cmpcc	pc, #116, 30	@ 0x1d0
     b28:	555f0031 	ldrbpl	r0, [pc, #-49]	@ aff <__gnu_unwind_pr_common+0x19f>
     b2c:	49565f53 	ldmdbmi	r6, {r0, r1, r4, r6, r8, r9, sl, fp, ip, lr}^
     b30:	41555452 	cmpmi	r5, r2, asr r4
     b34:	4e555f4c 	cdpmi	15, 5, cr5, cr5, cr12, {2}
     b38:	444e4957 	strbmi	r4, [lr], #-2391	@ 0xfffff6a9
     b3c:	4152465f 	cmpmi	r2, pc, asr r6
     b40:	5f00454d 	svcpl	0x0000454d
     b44:	69776e55 	ldmdbvs	r7!, {r0, r2, r4, r6, r9, sl, fp, sp, lr}^
     b48:	575f646e 	ldrbpl	r6, [pc, -lr, ror #8]
     b4c:	0064726f 	rsbeq	r7, r4, pc, ror #4
     b50:	6e675f5f 	mcrvs	15, 3, r5, cr7, cr15, {2}
     b54:	6e555f75 	mrcvs	15, 2, r5, cr5, cr5, {3}
     b58:	646e6977 	strbtvs	r6, [lr], #-2423	@ 0xfffff689
     b5c:	7365525f 	cmnvc	r5, #-268435451	@ 0xf0000005
     b60:	65726f74 	ldrbvs	r6, [r2, #-3956]!	@ 0xfffff08c
     b64:	5046565f 	subpl	r5, r6, pc, asr r6
     b68:	2f2e2e00 	svccs	0x002e2e00
     b6c:	2e2f2e2e 	cdpcs	14, 2, cr2, cr15, cr14, {1}
     b70:	2e2e2f2e 	cdpcs	15, 2, cr2, cr14, cr14, {1}
     b74:	2f2e2e2f 	svccs	0x002e2e2f
     b78:	6c2f2e2e 	stcvs	14, cr2, [pc], #-184	@ ac8 <__gnu_unwind_pr_common+0x168>
     b7c:	63676269 	cmnvs	r7, #-1879048186	@ 0x90000006
     b80:	6f632f63 	svcvs	0x00632f63
     b84:	6769666e 	strbvs	r6, [r9, -lr, ror #12]!
     b88:	6d72612f 	ldfvse	f6, [r2, #-188]!	@ 0xffffff44
     b8c:	776e752f 	strbvc	r7, [lr, -pc, lsr #10]!
     b90:	2d646e69 	stclcs	14, cr6, [r4, #-420]!	@ 0xfffffe5c
     b94:	2e6d7261 	cdpcs	2, 6, cr7, cr13, cr1, {3}
     b98:	656c0063 	strbvs	r0, [ip, #-99]!	@ 0xffffff9d
     b9c:	6874676e 	ldmdavs	r4!, {r1, r2, r3, r5, r6, r8, r9, sl, sp, lr}^
     ba0:	67697200 	strbvs	r7, [r9, -r0, lsl #4]!
     ba4:	64007468 	strvs	r7, [r0], #-1128	@ 0xfffffb98
     ba8:	72637369 	rsbvc	r7, r3, #-1543503871	@ 0xa4000001
     bac:	6e696d69 	cdpvs	13, 6, cr6, cr9, cr9, {3}
     bb0:	726f7461 	rsbvc	r7, pc, #1627389952	@ 0x61000000
     bb4:	655f5f00 	ldrbvs	r5, [pc, #-3840]	@ fffffcbc <__StackTop+0xdffefcbc>
     bb8:	78646978 	stmdavc	r4!, {r3, r4, r5, r6, r8, fp, sp, lr}^
     bbc:	6174735f 	cmnvs	r4, pc, asr r3
     bc0:	73007472 	movwvc	r7, #1138	@ 0x472
     bc4:	5f706f74 	svcpl	0x00706f74
     bc8:	65646f63 	strbvs	r6, [r4, #-3939]!	@ 0xfffff09d
     bcc:	64646100 	strbtvs	r6, [r4], #-256	@ 0xffffff00
     bd0:	6f697469 	svcvs	0x00697469
     bd4:	006c616e 	rsbeq	r6, ip, lr, ror #2
     bd8:	776e555f 			@ <UNDEFINED> instruction: 0x776e555f
     bdc:	5f646e69 	svcpl	0x00646e69
     be0:	6f636564 	svcvs	0x00636564
     be4:	745f6564 	ldrbvc	r6, [pc], #-1380	@ bec <__gnu_unwind_pr_common+0x28c>
     be8:	69657079 	stmdbvs	r5!, {r0, r3, r4, r5, r6, ip, sp, lr}^
     bec:	5f6f666e 	svcpl	0x006f666e
     bf0:	00727470 	rsbseq	r7, r2, r0, ror r4
     bf4:	78635f5f 	stmdavc	r3!, {r0, r1, r2, r3, r4, r6, r8, r9, sl, fp, ip, lr}^
     bf8:	61635f61 	cmnvs	r3, r1, ror #30
     bfc:	755f6c6c 	ldrbvc	r6, [pc, #-3180]	@ ffffff98 <__StackTop+0xdffeff98>
     c00:	7078656e 	rsbsvc	r6, r8, lr, ror #10
     c04:	65746365 	ldrbvs	r6, [r4, #-869]!	@ 0xfffffc9b
     c08:	5f5f0064 	svcpl	0x005f0064
     c0c:	62616561 	rsbvs	r6, r1, #406847488	@ 0x18400000
     c10:	6e755f69 	cdpvs	15, 7, cr5, cr5, cr9, {3}
     c14:	646e6977 	strbtvs	r6, [lr], #-2423	@ 0xfffff689
     c18:	7070635f 	rsbsvc	r6, r0, pc, asr r3
     c1c:	3172705f 	cmncc	r2, pc, asr r0
     c20:	56555f00 	ldrbpl	r5, [r5], -r0, lsl #30
     c24:	5f445352 	svcpl	0x00445352
     c28:	58504656 	ldmdapl	r0, {r1, r2, r4, r6, r9, sl, lr}^
     c2c:	56555f00 	ldrbpl	r5, [r5], -r0, lsl #30
     c30:	5f525352 	svcpl	0x00525352
     c34:	2f004b4f 	svccs	0x00004b4f
     c38:	6c697562 	cfstr64vs	mvdx7, [r9], #-392	@ 0xfffffe78
     c3c:	63672f64 	cmnvs	r7, #100, 30	@ 0x190
     c40:	72612d63 	rsbvc	r2, r1, #6336	@ 0x18c0
     c44:	6f6e2d6d 	svcvs	0x006e2d6d
     c48:	652d656e 	strvs	r6, [sp, #-1390]!	@ 0xfffffa92
     c4c:	2d696261 	sfmcs	f6, 2, [r9, #-388]!	@ 0xfffffe7c
     c50:	5a547554 	bpl	151e1a8 <__ROM_SIZE+0x14de1a8>
     c54:	672f304e 	strvs	r3, [pc, -lr, asr #32]!
     c58:	612d6363 			@ <UNDEFINED> instruction: 0x612d6363
     c5c:	6e2d6d72 	mcrvs	13, 1, r6, cr13, cr2, {3}
     c60:	2d656e6f 	stclcs	14, cr6, [r5, #-444]!	@ 0xfffffe44
     c64:	69626165 	stmdbvs	r2!, {r0, r2, r5, r6, r8, sp, lr}^
     c68:	2e33312d 	rsfcssp	f3, f3, #5.0
     c6c:	65722e32 	ldrbvs	r2, [r2, #-3634]!	@ 0xfffff1ce
     c70:	622f316c 	eorvs	r3, pc, #108, 2
     c74:	646c6975 	strbtvs	r6, [ip], #-2421	@ 0xfffff68b
     c78:	6d72612f 	ldfvse	f6, [r2, #-188]!	@ 0xffffff44
     c7c:	6e6f6e2d 	cdpvs	14, 6, cr6, cr15, cr13, {1}
     c80:	61652d65 	cmnvs	r5, r5, ror #26
     c84:	742f6962 	strtvc	r6, [pc], #-2402	@ c8c <_Unwind_VRS_Pop+0x78>
     c88:	626d7568 	rsbvs	r7, sp, #104, 10	@ 0x1a000000
     c8c:	2d37762f 	ldccs	6, cr7, [r7, #-188]!	@ 0xffffff44
     c90:	6f6e2f6d 	svcvs	0x006e2f6d
     c94:	6c2f7066 	stcvs	0, cr7, [pc], #-408	@ b04 <__gnu_unwind_pr_common+0x1a4>
     c98:	63676269 	cmnvs	r7, #-1879048186	@ 0x90000006
     c9c:	66760063 	ldrbtvs	r0, [r6], -r3, rrx
     ca0:	65725f70 	ldrbvs	r5, [r2, #-3952]!	@ 0xfffff090
     ca4:	65007367 	strvs	r7, [r0, #-871]	@ 0xfffffc99
     ca8:	7972746e 	ldmdbvc	r2!, {r1, r2, r3, r5, r6, sl, ip, sp, lr}^
     cac:	646f635f 	strbtvs	r6, [pc], #-863	@ cb4 <_Unwind_VRS_Pop+0xa0>
     cb0:	66760065 	ldrbtvs	r0, [r6], -r5, rrx
     cb4:	65725f70 	ldrbvs	r5, [r2, #-3952]!	@ 0xfffff090
     cb8:	315f7367 	cmpcc	pc, r7, ror #6
     cbc:	6f745f36 	svcvs	0x00745f36
     cc0:	0031335f 	eorseq	r3, r1, pc, asr r3
     cc4:	73616870 	cmnvc	r1, #112, 16	@ 0x700000
     cc8:	765f3265 	ldrbvc	r3, [pc], -r5, ror #4
     ccc:	65007372 	strvs	r7, [r0, #-882]	@ 0xfffffc8e
     cd0:	00707469 	rsbseq	r7, r0, r9, ror #8
     cd4:	616d6564 	cmnvs	sp, r4, ror #10
     cd8:	735f646e 	cmpvc	pc, #1845493760	@ 0x6e000000
     cdc:	5f657661 	svcpl	0x00657661
     ce0:	67616c66 	strbvs	r6, [r1, -r6, ror #24]!
     ce4:	5f5f0073 	svcpl	0x005f0073
     ce8:	5f617863 	svcpl	0x00617863
     cec:	65707974 	ldrbvs	r7, [r0, #-2420]!	@ 0xfffff68c
     cf0:	74616d5f 	strbtvc	r6, [r1], #-3423	@ 0xfffff2a1
     cf4:	5f006863 	svcpl	0x00006863
     cf8:	69776e55 	ldmdbvs	r7!, {r0, r2, r4, r6, r9, sl, fp, sp, lr}^
     cfc:	535f646e 	cmppl	pc, #1845493760	@ 0x6e000000
     d00:	65746174 	ldrbvs	r6, [r4, #-372]!	@ 0xfffffe8c
     d04:	6e555f00 	cdpvs	15, 5, cr5, cr5, cr0, {0}
     d08:	646e6977 	strbtvs	r6, [lr], #-2423	@ 0xfffff689
     d0c:	7465535f 	strbtvc	r5, [r5], #-863	@ 0xfffffca1
     d10:	5f005247 	svcpl	0x00005247
     d14:	756e675f 	strbvc	r6, [lr, #-1887]!	@ 0xfffff8a1
     d18:	776e555f 			@ <UNDEFINED> instruction: 0x776e555f
     d1c:	5f646e69 	svcpl	0x00646e69
     d20:	65766153 	ldrbvs	r6, [r6, #-339]!	@ 0xfffffead
     d24:	4d4d575f 	stclmi	7, cr5, [sp, #-380]	@ 0xfffffe84
     d28:	72004458 	andvc	r4, r0, #88, 8	@ 0x58000000
     d2c:	00697474 	rsbeq	r7, r9, r4, ror r4
     d30:	6e675f5f 	mcrvs	15, 3, r5, cr7, cr15, {2}
     d34:	6e755f75 	mrcvs	15, 3, r5, cr5, cr5, {3}
     d38:	646e6977 	strbtvs	r6, [lr], #-2423	@ 0xfffff689
     d3c:	5f72705f 	svcpl	0x0072705f
     d40:	6d6d6f63 	stclvs	15, cr6, [sp, #-396]!	@ 0xfffffe74
     d44:	5f006e6f 	svcpl	0x00006e6f
     d48:	5f435255 	svcpl	0x00435255
     d4c:	544e4f43 	strbpl	r4, [lr], #-3907	@ 0xfffff0bd
     d50:	45554e49 	ldrbmi	r4, [r5, #-3657]	@ 0xfffff1b7
     d54:	574e555f 	smlsldpl	r5, lr, pc, r5	@ <UNPREDICTABLE>
     d58:	00444e49 	subeq	r4, r4, r9, asr #28
     d5c:	20554e47 	subscs	r4, r5, r7, asr #28
     d60:	20373143 	eorscs	r3, r7, r3, asr #2
     d64:	322e3331 	eorcc	r3, lr, #-1006632960	@ 0xc4000000
     d68:	3220312e 	eorcc	r3, r0, #-2147483637	@ 0x8000000b
     d6c:	31333230 	teqcc	r3, r0, lsr r2
     d70:	20393030 	eorscs	r3, r9, r0, lsr r0
     d74:	68746d2d 	ldmdavs	r4!, {r0, r2, r3, r5, r8, sl, fp, sp, lr}^
     d78:	20626d75 	rsbcs	r6, r2, r5, ror sp
     d7c:	6c666d2d 	stclvs	13, cr6, [r6], #-180	@ 0xffffff4c
     d80:	2d74616f 	ldfcse	f6, [r4, #-444]!	@ 0xfffffe44
     d84:	3d696261 	sfmcc	f6, 2, [r9, #-388]!	@ 0xfffffe7c
     d88:	74666f73 	strbtvc	r6, [r6], #-3955	@ 0xfffff08d
     d8c:	616d2d20 	cmnvs	sp, r0, lsr #26
     d90:	3d686372 	stclcc	3, cr6, [r8, #-456]!	@ 0xfffffe38
     d94:	766d7261 	strbtvc	r7, [sp], -r1, ror #4
     d98:	206d2d37 	rsbcs	r2, sp, r7, lsr sp
     d9c:	2d20672d 	stccs	7, cr6, [r0, #-180]!	@ 0xffffff4c
     da0:	672d2067 	strvs	r2, [sp, -r7, rrx]!
     da4:	324f2d20 	subcc	r2, pc, #32, 26	@ 0x800
     da8:	324f2d20 	subcc	r2, pc, #32, 26	@ 0x800
     dac:	324f2d20 	subcc	r2, pc, #32, 26	@ 0x800
     db0:	62662d20 	rsbvs	r2, r6, #32, 26	@ 0x800
     db4:	646c6975 	strbtvs	r6, [ip], #-2421	@ 0xfffff68b
     db8:	2d676e69 	stclcs	14, cr6, [r7, #-420]!	@ 0xfffffe5c
     dbc:	6762696c 	strbvs	r6, [r2, -ip, ror #18]!
     dc0:	2d206363 	stccs	3, cr6, [r0, #-396]!	@ 0xfffffe74
     dc4:	2d6f6e66 	stclcs	14, cr6, [pc, #-408]!	@ c34 <_Unwind_VRS_Pop+0x20>
     dc8:	63617473 	cmnvs	r1, #1929379840	@ 0x73000000
     dcc:	72702d6b 	rsbsvc	r2, r0, #6848	@ 0x1ac0
     dd0:	6365746f 	cmnvs	r5, #1862270976	@ 0x6f000000
     dd4:	20726f74 	rsbscs	r6, r2, r4, ror pc
     dd8:	6f6e662d 	svcvs	0x006e662d
     ddc:	6c6e692d 			@ <UNDEFINED> instruction: 0x6c6e692d
     de0:	20656e69 	rsbcs	r6, r5, r9, ror #28
     de4:	7865662d 	stmdavc	r5!, {r0, r2, r3, r5, r9, sl, sp, lr}^
     de8:	74706563 	ldrbtvc	r6, [r0], #-1379	@ 0xfffffa9d
     dec:	736e6f69 	cmnvc	lr, #420	@ 0x1a4
     df0:	76662d20 	strbtvc	r2, [r6], -r0, lsr #26
     df4:	62697369 	rsbvs	r7, r9, #-1543503871	@ 0xa4000001
     df8:	74696c69 	strbtvc	r6, [r9], #-3177	@ 0xfffff397
     dfc:	69683d79 	stmdbvs	r8!, {r0, r3, r4, r5, r6, r8, sl, fp, ip, sp}^
     e00:	6e656464 	cdpvs	4, 6, cr6, cr5, cr4, {3}
     e04:	6d746300 	ldclvs	3, cr6, [r4, #-0]
     e08:	6961665f 	stmdbvs	r1!, {r0, r1, r2, r3, r4, r6, r9, sl, sp, lr}^
     e0c:	0064656c 	rsbeq	r6, r4, ip, ror #10
     e10:	5f706d74 	svcpl	0x00706d74
     e14:	745f3631 	ldrbvc	r3, [pc], #-1585	@ e1c <_Unwind_VRS_Pop+0x208>
     e18:	31335f6f 	teqcc	r3, pc, ror #30
     e1c:	56555f00 	ldrbpl	r5, [r5], -r0, lsl #30
     e20:	5f445352 	svcpl	0x00445352
     e24:	544e4955 	strbpl	r4, [lr], #-2389	@ 0xfffff6ab
     e28:	6d003233 	sfmvs	f3, 4, [r0, #-204]	@ 0xffffff34
     e2c:	68637461 	stmdavs	r3!, {r0, r5, r6, sl, ip, sp, lr}^
     e30:	7079745f 	rsbsvc	r7, r9, pc, asr r4
     e34:	65720065 	ldrbvs	r0, [r2, #-101]!	@ 0xffffff9b
     e38:	696d7573 	stmdbvs	sp!, {r0, r1, r4, r5, r6, r8, sl, ip, sp, lr}^
     e3c:	5f00676e 	svcpl	0x0000676e
     e40:	3974535a 	ldmdbcc	r4!, {r1, r3, r4, r6, r8, r9, ip, lr}^
     e44:	65707974 	ldrbvs	r7, [r0, #-2420]!	@ 0xfffff68c
     e48:	666e695f 			@ <UNDEFINED> instruction: 0x666e695f
     e4c:	6572006f 	ldrbvs	r0, [r2, #-111]!	@ 0xffffff91
     e50:	76726573 			@ <UNDEFINED> instruction: 0x76726573
     e54:	00316465 	eorseq	r6, r1, r5, ror #8
     e58:	65736572 	ldrbvs	r6, [r3, #-1394]!	@ 0xfffffa8e
     e5c:	64657672 	strbtvs	r7, [r5], #-1650	@ 0xfffff98e
     e60:	65720032 	ldrbvs	r0, [r2, #-50]!	@ 0xffffffce
     e64:	76726573 			@ <UNDEFINED> instruction: 0x76726573
     e68:	00336465 	eorseq	r6, r3, r5, ror #8
     e6c:	65736572 	ldrbvs	r6, [r3, #-1394]!	@ 0xfffffa8e
     e70:	64657672 	strbtvs	r7, [r5], #-1650	@ 0xfffff98e
     e74:	65720034 	ldrbvs	r0, [r2, #-52]!	@ 0xffffffcc
     e78:	76726573 			@ <UNDEFINED> instruction: 0x76726573
     e7c:	00356465 	eorseq	r6, r5, r5, ror #8
     e80:	5256555f 	subspl	r5, r6, #398458880	@ 0x17c00000
     e84:	555f4453 	ldrbpl	r4, [pc, #-1107]	@ a39 <__gnu_unwind_pr_common+0xd9>
     e88:	36544e49 	ldrbcc	r4, [r4], -r9, asr #28
     e8c:	555f0034 	ldrbpl	r0, [pc, #-52]	@ e60 <_Unwind_VRS_Pop+0x24c>
     e90:	52535256 	subspl	r5, r3, #1610612741	@ 0x60000005
     e94:	4941465f 	stmdbmi	r1, {r0, r1, r2, r3, r4, r6, r9, sl, lr}^
     e98:	0044454c 	subeq	r4, r4, ip, asr #10
     e9c:	725f7270 	subsvc	r7, pc, #112, 4
     ea0:	6c757365 	ldclvs	3, cr7, [r5], #-404	@ 0xfffffe6c
     ea4:	5f5f0074 	svcpl	0x005f0074
     ea8:	64697865 	strbtvs	r7, [r9], #-2149	@ 0xfffff79b
     eac:	6e655f78 	mcrvs	15, 3, r5, cr5, cr8, {3}
     eb0:	5f5f0064 	svcpl	0x005f0064
     eb4:	5f756e67 	svcpl	0x00756e67
     eb8:	69776e55 	ldmdbvs	r7!, {r0, r2, r4, r6, r9, sl, fp, sp, lr}^
     ebc:	525f646e 	subspl	r6, pc, #1845493760	@ 0x6e000000
     ec0:	6f747365 	svcvs	0x00747365
     ec4:	565f6572 			@ <UNDEFINED> instruction: 0x565f6572
     ec8:	445f5046 	ldrbmi	r5, [pc], #-70	@ ed0 <_Unwind_VRS_Pop+0x2bc>
     ecc:	5f36315f 	svcpl	0x0036315f
     ed0:	335f6f74 	cmpcc	pc, #116, 30	@ 0x1d0
     ed4:	65670031 	strbvs	r0, [r7, #-49]!	@ 0xffffffcf
     ed8:	69655f74 	stmdbvs	r5!, {r2, r4, r5, r6, r8, r9, sl, fp, ip, lr}^
     edc:	6e655f74 	mcrvs	15, 3, r5, cr5, cr4, {3}
     ee0:	00797274 	rsbseq	r7, r9, r4, ror r2
     ee4:	3677755f 			@ <UNDEFINED> instruction: 0x3677755f
     ee8:	5f5f0034 	svcpl	0x005f0034
     eec:	5f756e67 	svcpl	0x00756e67
     ef0:	69776e55 	ldmdbvs	r7!, {r0, r2, r4, r6, r9, sl, fp, sp, lr}^
     ef4:	525f646e 	subspl	r6, pc, #1845493760	@ 0x6e000000
     ef8:	6f747365 	svcvs	0x00747365
     efc:	565f6572 			@ <UNDEFINED> instruction: 0x565f6572
     f00:	445f5046 	ldrbmi	r5, [pc], #-70	@ f08 <__restore_core_regs+0x8>
     f04:	675f5f00 	ldrbvs	r5, [pc, -r0, lsl #30]
     f08:	755f756e 	ldrbvc	r7, [pc, #-1390]	@ 9a2 <__gnu_unwind_pr_common+0x42>
     f0c:	6e69776e 	cdpvs	7, 6, cr7, cr9, cr14, {3}
     f10:	34325f64 	ldrtcc	r5, [r2], #-3940	@ 0xfffff09c
     f14:	00746962 	rsbseq	r6, r4, r2, ror #18
     f18:	7478656e 	ldrbtvc	r6, [r8], #-1390	@ 0xfffffa92
     f1c:	7372765f 	cmnvc	r2, #99614720	@ 0x5f00000
     f20:	675f5f00 	ldrbvs	r5, [pc, -r0, lsl #30]
     f24:	755f756e 	ldrbvc	r7, [pc, #-1390]	@ 9be <__gnu_unwind_pr_common+0x5e>
     f28:	6e69776e 	cdpvs	7, 6, cr7, cr9, cr14, {3}
     f2c:	74735f64 	ldrbtvc	r5, [r3], #-3940	@ 0xfffff09c
     f30:	00657461 	rsbeq	r7, r5, r1, ror #8
     f34:	666f6e66 	strbtvs	r6, [pc], -r6, ror #28
     f38:	74657366 	strbtvc	r7, [r5], #-870	@ 0xfffffc9a
     f3c:	69687400 	stmdbvs	r8!, {sl, ip, sp, lr}^
     f40:	6e665f73 	mcrvs	15, 3, r5, cr6, cr3, {3}
     f44:	2f2e2e00 	svccs	0x002e2e00
     f48:	2e2f2e2e 	cdpcs	14, 2, cr2, cr15, cr14, {1}
     f4c:	2e2e2f2e 	cdpcs	15, 2, cr2, cr14, cr14, {1}
     f50:	2f2e2e2f 	svccs	0x002e2e2f
     f54:	6c2f2e2e 	stcvs	14, cr2, [pc], #-184	@ ea4 <_Unwind_VRS_Pop+0x290>
     f58:	63676269 	cmnvs	r7, #-1879048186	@ 0x90000006
     f5c:	6f632f63 	svcvs	0x00632f63
     f60:	6769666e 	strbvs	r6, [r9, -lr, ror #12]!
     f64:	6d72612f 	ldfvse	f6, [r2, #-188]!	@ 0xffffff44
     f68:	62696c2f 	rsbvs	r6, r9, #12032	@ 0x2f00
     f6c:	69776e75 	ldmdbvs	r7!, {r0, r2, r4, r5, r6, r9, sl, fp, sp, lr}^
     f70:	532e646e 			@ <UNDEFINED> instruction: 0x532e646e
     f74:	725f5f00 	subsvc	r5, pc, #0, 30
     f78:	6f747365 	svcvs	0x00747365
     f7c:	635f6572 	cmpvs	pc, #478150656	@ 0x1c800000
     f80:	5f65726f 	svcpl	0x0065726f
     f84:	73676572 	cmnvc	r7, #478150656	@ 0x1c800000
     f88:	5f5f5f00 	svcpl	0x005f5f00
     f8c:	69776e55 	ldmdbvs	r7!, {r0, r2, r4, r6, r9, sl, fp, sp, lr}^
     f90:	525f646e 	subspl	r6, pc, #1845493760	@ 0x6e000000
     f94:	65736961 	ldrbvs	r6, [r3, #-2401]!	@ 0xfffff69f
     f98:	65637845 	strbvs	r7, [r3, #-2117]!	@ 0xfffff7bb
     f9c:	6f697470 	svcvs	0x00697470
     fa0:	5f5f006e 	svcpl	0x005f006e
     fa4:	776e555f 			@ <UNDEFINED> instruction: 0x776e555f
     fa8:	5f646e69 	svcpl	0x00646e69
     fac:	75736552 	ldrbvc	r6, [r3, #-1362]!	@ 0xfffffaae
     fb0:	5f00656d 	svcpl	0x0000656d
     fb4:	6e555f5f 	mrcvs	15, 2, r5, cr5, cr15, {2}
     fb8:	646e6977 	strbtvs	r6, [lr], #-2423	@ 0xfffff689
     fbc:	7365525f 	cmnvc	r5, #-268435451	@ 0xf0000005
     fc0:	5f656d75 	svcpl	0x00656d75
     fc4:	525f726f 	subspl	r7, pc, #-268435450	@ 0xf0000006
     fc8:	72687465 	rsbvc	r7, r8, #1694498816	@ 0x65000000
     fcc:	5f00776f 	svcpl	0x0000776f
     fd0:	6e555f5f 	mrcvs	15, 2, r5, cr5, cr15, {2}
     fd4:	646e6977 	strbtvs	r6, [lr], #-2423	@ 0xfffff689
     fd8:	726f465f 	rsbvc	r4, pc, #99614720	@ 0x5f00000
     fdc:	55646563 	strbpl	r6, [r4, #-1379]!	@ 0xfffffa9d
     fe0:	6e69776e 	cdpvs	7, 6, cr7, cr9, cr14, {3}
     fe4:	5f5f0064 	svcpl	0x005f0064
     fe8:	776e555f 			@ <UNDEFINED> instruction: 0x776e555f
     fec:	5f646e69 	svcpl	0x00646e69
     ff0:	6b636142 	blvs	18d9500 <__ROM_SIZE+0x1899500>
     ff4:	63617274 	cmnvs	r1, #116, 4	@ 0x40000007
     ff8:	555f0065 	ldrbpl	r0, [pc, #-101]	@ f9b <__gnu_Unwind_Save_WMMXD+0xf>
     ffc:	6e69776e 	cdpvs	7, 6, cr7, cr9, cr14, {3}
    1000:	65475f64 	strbvs	r5, [r7, #-3940]	@ 0xfffff09c
    1004:	67655274 			@ <UNDEFINED> instruction: 0x67655274
    1008:	536e6f69 	cmnpl	lr, #420	@ 0x1a4
    100c:	74726174 	ldrbtvc	r6, [r2], #-372	@ 0xfffffe8c
    1010:	69687300 	stmdbvs	r8!, {r8, r9, ip, sp, lr}^
    1014:	5f007466 	svcpl	0x00007466
    1018:	756e675f 	strbvc	r6, [lr, #-1887]!	@ 0xfffff8a1
    101c:	776e755f 			@ <UNDEFINED> instruction: 0x776e755f
    1020:	5f646e69 	svcpl	0x00646e69
    1024:	6d617266 	sfmvs	f7, 2, [r1, #-408]!	@ 0xfffffe68
    1028:	555f0065 	ldrbpl	r0, [pc, #-101]	@ fcb <__gnu_Unwind_Save_WMMXD+0x3f>
    102c:	6e69776e 	cdpvs	7, 6, cr7, cr9, cr14, {3}
    1030:	65475f64 	strbvs	r5, [r7, #-3940]	@ 0xfffff09c
    1034:	6e614c74 	mcrvs	12, 3, r4, cr1, cr4, {3}
    1038:	67617567 	strbvs	r7, [r1, -r7, ror #10]!
    103c:	65705365 	ldrbvs	r5, [r0, #-869]!	@ 0xfffffc9b
    1040:	69666963 	stmdbvs	r6!, {r0, r1, r5, r6, r8, fp, sp, lr}^
    1044:	74614463 	strbtvc	r4, [r1], #-1123	@ 0xfffffb9d
    1048:	65730061 	ldrbvs	r0, [r3, #-97]!	@ 0xffffff9f
    104c:	63705f74 	cmnvs	r0, #116, 30	@ 0x1d0
    1050:	6f626100 	svcvs	0x00626100
    1054:	75007472 	strvc	r7, [r0, #-1138]	@ 0xfffffb8e
    1058:	6e69776e 	cdpvs	7, 6, cr7, cr9, cr14, {3}
    105c:	43555f64 	cmpmi	r5, #100, 30	@ 0x190
    1060:	72665f42 	rsbvc	r5, r6, #264	@ 0x108
    1064:	635f6d6f 	cmpvs	pc, #7104	@ 0x1bc0
    1068:	65746e6f 	ldrbvs	r6, [r4, #-3695]!	@ 0xfffff191
    106c:	5f007478 	svcpl	0x00007478
    1070:	69776e55 	ldmdbvs	r7!, {r0, r2, r4, r6, r9, sl, fp, sp, lr}^
    1074:	475f646e 	ldrbmi	r6, [pc, -lr, ror #8]
    1078:	65547465 	ldrbvs	r7, [r4, #-1125]	@ 0xfffffb9b
    107c:	65527478 	ldrbvs	r7, [r2, #-1144]	@ 0xfffffb88
    1080:	7361426c 	cmnvc	r1, #108, 4	@ 0xc0000006
    1084:	2e2e0065 	cdpcs	0, 2, cr0, cr14, cr5, {3}
    1088:	2f2e2e2f 	svccs	0x002e2e2f
    108c:	2e2f2e2e 	cdpcs	14, 2, cr2, cr15, cr14, {1}
    1090:	2e2e2f2e 	cdpcs	15, 2, cr2, cr14, cr14, {1}
    1094:	2f2e2e2f 	svccs	0x002e2e2f
    1098:	6762696c 	strbvs	r6, [r2, -ip, ror #18]!
    109c:	632f6363 			@ <UNDEFINED> instruction: 0x632f6363
    10a0:	69666e6f 	stmdbvs	r6!, {r0, r1, r2, r3, r5, r6, r9, sl, fp, sp, lr}^
    10a4:	72612f67 	rsbvc	r2, r1, #412	@ 0x19c
    10a8:	72702f6d 	rsbsvc	r2, r0, #436	@ 0x1b4
    10ac:	7075732d 	rsbsvc	r7, r5, sp, lsr #6
    10b0:	74726f70 	ldrbtvc	r6, [r2], #-3952	@ 0xfffff090
    10b4:	6e00632e 	cdpvs	3, 0, cr6, cr0, cr14, {1}
    10b8:	5f747865 	svcpl	0x00747865
    10bc:	69776e75 	ldmdbvs	r7!, {r0, r2, r4, r5, r6, r9, sl, fp, sp, lr}^
    10c0:	625f646e 	subsvs	r6, pc, #1845493760	@ 0x6e000000
    10c4:	00657479 	rsbeq	r7, r5, r9, ror r4
    10c8:	776e555f 			@ <UNDEFINED> instruction: 0x776e555f
    10cc:	5f646e69 	svcpl	0x00646e69
    10d0:	44746547 	ldrbtmi	r6, [r4], #-1351	@ 0xfffffab9
    10d4:	52617461 	rsbpl	r7, r1, #1627389952	@ 0x61000000
    10d8:	61426c65 	cmpvs	r2, r5, ror #24
    10dc:	2e006573 	cfrshl64cs	mvdx0, mvdx3, r6
    10e0:	2e2e2f2e 	cdpcs	15, 2, cr2, cr14, cr14, {1}
    10e4:	2f2e2e2f 	svccs	0x002e2e2f
    10e8:	2e2f2e2e 	cdpcs	14, 2, cr2, cr15, cr14, {1}
    10ec:	2e2e2f2e 	cdpcs	15, 2, cr2, cr14, cr14, {1}
    10f0:	77656e2f 	strbvc	r6, [r5, -pc, lsr #28]!
    10f4:	2f62696c 	svccs	0x0062696c
    10f8:	6362696c 	cmnvs	r2, #108, 18	@ 0x1b0000
    10fc:	63616d2f 	cmnvs	r1, #3008	@ 0xbc0
    1100:	656e6968 	strbvs	r6, [lr, #-2408]!	@ 0xfffff698
    1104:	6d72612f 	ldfvse	f6, [r2, #-188]!	@ 0xffffff44
    1108:	6d656d2f 	stclvs	13, cr6, [r5, #-188]!	@ 0xffffff44
    110c:	2d797063 	ldclcs	0, cr7, [r9, #-396]!	@ 0xfffffe74
    1110:	766d7261 	strbtvc	r7, [sp], -r1, ror #4
    1114:	532e6d37 			@ <UNDEFINED> instruction: 0x532e6d37
    1118:	75622f00 	strbvc	r2, [r2, #-3840]!	@ 0xfffff100
    111c:	2f646c69 	svccs	0x00646c69
    1120:	6c77656e 	cfldr64vs	mvdx6, [r7], #-440	@ 0xfffffe48
    1124:	332d6269 			@ <UNDEFINED> instruction: 0x332d6269
    1128:	4a305638 	bmi	c16a10 <__ROM_SIZE+0xbd6a10>
    112c:	656e2f43 	strbvs	r2, [lr, #-3907]!	@ 0xfffff0bd
    1130:	62696c77 	rsbvs	r6, r9, #30464	@ 0x7700
    1134:	342e342d 	strtcc	r3, [lr], #-1069	@ 0xfffffbd3
    1138:	322e302e 	eorcc	r3, lr, #46	@ 0x2e
    113c:	31333230 	teqcc	r3, r0, lsr r2
    1140:	2f313332 	svccs	0x00313332
    1144:	6c697562 	cfstr64vs	mvdx7, [r9], #-392	@ 0xfffffe78
    1148:	72612f64 	rsbvc	r2, r1, #100, 30	@ 0x190
    114c:	6f6e2d6d 	svcvs	0x006e2d6d
    1150:	652d656e 	strvs	r6, [sp, #-1390]!	@ 0xfffffa92
    1154:	2f696261 	svccs	0x00696261
    1158:	6d756874 	ldclvs	8, cr6, [r5, #-464]!	@ 0xfffffe30
    115c:	37762f62 	ldrbcc	r2, [r6, -r2, ror #30]!
    1160:	6e2f6d2d 	cdpvs	13, 2, cr6, cr15, cr13, {1}
    1164:	2f70666f 	svccs	0x0070666f
    1168:	6c77656e 	cfldr64vs	mvdx6, [r7], #-440	@ 0xfffffe48
    116c:	Address 0x116c is out of bounds.


Disassembly of section .debug_rnglists:

00000000 <.debug_rnglists>:
   0:	00000015 	andeq	r0, r0, r5, lsl r0
   4:	00040005 	andeq	r0, r4, r5
   8:	00000000 	andeq	r0, r0, r0
   c:	00000007 	andeq	r0, r0, r7
  10:	18071c00 	stmdane	r7, {sl, fp, ip}
  14:	28000004 	stmdacs	r0, {r2}
  18:	00000f00 	andeq	r0, r0, r0, lsl #30
  1c:	04000500 	streq	r0, [r0], #-1280	@ 0xfffffb00
  20:	00000000 	andeq	r0, r0, r0
  24:	04400700 	strbeq	r0, [r0], #-1792	@ 0xfffff900
  28:	00140000 	andseq	r0, r4, r0
  2c:	00000015 	andeq	r0, r0, r5, lsl r0
  30:	00040005 	andeq	r0, r4, r5
  34:	00000000 	andeq	r0, r0, r0
  38:	00045407 	andeq	r5, r4, r7, lsl #8
  3c:	74072000 	strvc	r2, [r7], #-0
  40:	2c000004 	stccs	0, cr0, [r0], {4}
  44:	0000cd00 	andeq	ip, r0, r0, lsl #26
  48:	04000500 	streq	r0, [r0], #-1280	@ 0xfffffb00
  4c:	00000000 	andeq	r0, r0, r0
  50:	01ec0400 	mvneq	r0, r0, lsl #8
  54:	f60401ee 			@ <UNDEFINED> instruction: 0xf60401ee
  58:	0401f801 	streq	pc, [r1], #-2049	@ 0xfffff7ff
  5c:	0292028a 	addseq	r0, r2, #-1610612728	@ 0xa0000008
  60:	9c029a04 			@ <UNDEFINED> instruction: 0x9c029a04
  64:	a6040002 	strge	r0, [r4], -r2
  68:	0404e404 	streq	lr, [r4], #-1028	@ 0xfffffbfc
  6c:	059604ea 	ldreq	r0, [r6, #1258]	@ 0x4ea
  70:	a805a604 	stmdage	r5, {r2, r9, sl, sp, pc}
  74:	a6040005 	strge	r0, [r4], -r5
  78:	040b800a 	streq	r8, [fp], #-10
  7c:	0bbc0bb6 	bleq	fef02f5c <__StackTop+0xdeef2f5c>
  80:	ce0bc204 	cdpgt	2, 0, cr12, cr11, cr4, {0}
  84:	0bda040b 	bleq	ff6810b8 <__StackTop+0xdf6710b8>
  88:	04000ee8 	streq	r0, [r0], #-3816	@ 0xfffff118
  8c:	0bba0bb6 	bleq	fee82f6c <__StackTop+0xdee72f6c>
  90:	ca0ea404 	bgt	3a90a8 <__ROM_SIZE+0x3690a8>
  94:	ba04000e 	blt	1000d4 <__ROM_SIZE+0xc00d4>
  98:	040bbc0b 	streq	fp, [fp], #-3083	@ 0xfffff3f5
  9c:	0daa0d8c 	stceq	13, cr0, [sl, #560]!	@ 0x230
  a0:	e80ed804 	stmda	lr, {r2, fp, ip, lr, pc}
  a4:	9004000e 	andls	r0, r4, lr
  a8:	040cc20c 	streq	ip, [ip], #-524	@ 0xfffffdf4
  ac:	0db40db2 	ldceq	13, cr0, [r4, #712]!	@ 0x2c8
  b0:	980df604 	stmdals	sp, {r2, r9, sl, ip, sp, lr, pc}
  b4:	0eca040e 	cdpeq	4, 12, cr0, cr10, cr14, {0}
  b8:	04000ed8 	streq	r0, [r0], #-3800	@ 0xfffff128
  bc:	0db20daa 	ldceq	13, cr0, [r2, #680]!	@ 0x2a8
  c0:	f60db404 			@ <UNDEFINED> instruction: 0xf60db404
  c4:	0e98040d 	cdpeq	4, 9, cr0, cr8, cr13, {0}
  c8:	9e040e9a 	mcrls	14, 0, r0, cr4, cr10, {4}
  cc:	000ea40e 	andeq	sl, lr, lr, lsl #8
  d0:	dc0fac04 	stcle	12, cr10, [pc], {4}
  d4:	12b2040f 	adcsne	r0, r2, #251658240	@ 0xf000000
  d8:	040012b6 	streq	r1, [r0], #-694	@ 0xfffffd4a
  dc:	10da0fdc 	ldrsbne	r0, [sl], #252	@ 0xfc
  e0:	b211f204 	andslt	pc, r1, #4, 4	@ 0x40000000
  e4:	12b60412 	adcsne	r0, r6, #301989888	@ 0x12000000
  e8:	8a0413e6 	bhi	105088 <__ROM_SIZE+0xc5088>
  ec:	0014e014 	andseq	lr, r4, r4, lsl r0
  f0:	9e109604 	cfmsub32ls	mvax0, mvfx9, mvfx0, mvfx4
  f4:	10a00410 	adcne	r0, r0, r0, lsl r4
  f8:	9c0410c0 	stcls	0, cr1, [r4], {192}	@ 0xc0
  fc:	0013b613 	andseq	fp, r3, r3, lsl r6
 100:	a610da04 	ldrge	sp, [r0], -r4, lsl #20
 104:	13f60411 	mvnsne	r0, #285212672	@ 0x11000000
 108:	0400148a 	streq	r1, [r0], #-1162	@ 0xfffffb76
 10c:	11f011a8 	mvnsne	r1, r8, lsr #3
 110:	f613e604 			@ <UNDEFINED> instruction: 0xf613e604
 114:	00360013 	eorseq	r0, r6, r3, lsl r0
 118:	00050000 	andeq	r0, r5, r0
 11c:	00000004 	andeq	r0, r0, r4
 120:	de050000 	cdple	0, 0, cr0, cr5, cr0, {0}
 124:	04000011 	streq	r0, [r0], #-17	@ 0xffffffef
 128:	f2043800 	vadd.i8	d3, d4, d0
 12c:	0001f401 	andeq	pc, r1, r1, lsl #8
 130:	0012b005 	andseq	fp, r2, r5
 134:	20000400 	andcs	r0, r0, r0, lsl #8
 138:	00582204 	subseq	r2, r8, r4, lsl #4
 13c:	0010ac07 	andseq	sl, r0, r7, lsl #24
 140:	0707a200 	streq	sl, [r7, -r0, lsl #4]
 144:	00000000 	andeq	r0, r0, r0
 148:	00000706 	andeq	r0, r0, r6, lsl #14
 14c:	00060000 	andeq	r0, r6, r0

Disassembly of section .debug_frame:

00000000 <.debug_frame>:
   0:	0000000c 	andeq	r0, r0, ip
   4:	ffffffff 			@ <UNDEFINED> instruction: 0xffffffff
   8:	7c020001 	stcvc	0, cr0, [r2], {1}
   c:	000d0c0e 	andeq	r0, sp, lr, lsl #24
  10:	0000001c 	andeq	r0, r0, ip, lsl r0
	...
  1c:	0000001c 	andeq	r0, r0, ip, lsl r0
  20:	87040e41 	strhi	r0, [r4, -r1, asr #28]
  24:	070d4101 	streq	r4, [sp, -r1, lsl #2]
  28:	410d0d45 	tstmi	sp, r5, asr #26
  2c:	00000ec7 	andeq	r0, r0, r7, asr #29
  30:	0000001c 	andeq	r0, r0, ip, lsl r0
  34:	00000000 	andeq	r0, r0, r0
  38:	00000418 	andeq	r0, r0, r8, lsl r4
  3c:	00000028 	andeq	r0, r0, r8, lsr #32
  40:	87040e41 	strhi	r0, [r4, -r1, asr #28]
  44:	070d4101 	streq	r4, [sp, -r1, lsl #2]
  48:	410d0d48 	tstmi	sp, r8, asr #26
  4c:	00000ec7 	andeq	r0, r0, r7, asr #29
  50:	0000000c 	andeq	r0, r0, ip
  54:	ffffffff 			@ <UNDEFINED> instruction: 0xffffffff
  58:	7c020001 	stcvc	0, cr0, [r2], {1}
  5c:	000d0c0e 	andeq	r0, sp, lr, lsl #24
  60:	00000018 	andeq	r0, r0, r8, lsl r0
  64:	00000050 	andeq	r0, r0, r0, asr r0
  68:	00000440 	andeq	r0, r0, r0, asr #8
  6c:	00000014 	andeq	r0, r0, r4, lsl r0
  70:	87080e41 	strhi	r0, [r8, -r1, asr #28]
  74:	41018e02 	tstmi	r1, r2, lsl #28
  78:	0000070d 	andeq	r0, r0, sp, lsl #14
  7c:	0000000c 	andeq	r0, r0, ip
  80:	ffffffff 			@ <UNDEFINED> instruction: 0xffffffff
  84:	7c020001 	stcvc	0, cr0, [r2], {1}
  88:	000d0c0e 	andeq	r0, sp, lr, lsl #24
  8c:	00000024 	andeq	r0, r0, r4, lsr #32
  90:	0000007c 	andeq	r0, r0, ip, ror r0
  94:	00000454 	andeq	r0, r0, r4, asr r4
  98:	00000020 	andeq	r0, r0, r0, lsr #32
  9c:	87040e41 	strhi	r0, [r4, -r1, asr #28]
  a0:	100e4101 	andne	r4, lr, r1, lsl #2
  a4:	47070d41 	strmi	r0, [r7, -r1, asr #26]
  a8:	0d41040e 	cfstrdeq	mvd0, [r1, #-56]	@ 0xffffffc8
  ac:	0ec7410d 	poleqs	f4, f7, #5.0
  b0:	00000000 	andeq	r0, r0, r0
  b4:	00000020 	andeq	r0, r0, r0, lsr #32
  b8:	0000007c 	andeq	r0, r0, ip, ror r0
  bc:	00000474 	andeq	r0, r0, r4, ror r4
  c0:	0000002c 	andeq	r0, r0, ip, lsr #32
  c4:	87080e41 	strhi	r0, [r8, -r1, asr #28]
  c8:	41018e02 	tstmi	r1, r2, lsl #28
  cc:	0d41100e 	stcleq	0, cr1, [r1, #-56]	@ 0xffffffc8
  d0:	080e5107 	stmdaeq	lr, {r0, r1, r2, r8, ip, lr}
  d4:	000d0d41 	andeq	r0, sp, r1, asr #26
  d8:	0000000c 	andeq	r0, r0, ip
  dc:	ffffffff 			@ <UNDEFINED> instruction: 0xffffffff
  e0:	7c020001 	stcvc	0, cr0, [r2], {1}
  e4:	000d0c0e 	andeq	r0, sp, lr, lsl #24
  e8:	0000000c 	andeq	r0, r0, ip
  ec:	000000d8 	ldrdeq	r0, [r0], -r8
  f0:	000004a0 	andeq	r0, r0, r0, lsr #9
  f4:	00000012 	andeq	r0, r0, r2, lsl r0
  f8:	00000020 	andeq	r0, r0, r0, lsr #32
  fc:	000000d8 	ldrdeq	r0, [r0], -r8
 100:	000004b4 			@ <UNDEFINED> instruction: 0x000004b4
 104:	00000062 	andeq	r0, r0, r2, rrx
 108:	84200e42 	strthi	r0, [r0], #-3650	@ 0xfffff1be
 10c:	86078508 	strhi	r8, [r7], -r8, lsl #10
 110:	88058706 	stmdahi	r5, {r1, r2, r8, r9, sl, pc}
 114:	8a038904 	bhi	e252c <__ROM_SIZE+0xa252c>
 118:	00018e02 	andeq	r8, r1, r2, lsl #28
 11c:	0000000c 	andeq	r0, r0, ip
 120:	000000d8 	ldrdeq	r0, [r0], -r8
 124:	00000518 	andeq	r0, r0, r8, lsl r5
 128:	00000028 	andeq	r0, r0, r8, lsr #32
 12c:	0000002c 	andeq	r0, r0, ip, lsr #32
 130:	000000d8 	ldrdeq	r0, [r0], -r8
 134:	00000540 	andeq	r0, r0, r0, asr #10
 138:	00000098 	muleq	r0, r8, r0
 13c:	840c0e41 	strhi	r0, [ip], #-3649	@ 0xfffff1bf
 140:	8e028503 	cfsh32hi	mvfx8, mvfx2, #3
 144:	180e4301 	stmdane	lr, {r0, r8, r9, lr}
 148:	0c0e0a64 			@ <UNDEFINED> instruction: 0x0c0e0a64
 14c:	0a440b41 	beq	1102e58 <__ROM_SIZE+0x10c2e58>
 150:	0b410c0e 	bleq	1043190 <__ROM_SIZE+0x1003190>
 154:	0c0e0a51 			@ <UNDEFINED> instruction: 0x0c0e0a51
 158:	00000b41 	andeq	r0, r0, r1, asr #22
 15c:	00000018 	andeq	r0, r0, r8, lsl r0
 160:	000000d8 	ldrdeq	r0, [r0], -r8
 164:	000005d8 	ldrdeq	r0, [r0], -r8
 168:	00000058 	andeq	r0, r0, r8, asr r0
 16c:	84080e42 	strhi	r0, [r8], #-3650	@ 0xfffff1be
 170:	68018e02 	stmdavs	r1, {r1, r9, sl, fp, pc}
 174:	000ec4ce 	andeq	ip, lr, lr, asr #9
 178:	0000000c 	andeq	r0, r0, ip
 17c:	000000d8 	ldrdeq	r0, [r0], -r8
 180:	00000630 	andeq	r0, r0, r0, lsr r6
 184:	0000000a 	andeq	r0, r0, sl
 188:	0000000c 	andeq	r0, r0, ip
 18c:	000000d8 	ldrdeq	r0, [r0], -r8
 190:	0000063c 	andeq	r0, r0, ip, lsr r6
 194:	00000004 	andeq	r0, r0, r4
 198:	0000000c 	andeq	r0, r0, ip
 19c:	000000d8 	ldrdeq	r0, [r0], -r8
 1a0:	00000640 	andeq	r0, r0, r0, asr #12
 1a4:	00000002 	andeq	r0, r0, r2
 1a8:	00000018 	andeq	r0, r0, r8, lsl r0
 1ac:	000000d8 	ldrdeq	r0, [r0], -r8
 1b0:	00000644 	andeq	r0, r0, r4, asr #12
 1b4:	0000003c 	andeq	r0, r0, ip, lsr r0
 1b8:	84100e41 	ldrhi	r0, [r0], #-3649	@ 0xfffff1bf
 1bc:	86038504 	strhi	r8, [r3], -r4, lsl #10
 1c0:	00018e02 	andeq	r8, r1, r2, lsl #28
 1c4:	00000030 	andeq	r0, r0, r0, lsr r0
 1c8:	000000d8 	ldrdeq	r0, [r0], -r8
 1cc:	00000680 	andeq	r0, r0, r0, lsl #13
 1d0:	000000e0 	andeq	r0, r0, r0, ror #1
 1d4:	84200e42 	strthi	r0, [r0], #-3650	@ 0xfffff1be
 1d8:	86078508 	strhi	r8, [r7], -r8, lsl #10
 1dc:	88058706 	stmdahi	r5, {r1, r2, r8, r9, sl, pc}
 1e0:	8a038904 	bhi	e25f8 <__ROM_SIZE+0xa25f8>
 1e4:	44018e02 	strmi	r8, [r1], #-3586	@ 0xfffff1fe
 1e8:	0207f80e 	andeq	pc, r7, #917504	@ 0xe0000
 1ec:	200e0a58 	andcs	r0, lr, r8, asr sl
 1f0:	0a470b42 	beq	11c2f00 <__ROM_SIZE+0x1182f00>
 1f4:	0b42200e 	bleq	1088234 <__ROM_SIZE+0x1048234>
 1f8:	0000000c 	andeq	r0, r0, ip
 1fc:	000000d8 	ldrdeq	r0, [r0], -r8
 200:	00000760 	andeq	r0, r0, r0, ror #14
 204:	00000004 	andeq	r0, r0, r4
 208:	00000024 	andeq	r0, r0, r4, lsr #32
 20c:	000000d8 	ldrdeq	r0, [r0], -r8
 210:	00000764 	andeq	r0, r0, r4, ror #14
 214:	00000066 	andeq	r0, r0, r6, rrx
 218:	84140e41 	ldrhi	r0, [r4], #-3649	@ 0xfffff1bf
 21c:	86048505 	strhi	r8, [r4], -r5, lsl #10
 220:	8e028703 	cdphi	7, 0, cr8, cr2, cr3, {0}
 224:	800e4401 	andhi	r4, lr, r1, lsl #8
 228:	0e0a6404 	cdpeq	4, 0, cr6, cr10, cr4, {0}
 22c:	000b4114 	andeq	r4, fp, r4, lsl r1
 230:	00000018 	andeq	r0, r0, r8, lsl r0
 234:	000000d8 	ldrdeq	r0, [r0], -r8
 238:	000007cc 	andeq	r0, r0, ip, asr #15
 23c:	00000014 	andeq	r0, r0, r4, lsl r0
 240:	84040e41 	strhi	r0, [r4], #-3649	@ 0xfffff1bf
 244:	0ec44801 	cdpeq	8, 12, cr4, cr4, cr1, {0}
 248:	00000000 	andeq	r0, r0, r0
 24c:	00000018 	andeq	r0, r0, r8, lsl r0
 250:	000000d8 	ldrdeq	r0, [r0], -r8
 254:	000007e0 	andeq	r0, r0, r0, ror #15
 258:	00000040 	andeq	r0, r0, r0, asr #32
 25c:	84100e41 	ldrhi	r0, [r0], #-3649	@ 0xfffff1bf
 260:	86038504 	strhi	r8, [r3], -r4, lsl #10
 264:	00018e02 	andeq	r8, r1, r2, lsl #28
 268:	0000000c 	andeq	r0, r0, ip
 26c:	000000d8 	ldrdeq	r0, [r0], -r8
 270:	00000820 	andeq	r0, r0, r0, lsr #16
 274:	00000012 	andeq	r0, r0, r2, lsl r0
 278:	0000000c 	andeq	r0, r0, ip
 27c:	000000d8 	ldrdeq	r0, [r0], -r8
 280:	00000834 	andeq	r0, r0, r4, lsr r8
 284:	00000002 	andeq	r0, r0, r2
 288:	0000000c 	andeq	r0, r0, ip
 28c:	000000d8 	ldrdeq	r0, [r0], -r8
 290:	00000838 	andeq	r0, r0, r8, lsr r8
 294:	0000000c 	andeq	r0, r0, ip
 298:	0000000c 	andeq	r0, r0, ip
 29c:	000000d8 	ldrdeq	r0, [r0], -r8
 2a0:	00000844 	andeq	r0, r0, r4, asr #16
 2a4:	00000034 	andeq	r0, r0, r4, lsr r0
 2a8:	00000018 	andeq	r0, r0, r8, lsl r0
 2ac:	000000d8 	ldrdeq	r0, [r0], -r8
 2b0:	00000878 	andeq	r0, r0, r8, ror r8
 2b4:	0000001a 	andeq	r0, r0, sl, lsl r0
 2b8:	8e040e42 	cdphi	14, 0, cr0, cr4, cr2, {2}
 2bc:	180e4101 	stmdane	lr, {r0, r8, lr}
 2c0:	00040e48 	andeq	r0, r4, r8, asr #28
 2c4:	0000000c 	andeq	r0, r0, ip
 2c8:	000000d8 	ldrdeq	r0, [r0], -r8
 2cc:	00000894 	muleq	r0, r4, r8
 2d0:	00000034 	andeq	r0, r0, r4, lsr r0
 2d4:	0000001c 	andeq	r0, r0, ip, lsl r0
 2d8:	000000d8 	ldrdeq	r0, [r0], -r8
 2dc:	000008c8 	andeq	r0, r0, r8, asr #17
 2e0:	00000018 	andeq	r0, r0, r8, lsl r0
 2e4:	84080e42 	strhi	r0, [r8], #-3650	@ 0xfffff1be
 2e8:	41018e02 	tstmi	r1, r2, lsl #28
 2ec:	0e48180e 	cdpeq	8, 4, cr1, cr8, cr14, {0}
 2f0:	00000008 	andeq	r0, r0, r8
 2f4:	00000020 	andeq	r0, r0, r0, lsr #32
 2f8:	000000d8 	ldrdeq	r0, [r0], -r8
 2fc:	000008e0 	andeq	r0, r0, r0, ror #17
 300:	00000080 	andeq	r0, r0, r0, lsl #1
 304:	84100e41 	ldrhi	r0, [r0], #-3649	@ 0xfffff1bf
 308:	86038504 	strhi	r8, [r3], -r4, lsl #10
 30c:	45018e02 	strmi	r8, [r1, #-3586]	@ 0xfffff1fe
 310:	7904d00e 	stmdbvc	r4, {r1, r2, r3, ip, lr, pc}
 314:	0000100e 	andeq	r1, r0, lr
 318:	00000034 	andeq	r0, r0, r4, lsr r0
 31c:	000000d8 	ldrdeq	r0, [r0], -r8
 320:	00000960 	andeq	r0, r0, r0, ror #18
 324:	000002a8 	andeq	r0, r0, r8, lsr #5
 328:	84240e42 	strthi	r0, [r4], #-3650	@ 0xfffff1be
 32c:	86088509 	strhi	r8, [r8], -r9, lsl #10
 330:	88068707 	stmdahi	r6, {r0, r1, r2, r8, r9, sl, pc}
 334:	8a048905 	bhi	122750 <__ROM_SIZE+0xe2750>
 338:	8e028b03 	vmlahi.f64	d8, d2, d3
 33c:	480e4601 	stmdami	lr, {r0, r9, sl, lr}
 340:	240e0a60 	strcs	r0, [lr], #-2656	@ 0xfffff5a0
 344:	55020b42 	strpl	r0, [r2, #-2882]	@ 0xfffff4be
 348:	42240e0a 	eormi	r0, r4, #10, 28	@ 0xa0
 34c:	0000000b 	andeq	r0, r0, fp
 350:	0000000c 	andeq	r0, r0, ip
 354:	000000d8 	ldrdeq	r0, [r0], -r8
 358:	00000c08 	andeq	r0, r0, r8, lsl #24
 35c:	00000004 	andeq	r0, r0, r4
 360:	0000000c 	andeq	r0, r0, ip
 364:	000000d8 	ldrdeq	r0, [r0], -r8
 368:	00000c0c 	andeq	r0, r0, ip, lsl #24
 36c:	00000004 	andeq	r0, r0, r4
 370:	0000000c 	andeq	r0, r0, ip
 374:	000000d8 	ldrdeq	r0, [r0], -r8
 378:	00000c10 	andeq	r0, r0, r0, lsl ip
 37c:	00000004 	andeq	r0, r0, r4
 380:	00000028 	andeq	r0, r0, r8, lsr #32
 384:	000000d8 	ldrdeq	r0, [r0], -r8
 388:	00000c14 	andeq	r0, r0, r4, lsl ip
 38c:	000002ec 	andeq	r0, r0, ip, ror #5
 390:	84180e42 	ldrhi	r0, [r8], #-3650	@ 0xfffff1be
 394:	86058506 	strhi	r8, [r5], -r6, lsl #10
 398:	88038704 	stmdahi	r3, {r2, r8, r9, sl, pc}
 39c:	43018e02 	movwmi	r8, #7682	@ 0x1e02
 3a0:	5502a80e 	strpl	sl, [r2, #-2062]	@ 0xfffff7f2
 3a4:	42180e0a 	andsmi	r0, r8, #10, 28	@ 0xa0
 3a8:	0000000b 	andeq	r0, r0, fp
 3ac:	0000000c 	andeq	r0, r0, ip
 3b0:	ffffffff 			@ <UNDEFINED> instruction: 0xffffffff
 3b4:	7c020001 	stcvc	0, cr0, [r2], {1}
 3b8:	000d0c0e 	andeq	r0, sp, lr, lsl #24
 3bc:	0000000c 	andeq	r0, r0, ip
 3c0:	000003ac 	andeq	r0, r0, ip, lsr #7
 3c4:	000010ac 	andeq	r1, r0, ip, lsr #1
 3c8:	00000038 	andeq	r0, r0, r8, lsr r0
 3cc:	00000018 	andeq	r0, r0, r8, lsl r0
 3d0:	000003ac 	andeq	r0, r0, ip, lsr #7
 3d4:	000010e4 	andeq	r1, r0, r4, ror #1
 3d8:	0000001a 	andeq	r0, r0, sl, lsl r0
 3dc:	8e040e42 	cdphi	14, 0, cr0, cr4, cr2, {2}
 3e0:	180e4101 	stmdane	lr, {r0, r8, lr}
 3e4:	00040e48 	andeq	r0, r4, r8, asr #28
 3e8:	0000000c 	andeq	r0, r0, ip
 3ec:	000003ac 	andeq	r0, r0, ip, lsr #7
 3f0:	00001100 	andeq	r1, r0, r0, lsl #2
 3f4:	00000002 	andeq	r0, r0, r2
 3f8:	00000028 	andeq	r0, r0, r8, lsr #32
 3fc:	000003ac 	andeq	r0, r0, ip, lsr #7
 400:	00001104 	andeq	r1, r0, r4, lsl #2
 404:	000002fa 	strdeq	r0, [r0], -sl
 408:	841c0e42 	ldrhi	r0, [ip], #-3650	@ 0xfffff1be
 40c:	86068507 	strhi	r8, [r6], -r7, lsl #10
 410:	88048705 	stmdahi	r4, {r0, r2, r8, r9, sl, pc}
 414:	8e028903 	vmlahi.f16	s16, s4, s6	@ <UNPREDICTABLE>
 418:	300e4501 	andcc	r4, lr, r1, lsl #10
 41c:	1c0e0a7d 			@ <UNDEFINED> instruction: 0x1c0e0a7d
 420:	00000b42 	andeq	r0, r0, r2, asr #22
 424:	00000018 	andeq	r0, r0, r8, lsl r0
 428:	000003ac 	andeq	r0, r0, ip, lsr #7
 42c:	00001400 	andeq	r1, r0, r0, lsl #8
 430:	0000002e 	andeq	r0, r0, lr, lsr #32
 434:	8e040e44 	cdphi	14, 0, cr0, cr4, cr4, {2}
 438:	180e4401 	stmdane	lr, {r0, sl, lr}
 43c:	00040e4d 	andeq	r0, r4, sp, asr #28
 440:	00000014 	andeq	r0, r0, r4, lsl r0
 444:	000003ac 	andeq	r0, r0, ip, lsr #7
 448:	00001430 	andeq	r1, r0, r0, lsr r4
 44c:	0000000a 	andeq	r0, r0, sl
 450:	83080e41 	movwhi	r0, #36417	@ 0x8e41
 454:	00018e02 	andeq	r8, r1, r2, lsl #28
 458:	00000014 	andeq	r0, r0, r4, lsl r0
 45c:	000003ac 	andeq	r0, r0, ip, lsr #7
 460:	0000143c 	andeq	r1, r0, ip, lsr r4
 464:	00000012 	andeq	r0, r0, r2, lsl r0
 468:	83080e41 	movwhi	r0, #36417	@ 0x8e41
 46c:	00018e02 	andeq	r8, r1, r2, lsl #28
 470:	00000014 	andeq	r0, r0, r4, lsl r0
 474:	000003ac 	andeq	r0, r0, ip, lsr #7
 478:	00000000 	andeq	r0, r0, r0
 47c:	00000006 	andeq	r0, r0, r6
 480:	83080e41 	movwhi	r0, #36417	@ 0x8e41
 484:	00018e02 	andeq	r8, r1, r2, lsl #28
 488:	00000014 	andeq	r0, r0, r4, lsl r0
 48c:	000003ac 	andeq	r0, r0, ip, lsr #7
 490:	00000000 	andeq	r0, r0, r0
 494:	00000006 	andeq	r0, r0, r6
 498:	83080e41 	movwhi	r0, #36417	@ 0x8e41
 49c:	00018e02 	andeq	r8, r1, r2, lsl #28

Disassembly of section .debug_loclists:

00000000 <.debug_loclists>:
       0:	000017e3 	andeq	r1, r0, r3, ror #15
       4:	00040005 	andeq	r0, r4, r5
	...
      10:	f30ef004 	vhadd.u8	d15, d14, d4
      14:	0450010e 	ldrbeq	r0, [r0], #-270	@ 0xfffffef2
      18:	0ef40ef3 	mrceq	14, 7, r0, cr4, cr3, {7}
      1c:	a503a30a 	strge	sl, [r3, #-778]	@ 0xfffffcf6
      20:	34a82600 	strtcc	r2, [r8], #1536	@ 0x600
      24:	009f00a8 	addseq	r0, pc, r8, lsr #1
      28:	00000000 	andeq	r0, r0, r0
      2c:	f30ef004 	vhadd.u8	d15, d14, d4
      30:	0451010e 	ldrbeq	r0, [r1], #-270	@ 0xfffffef2
      34:	0ef40ef3 	mrceq	14, 7, r0, cr4, cr3, {7}
      38:	a503a30a 	strge	sl, [r3, #-778]	@ 0xfffffcf6
      3c:	2da82601 	stccs	6, cr2, [r8, #4]!
      40:	009f00a8 	addseq	r0, pc, r8, lsr #1
      44:	00000000 	andeq	r0, r0, r0
      48:	f30ef004 	vhadd.u8	d15, d14, d4
      4c:	0452010e 	ldrbeq	r0, [r2], #-270	@ 0xfffffef2
      50:	0ef40ef3 	mrceq	14, 7, r0, cr4, cr3, {7}
      54:	a503a30a 	strge	sl, [r3, #-778]	@ 0xfffffcf6
      58:	2da82602 	stccs	6, cr2, [r8, #8]!
      5c:	009f00a8 	addseq	r0, pc, r8, lsr #1
      60:	00000000 	andeq	r0, r0, r0
      64:	ef0eec04 	svc	0x000eec04
      68:	0450010e 	ldrbeq	r0, [r0], #-270	@ 0xfffffef2
      6c:	0ef00eef 	cdpeq	14, 15, cr0, cr0, cr15, {7}
      70:	a503a30a 	strge	sl, [r3, #-778]	@ 0xfffffcf6
      74:	34a82600 	strtcc	r2, [r8], #1536	@ 0x600
      78:	009f00a8 	addseq	r0, pc, r8, lsr #1
      7c:	00000000 	andeq	r0, r0, r0
      80:	ef0eec04 	svc	0x000eec04
      84:	0451010e 	ldrbeq	r0, [r1], #-270	@ 0xfffffef2
      88:	0ef00eef 	cdpeq	14, 15, cr0, cr0, cr15, {7}
      8c:	a503a30a 	strge	sl, [r3, #-778]	@ 0xfffffcf6
      90:	2da82601 	stccs	6, cr2, [r8, #4]!
      94:	009f00a8 	addseq	r0, pc, r8, lsr #1
      98:	00000000 	andeq	r0, r0, r0
      9c:	ef0eec04 	svc	0x000eec04
      a0:	0452010e 	ldrbeq	r0, [r2], #-270	@ 0xfffffef2
      a4:	0ef00eef 	cdpeq	14, 15, cr0, cr0, cr15, {7}
      a8:	a503a30a 	strge	sl, [r3, #-778]	@ 0xfffffcf6
      ac:	2da82602 	stccs	6, cr2, [r8, #8]!
      b0:	009f00a8 	addseq	r0, pc, r8, lsr #1
      b4:	00000000 	andeq	r0, r0, r0
      b8:	eb0ee804 	bl	3ba0d0 <__ROM_SIZE+0x37a0d0>
      bc:	0450010e 	ldrbeq	r0, [r0], #-270	@ 0xfffffef2
      c0:	0eec0eeb 	cdpeq	14, 14, cr0, cr12, cr11, {7}
      c4:	a503a30a 	strge	sl, [r3, #-778]	@ 0xfffffcf6
      c8:	34a82600 	strtcc	r2, [r8], #1536	@ 0x600
      cc:	009f00a8 	addseq	r0, pc, r8, lsr #1
      d0:	00000000 	andeq	r0, r0, r0
      d4:	eb0ee804 	bl	3ba0ec <__ROM_SIZE+0x37a0ec>
      d8:	0451010e 	ldrbeq	r0, [r1], #-270	@ 0xfffffef2
      dc:	0eec0eeb 	cdpeq	14, 14, cr0, cr12, cr11, {7}
      e0:	a503a30a 	strge	sl, [r3, #-778]	@ 0xfffffcf6
      e4:	2da82601 	stccs	6, cr2, [r8, #4]!
      e8:	009f00a8 	addseq	r0, pc, r8, lsr #1
      ec:	00000000 	andeq	r0, r0, r0
      f0:	eb0ee804 	bl	3ba108 <__ROM_SIZE+0x37a108>
      f4:	0452010e 	ldrbeq	r0, [r2], #-270	@ 0xfffffef2
      f8:	0eec0eeb 	cdpeq	14, 14, cr0, cr12, cr11, {7}
      fc:	a503a30a 	strge	sl, [r3, #-778]	@ 0xfffffcf6
     100:	2da82602 	stccs	6, cr2, [r8, #8]!
     104:	009f00a8 	addseq	r0, pc, r8, lsr #1
	...
     114:	01887804 	orreq	r7, r8, r4, lsl #16
     118:	88045001 	stmdahi	r4, {r0, ip, lr}
     11c:	0a018c01 	beq	63128 <__ROM_SIZE+0x23128>
     120:	00a503a3 	adceq	r0, r5, r3, lsr #7
     124:	a82da826 	stmdage	sp!, {r1, r2, r5, fp, sp, pc}
     128:	8c049f00 	stchi	15, cr9, [r4], {-0}
     12c:	01018e01 	tsteq	r1, r1, lsl #28
     130:	018e0450 	orreq	r0, lr, r0, asr r4
     134:	a30a0190 	movwge	r0, #41360	@ 0xa190
     138:	2600a503 	strcs	sl, [r0], -r3, lsl #10
     13c:	00a82da8 	adceq	r2, r8, r8, lsr #27
     140:	0190049f 			@ <UNDEFINED> instruction: 0x0190049f
     144:	50010192 	mulpl	r1, r2, r1
     148:	a0019204 	andge	r9, r1, r4, lsl #4
     14c:	03a30a01 			@ <UNDEFINED> instruction: 0x03a30a01
     150:	a82600a5 	stmdage	r6!, {r0, r2, r5, r7}
     154:	9f00a82d 	svcls	0x0000a82d
     158:	00000000 	andeq	r0, r0, r0
     15c:	10000400 	andne	r0, r0, r0, lsl #8
     160:	10045001 	andne	r5, r4, r1
     164:	03a30a12 			@ <UNDEFINED> instruction: 0x03a30a12
     168:	a82600a5 	stmdage	r6!, {r0, r2, r5, r7}
     16c:	9f00a82d 	svcls	0x0000a82d
     170:	04000000 	streq	r0, [r0], #-0
     174:	53011202 	movwpl	r1, #4610	@ 0x1202
     178:	01010000 	mrseq	r0, (UNDEF: 1)
     17c:	00000000 	andeq	r0, r0, r0
     180:	01010000 	mrseq	r0, (UNDEF: 1)
	...
     1ac:	0ef40400 	cdpeq	4, 15, cr0, cr4, cr0, {0}
     1b0:	50010fa4 	andpl	r0, r1, r4, lsr #31
     1b4:	ac0fa404 	cfstrsge	mvf10, [pc], {4}
     1b8:	0455010f 	ldrbeq	r0, [r5], #-271	@ 0xfffffef1
     1bc:	0fbc0fac 	svceq	0x00bc0fac
     1c0:	bc045001 	stclt	0, cr5, [r4], {1}
     1c4:	010fdc0f 	tsteq	pc, pc, lsl #24
     1c8:	0fdc0455 	svceq	0x00dc0455
     1cc:	5001108e 	andpl	r1, r1, lr, lsl #1
     1d0:	da108e04 	ble	4239e8 <__ROM_SIZE+0x3e39e8>
     1d4:	04550110 	ldrbeq	r0, [r5], #-272	@ 0xfffffef0
     1d8:	10f210da 	ldrsbtne	r1, [r2], #10
     1dc:	f2045001 	vhadd.s8	d5, d4, d1
     1e0:	0111a810 	tsteq	r1, r0, lsl r8
     1e4:	11a80455 			@ <UNDEFINED> instruction: 0x11a80455
     1e8:	500111b8 			@ <UNDEFINED> instruction: 0x500111b8
     1ec:	f211b804 	vadd.i16	d11, d1, d4
     1f0:	04550111 	ldrbeq	r0, [r5], #-273	@ 0xfffffeef
     1f4:	128011f2 	addne	r1, r0, #-2147483588	@ 0x8000003c
     1f8:	80045001 	andhi	r5, r4, r1
     1fc:	0112b212 	tsteq	r2, r2, lsl r2
     200:	12b20455 	adcsne	r0, r2, #1426063360	@ 0x55000000
     204:	500112b4 			@ <UNDEFINED> instruction: 0x500112b4
     208:	b612b404 	ldrlt	fp, [r2], -r4, lsl #8
     20c:	04550112 	ldrbeq	r0, [r5], #-274	@ 0xfffffeee
     210:	12ce12b6 	sbcne	r1, lr, #1610612747	@ 0x6000000b
     214:	ce045001 	cdpgt	0, 0, cr5, cr4, cr1, {0}
     218:	0113b612 	tsteq	r3, r2, lsl r6
     21c:	13b60455 			@ <UNDEFINED> instruction: 0x13b60455
     220:	500113b8 			@ <UNDEFINED> instruction: 0x500113b8
     224:	e613b804 	ldr	fp, [r3], -r4, lsl #16
     228:	04550113 	ldrbeq	r0, [r5], #-275	@ 0xfffffeed
     22c:	13f013e6 	mvnsne	r1, #-1744830461	@ 0x98000003
     230:	f0045001 			@ <UNDEFINED> instruction: 0xf0045001
     234:	01148a13 	tsteq	r4, r3, lsl sl
     238:	148a0455 	strne	r0, [sl], #1109	@ 0x455
     23c:	50011492 	mulpl	r1, r2, r4
     240:	a8149204 	ldmdage	r4, {r2, r9, ip, pc}
     244:	04550114 	ldrbeq	r0, [r5], #-276	@ 0xfffffeec
     248:	14ac14a8 	strtne	r1, [ip], #1192	@ 0x4a8
     24c:	ac045001 	stcge	0, cr5, [r4], {1}
     250:	0114c014 	tsteq	r4, r4, lsl r0
     254:	14c00455 	strbne	r0, [r0], #1109	@ 0x455
     258:	500114c8 	andpl	r1, r1, r8, asr #9
     25c:	e014c804 	ands	ip, r4, r4, lsl #16
     260:	00550114 	subseq	r0, r5, r4, lsl r1
     264:	00010100 	andeq	r0, r1, r0, lsl #2
     268:	00000000 	andeq	r0, r0, r0
     26c:	00010100 	andeq	r0, r1, r0, lsl #2
	...
     290:	a40ef404 	strge	pc, [lr], #-1028	@ 0xfffffbfc
     294:	0451010f 	ldrbeq	r0, [r1], #-271	@ 0xfffffef1
     298:	0fac0fa4 	svceq	0x00ac0fa4
     29c:	a503a30a 	strge	sl, [r3, #-778]	@ 0xfffffcf6
     2a0:	34a82601 	strtcc	r2, [r8], #1537	@ 0x601
     2a4:	049f00a8 	ldreq	r0, [pc], #168	@ 2ac <__Vectors+0x2ac>
     2a8:	0fb80fac 	svceq	0x00b80fac
     2ac:	b8045101 	stmdalt	r4, {r0, r8, ip, lr}
     2b0:	0a0fdc0f 	beq	3f72f4 <__ROM_SIZE+0x3b72f4>
     2b4:	01a503a3 			@ <UNDEFINED> instruction: 0x01a503a3
     2b8:	a834a826 	ldmdage	r4!, {r1, r2, r5, fp, sp, pc}
     2bc:	dc049f00 	stcle	15, cr9, [r4], {-0}
     2c0:	01108e0f 	tsteq	r0, pc, lsl #28
     2c4:	108e0451 	addne	r0, lr, r1, asr r4
     2c8:	a30a10da 	movwge	r1, #41178	@ 0xa0da
     2cc:	2601a503 	strcs	sl, [r1], -r3, lsl #10
     2d0:	00a834a8 	adceq	r3, r8, r8, lsr #9
     2d4:	10da049f 	smullsne	r0, sl, pc, r4	@ <UNPREDICTABLE>
     2d8:	510110f6 	strdpl	r1, [r1, -r6]
     2dc:	a810f604 	ldmdage	r0, {r2, r9, sl, ip, sp, lr, pc}
     2e0:	03a30a11 			@ <UNDEFINED> instruction: 0x03a30a11
     2e4:	a82601a5 	stmdage	r6!, {r0, r2, r5, r7, r8}
     2e8:	9f00a834 	svcls	0x0000a834
     2ec:	b811a804 	ldmdalt	r1, {r2, fp, sp, pc}
     2f0:	04510111 	ldrbeq	r0, [r1], #-273	@ 0xfffffeef
     2f4:	11f211b8 	ldrhne	r1, [r2, #24]!
     2f8:	a503a30a 	strge	sl, [r3, #-778]	@ 0xfffffcf6
     2fc:	34a82601 	strtcc	r2, [r8], #1537	@ 0x601
     300:	049f00a8 	ldreq	r0, [pc], #168	@ 308 <__Vectors+0x308>
     304:	129111f2 	addsne	r1, r1, #-2147483588	@ 0x8000003c
     308:	91045101 	tstls	r4, r1, lsl #2
     30c:	0a12b212 	beq	4acb5c <__ROM_SIZE+0x46cb5c>
     310:	01a503a3 			@ <UNDEFINED> instruction: 0x01a503a3
     314:	a834a826 	ldmdage	r4!, {r1, r2, r5, fp, sp, pc}
     318:	b2049f00 	andlt	r9, r4, #0, 30
     31c:	0112c012 	tsteq	r2, r2, lsl r0
     320:	12c00451 	sbcne	r0, r0, #1358954496	@ 0x51000000
     324:	a30a13e6 	movwge	r1, #41958	@ 0xa3e6
     328:	2601a503 	strcs	sl, [r1], -r3, lsl #10
     32c:	00a834a8 	adceq	r3, r8, r8, lsr #9
     330:	13e6049f 	mvnne	r0, #-1627389952	@ 0x9f000000
     334:	510113f3 	strdpl	r1, [r1, -r3]
     338:	f613f304 	pldw	[r3], -r4, lsl #6
     33c:	03a30a13 			@ <UNDEFINED> instruction: 0x03a30a13
     340:	a82601a5 	stmdage	r6!, {r0, r2, r5, r7, r8}
     344:	9f00a834 	svcls	0x0000a834
     348:	8313f604 	tsthi	r3, #4, 12	@ 0x400000	@ <UNPREDICTABLE>
     34c:	04510114 	ldrbeq	r0, [r1], #-276	@ 0xfffffeec
     350:	148a1483 	strne	r1, [sl], #1155	@ 0x483
     354:	a503a30a 	strge	sl, [r3, #-778]	@ 0xfffffcf6
     358:	34a82601 	strtcc	r2, [r8], #1537	@ 0x601
     35c:	049f00a8 	ldreq	r0, [pc], #168	@ 364 <__Vectors+0x364>
     360:	148c148a 	strne	r1, [ip], #1162	@ 0x48a
     364:	8c045101 	stfhis	f5, [r4], {1}
     368:	0a14c014 	beq	5303c0 <__ROM_SIZE+0x4f03c0>
     36c:	01a503a3 			@ <UNDEFINED> instruction: 0x01a503a3
     370:	a834a826 	ldmdage	r4!, {r1, r2, r5, fp, sp, pc}
     374:	c0049f00 	andgt	r9, r4, r0, lsl #30
     378:	0114cd14 	tsteq	r4, r4, lsl sp
     37c:	14cd0451 	strbne	r0, [sp], #1105	@ 0x451
     380:	a30a14e0 	movwge	r1, #42208	@ 0xa4e0
     384:	2601a503 	strcs	sl, [r1], -r3, lsl #10
     388:	00a834a8 	adceq	r3, r8, r8, lsr #9
     38c:	0000009f 	muleq	r0, pc, r0	@ <UNPREDICTABLE>
     390:	00010100 	andeq	r0, r1, r0, lsl #2
	...
     3a4:	880ef404 	stmdahi	lr, {r2, sl, ip, sp, lr, pc}
     3a8:	0452010f 	ldrbeq	r0, [r2], #-271	@ 0xfffffef1
     3ac:	0fa40f88 	svceq	0x00a40f88
     3b0:	a4045401 	strge	r5, [r4], #-1025	@ 0xfffffbff
     3b4:	0a0fac0f 	beq	3eb3f8 <__ROM_SIZE+0x3ab3f8>
     3b8:	02a503a3 	adceq	r0, r5, #-1946157054	@ 0x8c000002
     3bc:	a82da826 	stmdage	sp!, {r1, r2, r5, fp, sp, pc}
     3c0:	ac049f00 	stcge	15, cr9, [r4], {-0}
     3c4:	010fe40f 	tsteq	pc, pc, lsl #8
     3c8:	0fe40454 	svceq	0x00e40454
     3cc:	a30a10da 	movwge	r1, #41178	@ 0xa0da
     3d0:	2602a503 	strcs	sl, [r2], -r3, lsl #10
     3d4:	00a82da8 	adceq	r2, r8, r8, lsr #27
     3d8:	10da049f 	smullsne	r0, sl, pc, r4	@ <UNPREDICTABLE>
     3dc:	540110ec 	strpl	r1, [r1], #-236	@ 0xffffff14
     3e0:	a810ec04 	ldmdage	r0, {r2, sl, fp, sp, lr, pc}
     3e4:	03a30a11 			@ <UNDEFINED> instruction: 0x03a30a11
     3e8:	a82602a5 	stmdage	r6!, {r0, r2, r5, r7, r9}
     3ec:	9f00a82d 	svcls	0x0000a82d
     3f0:	f211a804 	vadd.i16	d10, d1, d4
     3f4:	04540111 	ldrbeq	r0, [r4], #-273	@ 0xfffffeef
     3f8:	13e611f2 	mvnne	r1, #-2147483588	@ 0x8000003c
     3fc:	a503a30a 	strge	sl, [r3, #-778]	@ 0xfffffcf6
     400:	2da82602 	stccs	6, cr2, [r8, #8]!
     404:	049f00a8 	ldreq	r0, [pc], #168	@ 40c <BusFault_Handler+0x8>
     408:	13f613e6 	mvnsne	r1, #-1744830461	@ 0x98000003
     40c:	f6045401 			@ <UNDEFINED> instruction: 0xf6045401
     410:	0a14e013 	beq	538464 <__ROM_SIZE+0x4f8464>
     414:	02a503a3 	adceq	r0, r5, #-1946157054	@ 0x8c000002
     418:	a82da826 	stmdage	sp!, {r1, r2, r5, fp, sp, pc}
     41c:	00009f00 	andeq	r9, r0, r0, lsl #30
     420:	00000000 	andeq	r0, r0, r0
     424:	00000303 	andeq	r0, r0, r3, lsl #6
     428:	00000101 	andeq	r0, r0, r1, lsl #2
	...
     448:	04000000 	streq	r0, [r0], #-0
     44c:	0f960ef4 	svceq	0x00960ef4
     450:	96045301 	strls	r5, [r4], -r1, lsl #6
     454:	0a0fac0f 	beq	3eb498 <__ROM_SIZE+0x3ab498>
     458:	03a503a3 			@ <UNDEFINED> instruction: 0x03a503a3
     45c:	a834a826 	ldmdage	r4!, {r1, r2, r5, fp, sp, pc}
     460:	ac049f00 	stcge	15, cr9, [r4], {-0}
     464:	010fbc0f 	tsteq	pc, pc, lsl #24
     468:	0fbc0453 	svceq	0x00bc0453
     46c:	a30a0fdc 	movwge	r0, #45020	@ 0xafdc
     470:	2603a503 	strcs	sl, [r3], -r3, lsl #10
     474:	00a834a8 	adceq	r3, r8, r8, lsr #9
     478:	0fdc049f 	svceq	0x00dc049f
     47c:	5301108e 	movwpl	r1, #4238	@ 0x108e
     480:	da108e04 	ble	423c98 <__ROM_SIZE+0x3e3c98>
     484:	03a30a10 			@ <UNDEFINED> instruction: 0x03a30a10
     488:	a82603a5 	stmdage	r6!, {r0, r2, r5, r7, r8, r9}
     48c:	9f00a834 	svcls	0x0000a834
     490:	e610da04 	ldr	sp, [r0], -r4, lsl #20
     494:	04530110 	ldrbeq	r0, [r3], #-272	@ 0xfffffef0
     498:	11a810e6 			@ <UNDEFINED> instruction: 0x11a810e6
     49c:	a503a30a 	strge	sl, [r3, #-778]	@ 0xfffffcf6
     4a0:	34a82603 	strtcc	r2, [r8], #1539	@ 0x603
     4a4:	049f00a8 	ldreq	r0, [pc], #168	@ 4ac <selfrel_offset31+0xc>
     4a8:	11b211a8 			@ <UNDEFINED> instruction: 0x11b211a8
     4ac:	b2045301 	andlt	r5, r4, #67108864	@ 0x4000000
     4b0:	0a11f211 	beq	47ccfc <__ROM_SIZE+0x43ccfc>
     4b4:	03a503a3 			@ <UNDEFINED> instruction: 0x03a503a3
     4b8:	a834a826 	ldmdage	r4!, {r1, r2, r5, fp, sp, pc}
     4bc:	f2049f00 	vmax.f32	d9, d4, d0
     4c0:	01129111 	tsteq	r2, r1, lsl r1
     4c4:	12910453 	addsne	r0, r1, #1392508928	@ 0x53000000
     4c8:	a30a12b6 	movwge	r1, #41654	@ 0xa2b6
     4cc:	2603a503 	strcs	sl, [r3], -r3, lsl #10
     4d0:	00a834a8 	adceq	r3, r8, r8, lsr #9
     4d4:	12b6049f 	adcsne	r0, r6, #-1627389952	@ 0x9f000000
     4d8:	530112d3 	movwpl	r1, #4819	@ 0x12d3
     4dc:	b612d304 	ldrlt	sp, [r2], -r4, lsl #6
     4e0:	03a30a13 			@ <UNDEFINED> instruction: 0x03a30a13
     4e4:	a82603a5 	stmdage	r6!, {r0, r2, r5, r7, r8, r9}
     4e8:	9f00a834 	svcls	0x0000a834
     4ec:	cb13b604 	blgt	4edd04 <__ROM_SIZE+0x4add04>
     4f0:	04530113 	ldrbeq	r0, [r3], #-275	@ 0xfffffeed
     4f4:	148a13cb 	strne	r1, [sl], #971	@ 0x3cb
     4f8:	a503a30a 	strge	sl, [r3, #-778]	@ 0xfffffcf6
     4fc:	34a82603 	strtcc	r2, [r8], #1539	@ 0x603
     500:	049f00a8 	ldreq	r0, [pc], #168	@ 508 <search_EIT_table+0x54>
     504:	1497148a 	ldrne	r1, [r7], #1162	@ 0x48a
     508:	97045301 	strls	r5, [r4, -r1, lsl #6]
     50c:	0a14a814 	beq	52a564 <__ROM_SIZE+0x4ea564>
     510:	03a503a3 			@ <UNDEFINED> instruction: 0x03a503a3
     514:	a834a826 	ldmdage	r4!, {r1, r2, r5, fp, sp, pc}
     518:	a8049f00 	stmdage	r4, {r8, r9, sl, fp, ip, pc}
     51c:	0114ac14 	tsteq	r4, r4, lsl ip
     520:	14ac0453 	strtne	r0, [ip], #1107	@ 0x453
     524:	a30a14c0 	movwge	r1, #42176	@ 0xa4c0
     528:	2603a503 	strcs	sl, [r3], -r3, lsl #10
     52c:	00a834a8 	adceq	r3, r8, r8, lsr #9
     530:	14c0049f 	strbne	r0, [r0], #1183	@ 0x49f
     534:	530114cd 	movwpl	r1, #5325	@ 0x14cd
     538:	e014cd04 	ands	ip, r4, r4, lsl #26
     53c:	03a30a14 			@ <UNDEFINED> instruction: 0x03a30a14
     540:	a82603a5 	stmdage	r6!, {r0, r2, r5, r7, r8, r9}
     544:	9f00a834 	svcls	0x0000a834
     548:	01010000 	mrseq	r0, (UNDEF: 1)
     54c:	00000000 	andeq	r0, r0, r0
     550:	01010000 	mrseq	r0, (UNDEF: 1)
	...
     57c:	0efa0400 	cdpeq	4, 15, cr0, cr10, cr0, {0}
     580:	50010fa4 	andpl	r0, r1, r4, lsr #31
     584:	ac0fa404 	cfstrsge	mvf10, [pc], {4}
     588:	0455010f 	ldrbeq	r0, [r5], #-271	@ 0xfffffef1
     58c:	0fbc0fac 	svceq	0x00bc0fac
     590:	bc045001 	stclt	0, cr5, [r4], {1}
     594:	010fdc0f 	tsteq	pc, pc, lsl #24
     598:	0fdc0455 	svceq	0x00dc0455
     59c:	5001108e 	andpl	r1, r1, lr, lsl #1
     5a0:	da108e04 	ble	423db8 <__ROM_SIZE+0x3e3db8>
     5a4:	04550110 	ldrbeq	r0, [r5], #-272	@ 0xfffffef0
     5a8:	10f210da 	ldrsbtne	r1, [r2], #10
     5ac:	f2045001 	vhadd.s8	d5, d4, d1
     5b0:	0111a810 	tsteq	r1, r0, lsl r8
     5b4:	11a80455 			@ <UNDEFINED> instruction: 0x11a80455
     5b8:	500111b8 			@ <UNDEFINED> instruction: 0x500111b8
     5bc:	f211b804 	vadd.i16	d11, d1, d4
     5c0:	04550111 	ldrbeq	r0, [r5], #-273	@ 0xfffffeef
     5c4:	128011f2 	addne	r1, r0, #-2147483588	@ 0x8000003c
     5c8:	80045001 	andhi	r5, r4, r1
     5cc:	0112b212 	tsteq	r2, r2, lsl r2
     5d0:	12b20455 	adcsne	r0, r2, #1426063360	@ 0x55000000
     5d4:	500112b4 			@ <UNDEFINED> instruction: 0x500112b4
     5d8:	b612b404 	ldrlt	fp, [r2], -r4, lsl #8
     5dc:	04550112 	ldrbeq	r0, [r5], #-274	@ 0xfffffeee
     5e0:	12ce12b6 	sbcne	r1, lr, #1610612747	@ 0x6000000b
     5e4:	ce045001 	cdpgt	0, 0, cr5, cr4, cr1, {0}
     5e8:	0113b612 	tsteq	r3, r2, lsl r6
     5ec:	13b60455 			@ <UNDEFINED> instruction: 0x13b60455
     5f0:	500113b8 			@ <UNDEFINED> instruction: 0x500113b8
     5f4:	e613b804 	ldr	fp, [r3], -r4, lsl #16
     5f8:	04550113 	ldrbeq	r0, [r5], #-275	@ 0xfffffeed
     5fc:	13f013e6 	mvnsne	r1, #-1744830461	@ 0x98000003
     600:	f0045001 			@ <UNDEFINED> instruction: 0xf0045001
     604:	01148a13 	tsteq	r4, r3, lsl sl
     608:	148a0455 	strne	r0, [sl], #1109	@ 0x455
     60c:	50011492 	mulpl	r1, r2, r4
     610:	a8149204 	ldmdage	r4, {r2, r9, ip, pc}
     614:	04550114 	ldrbeq	r0, [r5], #-276	@ 0xfffffeec
     618:	14ac14a8 	strtne	r1, [ip], #1192	@ 0x4a8
     61c:	ac045001 	stcge	0, cr5, [r4], {1}
     620:	0114c014 	tsteq	r4, r4, lsl r0
     624:	14c00455 	strbne	r0, [r0], #1109	@ 0x455
     628:	500114c8 	andpl	r1, r1, r8, asr #9
     62c:	e014c804 	ands	ip, r4, r4, lsl #16
     630:	00550114 	subseq	r0, r5, r4, lsl r1
     634:	00000001 	andeq	r0, r0, r1
     638:	bc040000 	stclt	0, cr0, [r4], {-0}
     63c:	010fc40f 	tsteq	pc, pc, lsl #8
     640:	0fc40451 	svceq	0x00c40451
     644:	71030fca 	smlabtvc	r3, sl, pc, r0	@ <UNPREDICTABLE>
     648:	ce049f04 	cdpgt	15, 0, cr9, cr4, cr4, {0}
     64c:	010fdc0f 	tsteq	pc, pc, lsl #24
     650:	00000051 	andeq	r0, r0, r1, asr r0
     654:	bc040000 	stclt	0, cr0, [r4], {-0}
     658:	010fd60f 	tsteq	pc, pc, lsl #12
     65c:	0fd60450 	svceq	0x00d60450
     660:	74070fdc 	strvc	r0, [r7], #-4060	@ 0xfffff024
     664:	ffff0a00 			@ <UNDEFINED> instruction: 0xffff0a00
     668:	02009f1a 	andeq	r9, r0, #26, 30	@ 0x68
     66c:	04000303 	streq	r0, [r0], #-771	@ 0xfffffcfd
     670:	0fbc0fbc 	svceq	0x00bc0fbc
     674:	049f3002 	ldreq	r3, [pc], #2	@ 67c <unwind_phase2+0x38>
     678:	0fdc0fbc 	svceq	0x00dc0fbc
     67c:	00005301 	andeq	r5, r0, r1, lsl #6
     680:	00000101 	andeq	r0, r0, r1, lsl #2
     684:	0f960401 	svceq	0x00960401
     688:	53010f9c 	movwpl	r0, #8092	@ 0x1f9c
     68c:	a00f9c04 	andge	r9, pc, r4, lsl #24
     690:	0473030f 	ldrbteq	r0, [r3], #-783	@ 0xfffffcf1
     694:	0fa0049f 	svceq	0x00a0049f
     698:	53010fa4 	movwpl	r0, #8100	@ 0x1fa4
	...
     6a4:	0fe20400 	svceq	0x00e20400
     6a8:	570110da 			@ <UNDEFINED> instruction: 0x570110da
     6ac:	b211f204 	andslt	pc, r1, #4, 4	@ 0x40000000
     6b0:	04570112 	ldrbeq	r0, [r7], #-274	@ 0xfffffeee
     6b4:	13e612b6 	mvnne	r1, #1610612747	@ 0x6000000b
     6b8:	86045701 	strhi	r5, [r4], -r1, lsl #14
     6bc:	0114e014 	tsteq	r4, r4, lsl r0
     6c0:	00000057 	andeq	r0, r0, r7, asr r0
     6c4:	00000000 	andeq	r0, r0, r0
     6c8:	e4040000 	str	r0, [r4], #-0
     6cc:	0e10da0f 	vnmlseq.f32	s26, s0, s30
     6d0:	02a503a3 	adceq	r0, r5, #-1946157054	@ 0x8c000002
     6d4:	a82da826 	stmdage	sp!, {r1, r2, r5, fp, sp, pc}
     6d8:	ffff0a00 			@ <UNDEFINED> instruction: 0xffff0a00
     6dc:	f2049f1a 	vrecps.f32	d9, d4, d10
     6e0:	0e12b211 	mrceq	2, 0, fp, cr2, cr1, {0}
     6e4:	02a503a3 	adceq	r0, r5, #-1946157054	@ 0x8c000002
     6e8:	a82da826 	stmdage	sp!, {r1, r2, r5, fp, sp, pc}
     6ec:	ffff0a00 			@ <UNDEFINED> instruction: 0xffff0a00
     6f0:	b6049f1a 			@ <UNDEFINED> instruction: 0xb6049f1a
     6f4:	0e13e612 	mrceq	6, 0, lr, cr3, cr2, {0}
     6f8:	02a503a3 	adceq	r0, r5, #-1946157054	@ 0x8c000002
     6fc:	a82da826 	stmdage	sp!, {r1, r2, r5, fp, sp, pc}
     700:	ffff0a00 			@ <UNDEFINED> instruction: 0xffff0a00
     704:	86049f1a 			@ <UNDEFINED> instruction: 0x86049f1a
     708:	0e14e014 	mrceq	0, 0, lr, cr4, cr4, {0}
     70c:	02a503a3 	adceq	r0, r5, #-1946157054	@ 0x8c000002
     710:	a82da826 	stmdage	sp!, {r1, r2, r5, fp, sp, pc}
     714:	ffff0a00 			@ <UNDEFINED> instruction: 0xffff0a00
     718:	01009f1a 	tsteq	r0, sl, lsl pc
     71c:	00000102 	andeq	r0, r0, r2, lsl #2
     720:	01010000 	mrseq	r0, (UNDEF: 1)
     724:	02020000 	andeq	r0, r2, #0
     728:	01000000 	mrseq	r0, (UNDEF: 0)
     72c:	00000000 	andeq	r0, r0, r0
     730:	01000202 	tsteq	r0, r2, lsl #4
     734:	10960400 	addsne	r0, r6, r0, lsl #8
     738:	400510aa 	andmi	r1, r5, sl, lsr #1
     73c:	9f1c0077 	svcls	0x001c0077
     740:	a6129e04 	ldrge	r9, [r2], -r4, lsl #28
     744:	03a30e12 			@ <UNDEFINED> instruction: 0x03a30e12
     748:	a82602a5 	stmdage	r6!, {r0, r2, r5, r7, r9}
     74c:	0a00a82d 	beq	2a808 <__RAM_SIZE+0x1a808>
     750:	9f1affff 	svcls	0x001affff
     754:	f412f204 	pldw	[r2], #-516	@ 0xfffffdfc
     758:	04520112 	ldrbeq	r0, [r2], #-274	@ 0xfffffeee
     75c:	12fe12f4 	rscsne	r1, lr, #244, 4	@ 0x4000000f
     760:	00774005 	rsbseq	r4, r7, r5
     764:	fe049f1c 	mcr2	15, 0, r9, cr4, cr12, {0}
     768:	01138212 	tsteq	r3, r2, lsl r2
     76c:	13820452 	orrne	r0, r2, #1375731712	@ 0x52000000
     770:	74031382 	strvc	r1, [r3], #-898	@ 0xfffffc7e
     774:	82049f01 	andhi	r9, r4, #1, 30
     778:	01138413 	tsteq	r3, r3, lsl r4
     77c:	13840454 	orrne	r0, r4, #84, 8	@ 0x54000000
     780:	7403138a 	strvc	r1, [r3], #-906	@ 0xfffffc76
     784:	d2049f7f 	andle	r9, r4, #508	@ 0x1fc
     788:	0e13da13 			@ <UNDEFINED> instruction: 0x0e13da13
     78c:	02a503a3 	adceq	r0, r5, #-1946157054	@ 0x8c000002
     790:	a82da826 	stmdage	sp!, {r1, r2, r5, fp, sp, pc}
     794:	ffff0a00 			@ <UNDEFINED> instruction: 0xffff0a00
     798:	da049f1a 	ble	128408 <__ROM_SIZE+0xe8408>
     79c:	0113e013 	tsteq	r3, r3, lsl r0
     7a0:	13e00454 	mvnne	r0, #84, 8	@ 0x54000000
     7a4:	740313e4 	strvc	r1, [r3], #-996	@ 0xfffffc1c
     7a8:	e4049f01 	str	r9, [r4], #-3841	@ 0xfffff0ff
     7ac:	0113e613 	tsteq	r3, r3, lsl r6
     7b0:	14980454 	ldrne	r0, [r8], #1108	@ 0x454
     7b4:	a30e14a0 	movwge	r1, #58528	@ 0xe4a0
     7b8:	2602a503 	strcs	sl, [r2], -r3, lsl #10
     7bc:	00a82da8 	adceq	r2, r8, r8, lsr #27
     7c0:	1affff0a 	bne	3f0 <Reset_Handler+0x30>
     7c4:	0100009f 	swpeq	r0, pc, [r0]	@ <UNPREDICTABLE>
     7c8:	00010101 	andeq	r0, r1, r1, lsl #2
     7cc:	00000000 	andeq	r0, r0, r0
     7d0:	00010000 	andeq	r0, r1, r0
     7d4:	01000000 	mrseq	r0, (UNDEF: 0)
     7d8:	00000001 	andeq	r0, r0, r1
     7dc:	00010000 	andeq	r0, r1, r0
     7e0:	00010000 	andeq	r0, r1, r0
     7e4:	00000000 	andeq	r0, r0, r0
     7e8:	a0040000 	andge	r0, r4, r0
     7ec:	0110a010 	tsteq	r0, r0, lsl r0
     7f0:	10aa0450 	adcne	r0, sl, r0, asr r4
     7f4:	500110b4 	strhpl	r1, [r1], -r4
     7f8:	b810b404 	ldmdalt	r0, {r2, sl, ip, sp, pc}
     7fc:	04700310 	ldrbteq	r0, [r0], #-784	@ 0xfffffcf0
     800:	10b8049f 	umlalsne	r0, r8, pc, r4	@ <UNPREDICTABLE>
     804:	500110ce 	andpl	r1, r1, lr, asr #1
     808:	d110ce04 	tstle	r0, r4, lsl #28
     80c:	38750210 	ldmdacc	r5!, {r4, r9}^
     810:	a612a004 	ldrge	sl, [r2], -r4
     814:	04510112 	ldrbeq	r0, [r1], #-274	@ 0xfffffeee
     818:	12a812a6 	adcne	r1, r8, #1610612746	@ 0x6000000a
     81c:	9f047103 	svcls	0x00047103
     820:	af12a804 	svcge	0x0012a804
     824:	04510112 	ldrbeq	r0, [r1], #-274	@ 0xfffffeee
     828:	138a12f6 	orrne	r1, sl, #1610612751	@ 0x6000000f
     82c:	8a045101 	bhi	114c38 <__ROM_SIZE+0xd4c38>
     830:	03138e13 	tsteq	r3, #304	@ 0x130
     834:	049f0471 	ldreq	r0, [pc], #1137	@ 83c <_Unwind_DeleteException+0x4>
     838:	1396138e 	orrsne	r1, r6, #939524098	@ 0x38000002
     83c:	96045101 	strls	r5, [r4], -r1, lsl #2
     840:	01139c13 	tsteq	r3, r3, lsl ip
     844:	13b40450 			@ <UNDEFINED> instruction: 0x13b40450
     848:	500113b6 			@ <UNDEFINED> instruction: 0x500113b6
     84c:	d813d404 	ldmdale	r3, {r2, sl, ip, lr, pc}
     850:	04510113 	ldrbeq	r0, [r1], #-275	@ 0xfffffeed
     854:	13e613e4 	mvnne	r1, #228, 6	@ 0x90000003
     858:	86045101 	strhi	r5, [r4], -r1, lsl #2
     85c:	01148a14 	tsteq	r4, r4, lsl sl
     860:	149a0450 	ldrne	r0, [sl], #1104	@ 0x450
     864:	510114a0 	smlatbpl	r1, r0, r4, r1
     868:	e014d004 	ands	sp, r4, r4
     86c:	00510114 	subseq	r0, r1, r4, lsl r1
	...
     87c:	b010aa04 	andslt	sl, r0, r4, lsl #20
     880:	04520110 	ldrbeq	r0, [r2], #-272	@ 0xfffffef0
     884:	10b410b0 	ldrhtne	r1, [r4], r0
     888:	9f047203 	svcls	0x00047203
     88c:	86138204 	ldrhi	r8, [r3], -r4, lsl #4
     890:	04520113 	ldrbeq	r0, [r2], #-275	@ 0xfffffeed
     894:	138a1386 	orrne	r1, sl, #402653186	@ 0x18000002
     898:	9f047203 	svcls	0x00047203
     89c:	b613b404 	ldrlt	fp, [r3], -r4, lsl #8
     8a0:	04520113 	ldrbeq	r0, [r2], #-275	@ 0xfffffeed
     8a4:	13e613e4 	mvnne	r1, #228, 6	@ 0x90000003
     8a8:	06005201 	streq	r5, [r0], -r1, lsl #4
     8ac:	00000101 	andeq	r0, r0, r1, lsl #2
     8b0:	01010000 	mrseq	r0, (UNDEF: 1)
     8b4:	0fe40402 	svceq	0x00e40402
     8b8:	30021080 	andcc	r1, r2, r0, lsl #1
     8bc:	1080049f 	umullne	r0, r0, pc, r4	@ <UNPREDICTABLE>
     8c0:	a30e1084 	movwge	r1, #57476	@ 0xe084
     8c4:	2602a503 	strcs	sl, [r2], -r3, lsl #10
     8c8:	00a82da8 	adceq	r2, r8, r8, lsr #27
     8cc:	1affff0a 	bne	4fc <search_EIT_table+0x48>
     8d0:	11f2049f 			@ <UNDEFINED> instruction: 0x11f2049f
     8d4:	300211fc 	strdcc	r1, [r2], -ip
     8d8:	12b6049f 	adcsne	r0, r6, #-1627389952	@ 0x9f000000
     8dc:	300212be 			@ <UNDEFINED> instruction: 0x300212be
     8e0:	12be049f 	adcsne	r0, lr, #-1627389952	@ 0x9f000000
     8e4:	780312be 	stmdavc	r3, {r1, r2, r3, r4, r5, r7, r9, ip}
     8e8:	02009f70 	andeq	r9, r0, #112, 30	@ 0x1c0
     8ec:	02020000 	andeq	r0, r2, #0
     8f0:	00000000 	andeq	r0, r0, r0
     8f4:	02020000 	andeq	r0, r2, #0
     8f8:	10a00400 	adcne	r0, r0, r0, lsl #8
     8fc:	5c0110a6 	stcpl	0, cr1, [r1], {166}	@ 0xa6
     900:	aa10a604 	bge	42a118 <__ROM_SIZE+0x3ea118>
     904:	017c0310 	cmneq	ip, r0, lsl r3
     908:	10aa049f 	umlalne	r0, sl, pc, r4	@ <UNPREDICTABLE>
     90c:	5c0110ae 	stcpl	0, cr1, [r1], {174}	@ 0xae
     910:	b410ae04 	ldrlt	sl, [r0], #-3588	@ 0xfffff1fc
     914:	7f7c0310 	svcvc	0x007c0310
     918:	13a8049f 			@ <UNDEFINED> instruction: 0x13a8049f
     91c:	5c0113b0 	stcpl	3, cr1, [r1], {176}	@ 0xb0
     920:	b413b004 	ldrlt	fp, [r3], #-4
     924:	017c0313 	cmneq	ip, r3, lsl r3
     928:	13b4049f 			@ <UNDEFINED> instruction: 0x13b4049f
     92c:	5c0113b6 	stcpl	3, cr1, [r1], {182}	@ 0xb6
     930:	01020300 	mrseq	r0, LR_svc
     934:	10a00400 	adcne	r0, r0, r0, lsl #8
     938:	570110aa 	strpl	r1, [r1, -sl, lsr #1]
     93c:	b613a804 	ldrlt	sl, [r3], -r4, lsl #16
     940:	00771513 	rsbseq	r1, r7, r3, lsl r5
     944:	244b4012 	strbcs	r4, [fp], #-18	@ 0xffffffee
     948:	14164022 	ldrne	r4, [r6], #-34	@ 0xffffffde
     94c:	22244b40 	eorcs	r4, r4, #64, 22	@ 0x10000
     950:	0001282b 	andeq	r2, r1, fp, lsr #16
     954:	009f1316 	addseq	r1, pc, r6, lsl r3	@ <UNPREDICTABLE>
     958:	00000002 	andeq	r0, r0, r2
     95c:	da040000 	ble	100964 <__ROM_SIZE+0xc0964>
     960:	0510ec10 	ldreq	lr, [r0, #-3088]	@ 0xfffff3f0
     964:	25400074 	strbcs	r0, [r0, #-116]	@ 0xffffff8c
     968:	10ec049f 	smlalne	r0, ip, pc, r4	@ <UNPREDICTABLE>
     96c:	540111a8 	strpl	r1, [r1], #-424	@ 0xfffffe58
     970:	8613f604 	ldrhi	pc, [r3], -r4, lsl #12
     974:	00540114 	subseq	r0, r4, r4, lsl r1
     978:	01000003 	tsteq	r0, r3
     97c:	00000001 	andeq	r0, r0, r1
     980:	00010000 	andeq	r0, r1, r0
     984:	da040000 	ble	10098c <__ROM_SIZE+0xc098c>
     988:	0710ec10 			@ <UNDEFINED> instruction: 0x0710ec10
     98c:	ff0a0074 			@ <UNDEFINED> instruction: 0xff0a0074
     990:	049f1aff 	ldreq	r1, [pc], #2815	@ 998 <__gnu_unwind_pr_common+0x38>
     994:	118810ec 	orrne	r1, r8, ip, ror #1
     998:	a503a30e 	strge	sl, [r3, #-782]	@ 0xfffffcf2
     99c:	2da82602 	stccs	6, cr2, [r8, #8]!
     9a0:	ff0a00a8 			@ <UNDEFINED> instruction: 0xff0a00a8
     9a4:	049f1aff 	ldreq	r1, [pc], #2815	@ 9ac <__gnu_unwind_pr_common+0x4c>
     9a8:	118a1188 	orrne	r1, sl, r8, lsl #3
     9ac:	8a045101 	bhi	114db8 <__ROM_SIZE+0xd4db8>
     9b0:	01119211 	tsteq	r1, r1, lsl r2
     9b4:	11920453 	orrsne	r0, r2, r3, asr r4
     9b8:	73031196 	movwvc	r1, #12694	@ 0x3196
     9bc:	96049f01 	strls	r9, [r4], -r1, lsl #30
     9c0:	0111a511 	tsteq	r1, r1, lsl r5
     9c4:	13f60453 	mvnsne	r0, #1392508928	@ 0x53000000
     9c8:	a30e1486 	movwge	r1, #58502	@ 0xe486
     9cc:	2602a503 	strcs	sl, [r2], -r3, lsl #10
     9d0:	00a82da8 	adceq	r2, r8, r8, lsr #27
     9d4:	1affff0a 	bne	604 <restore_non_core_regs+0x2c>
     9d8:	0000009f 	muleq	r0, pc, r0	@ <UNPREDICTABLE>
     9dc:	84040100 	strhi	r0, [r4], #-256	@ 0xffffff00
     9e0:	01118e11 	tsteq	r1, r1, lsl lr
     9e4:	118e0457 	orrne	r0, lr, r7, asr r4
     9e8:	7206118e 	andvc	r1, r6, #-2147483613	@ 0x80000023
     9ec:	22007000 	andcs	r7, r0, #0
     9f0:	0100009f 	swpeq	r0, pc, [r0]	@ <UNPREDICTABLE>
     9f4:	00000001 	andeq	r0, r0, r1
     9f8:	8e118804 	cdphi	8, 1, cr8, cr1, cr4, {0}
     9fc:	04520111 	ldrbeq	r0, [r2], #-273	@ 0xfffffeef
     a00:	1196118e 	orrsne	r1, r6, lr, lsl #3
     a04:	9f047203 	svcls	0x00047203
     a08:	9e119604 	cfmsub32ls	mvax0, mvfx9, mvfx1, mvfx4
     a0c:	00520111 	subseq	r0, r2, r1, lsl r1
     a10:	00020201 	andeq	r0, r2, r1, lsl #4
     a14:	00010100 	andeq	r0, r1, r0, lsl #2
     a18:	c811c804 	ldmdagt	r1, {r2, fp, lr, pc}
     a1c:	9f300211 	svcls	0x00300211
     a20:	d211c804 	andsle	ip, r1, #4, 16	@ 0x40000
     a24:	04530111 	ldrbeq	r0, [r3], #-273	@ 0xfffffeef
     a28:	11e011d2 	ldrdne	r1, [r0, #18]!
     a2c:	9f7f7303 	svcls	0x007f7303
     a30:	ef11e004 	svc	0x0011e004
     a34:	00530111 	subseq	r0, r3, r1, lsl r1
	...
     a40:	d611c804 	ldrle	ip, [r1], -r4, lsl #16
     a44:	04510111 	ldrbeq	r0, [r1], #-273	@ 0xfffffeef
     a48:	11da11d6 	ldrsbne	r1, [sl, #22]
     a4c:	9f047103 	svcls	0x00047103
     a50:	e011da04 	ands	sp, r1, r4, lsl #20
     a54:	04520111 	ldrbeq	r0, [r2], #-273	@ 0xfffffeef
     a58:	11ef11e0 	mvnne	r1, r0, ror #3
     a5c:	00005101 	andeq	r5, r0, r1, lsl #2
	...
     a6c:	04000000 	streq	r0, [r0], #-0
     a70:	088407f4 	stmeq	r4, {r2, r4, r5, r6, r7, r8, r9, sl}
     a74:	84045001 	strhi	r5, [r4], #-1
     a78:	0a088608 	beq	2222a0 <__ROM_SIZE+0x1e22a0>
     a7c:	00a503a3 	adceq	r0, r5, r3, lsr #7
     a80:	a82da826 	stmdage	sp!, {r1, r2, r5, fp, sp, pc}
     a84:	86049f00 	strhi	r9, [r4], -r0, lsl #30
     a88:	01088e08 	tsteq	r8, r8, lsl #28
     a8c:	088e0450 	stmeq	lr, {r4, r6, sl}
     a90:	a30a0890 	movwge	r0, #43152	@ 0xa890
     a94:	2600a503 	strcs	sl, [r0], -r3, lsl #10
     a98:	00a82da8 	adceq	r2, r8, r8, lsr #27
     a9c:	0890049f 	ldmeq	r0, {r0, r1, r2, r3, r4, r7, sl}
     aa0:	500108a0 	andpl	r0, r1, r0, lsr #17
     aa4:	a408a004 	strge	sl, [r8], #-4
     aa8:	03a30a08 			@ <UNDEFINED> instruction: 0x03a30a08
     aac:	a82600a5 	stmdage	r6!, {r0, r2, r5, r7}
     ab0:	9f00a82d 	svcls	0x0000a82d
     ab4:	a608a404 	strge	sl, [r8], -r4, lsl #8
     ab8:	04500108 	ldrbeq	r0, [r0], #-264	@ 0xfffffef8
     abc:	08a808a6 	stmiaeq	r8!, {r1, r2, r5, r7, fp}
     ac0:	a503a30a 	strge	sl, [r3, #-778]	@ 0xfffffcf6
     ac4:	2da82600 	stccs	6, cr2, [r8]
     ac8:	009f00a8 	addseq	r0, pc, r8, lsr #1
     acc:	00000000 	andeq	r0, r0, r0
     ad0:	f4040000 	vst4.8	{d0-d3}, [r4], r0
     ad4:	01089c07 	tsteq	r8, r7, lsl #24
     ad8:	089c0452 	ldmeq	ip, {r1, r4, r6, sl}
     adc:	a30a08a4 	movwge	r0, #43172	@ 0xa8a4
     ae0:	2602a503 	strcs	sl, [r2], -r3, lsl #10
     ae4:	00a82da8 	adceq	r2, r8, r8, lsr #27
     ae8:	08a4049f 	stmiaeq	r4!, {r0, r1, r2, r3, r4, r7, sl}
     aec:	520108a8 	andpl	r0, r1, #168, 16	@ 0xa80000
	...
     af8:	04000000 	streq	r0, [r0], #-0
     afc:	088807f4 	stmeq	r8, {r2, r4, r5, r6, r7, r8, r9, sl}
     b00:	88045301 	stmdahi	r4, {r0, r8, r9, ip, lr}
     b04:	0a089008 	beq	224b2c <__ROM_SIZE+0x1e4b2c>
     b08:	03a503a3 			@ <UNDEFINED> instruction: 0x03a503a3
     b0c:	a834a826 	ldmdage	r4!, {r1, r2, r5, fp, sp, pc}
     b10:	90049f00 	andls	r9, r4, r0, lsl #30
     b14:	01089808 	tsteq	r8, r8, lsl #16
     b18:	08980453 	ldmeq	r8, {r0, r1, r4, r6, sl}
     b1c:	a30a08a4 	movwge	r0, #43172	@ 0xa8a4
     b20:	2603a503 	strcs	sl, [r3], -r3, lsl #10
     b24:	00a834a8 	adceq	r3, r8, r8, lsr #9
     b28:	08a4049f 	stmiaeq	r4!, {r0, r1, r2, r3, r4, r7, sl}
     b2c:	530108a8 	movwpl	r0, #6312	@ 0x18a8
     b30:	00000200 	andeq	r0, r0, r0, lsl #4
	...
     b40:	07f40400 	ldrbeq	r0, [r4, r0, lsl #8]!
     b44:	50010884 	andpl	r0, r1, r4, lsl #17
     b48:	86088404 	strhi	r8, [r8], -r4, lsl #8
     b4c:	03a30a08 			@ <UNDEFINED> instruction: 0x03a30a08
     b50:	a82600a5 	stmdage	r6!, {r0, r2, r5, r7}
     b54:	9f00a82d 	svcls	0x0000a82d
     b58:	8e088604 	cfmadd32hi	mvax0, mvfx8, mvfx8, mvfx4
     b5c:	04500108 	ldrbeq	r0, [r0], #-264	@ 0xfffffef8
     b60:	0890088e 	ldmeq	r0, {r1, r2, r3, r7, fp}
     b64:	a503a30a 	strge	sl, [r3, #-778]	@ 0xfffffcf6
     b68:	2da82600 	stccs	6, cr2, [r8]
     b6c:	049f00a8 	ldreq	r0, [pc], #168	@ b74 <__gnu_unwind_pr_common+0x214>
     b70:	08a00890 	stmiaeq	r0!, {r4, r7, fp}
     b74:	a0045001 	andge	r5, r4, r1
     b78:	0a08a408 	beq	229ba0 <__ROM_SIZE+0x1e9ba0>
     b7c:	00a503a3 	adceq	r0, r5, r3, lsr #7
     b80:	a82da826 	stmdage	sp!, {r1, r2, r5, fp, sp, pc}
     b84:	a4049f00 	strge	r9, [r4], #-3840	@ 0xfffff100
     b88:	0108a608 	tsteq	r8, r8, lsl #12
     b8c:	08a60450 	stmiaeq	r6!, {r4, r6, sl}
     b90:	a30a08a8 	movwge	r0, #43176	@ 0xa8a8
     b94:	2600a503 	strcs	sl, [r0], -r3, lsl #10
     b98:	00a82da8 	adceq	r2, r8, r8, lsr #27
     b9c:	0000009f 	muleq	r0, pc, r0	@ <UNPREDICTABLE>
	...
     bac:	a4040000 	strge	r0, [r4], #-0
     bb0:	0107b407 	tsteq	r7, r7, lsl #8
     bb4:	07b40450 	sbfxeq	r0, r0, #8, #21
     bb8:	a30a07b6 	movwge	r0, #42934	@ 0xa7b6
     bbc:	2600a503 	strcs	sl, [r0], -r3, lsl #10
     bc0:	00a82da8 	adceq	r2, r8, r8, lsr #27
     bc4:	07b6049f 			@ <UNDEFINED> instruction: 0x07b6049f
     bc8:	500107bc 			@ <UNDEFINED> instruction: 0x500107bc
     bcc:	c007bc04 	andgt	fp, r7, r4, lsl #24
     bd0:	03a30a07 			@ <UNDEFINED> instruction: 0x03a30a07
     bd4:	a82600a5 	stmdage	r6!, {r0, r2, r5, r7}
     bd8:	9f00a82d 	svcls	0x0000a82d
     bdc:	d007c004 	andle	ip, r7, r4
     be0:	04500107 	ldrbeq	r0, [r0], #-263	@ 0xfffffef9
     be4:	07d407d0 			@ <UNDEFINED> instruction: 0x07d407d0
     be8:	a503a30a 	strge	sl, [r3, #-778]	@ 0xfffffcf6
     bec:	2da82600 	stccs	6, cr2, [r8]
     bf0:	049f00a8 	ldreq	r0, [pc], #168	@ bf8 <__gnu_unwind_pr_common+0x298>
     bf4:	07d607d4 			@ <UNDEFINED> instruction: 0x07d607d4
     bf8:	d6045001 	strle	r5, [r4], -r1
     bfc:	0a07d807 	beq	1f6c20 <__ROM_SIZE+0x1b6c20>
     c00:	00a503a3 	adceq	r0, r5, r3, lsr #7
     c04:	a82da826 	stmdage	sp!, {r1, r2, r5, fp, sp, pc}
     c08:	00009f00 	andeq	r9, r0, r0, lsl #30
	...
     c14:	07a40400 	streq	r0, [r4, r0, lsl #8]!
     c18:	520107ba 	andpl	r0, r1, #48758784	@ 0x2e80000
     c1c:	c007ba04 	andgt	fp, r7, r4, lsl #20
     c20:	03a30a07 			@ <UNDEFINED> instruction: 0x03a30a07
     c24:	a82602a5 	stmdage	r6!, {r0, r2, r5, r7, r9}
     c28:	9f00a82d 	svcls	0x0000a82d
     c2c:	ca07c004 	bgt	1f0c44 <__ROM_SIZE+0x1b0c44>
     c30:	04520107 	ldrbeq	r0, [r2], #-263	@ 0xfffffef9
     c34:	07d407ca 	ldrbeq	r0, [r4, sl, asr #15]
     c38:	a503a30a 	strge	sl, [r3, #-778]	@ 0xfffffcf6
     c3c:	2da82602 	stccs	6, cr2, [r8, #8]!
     c40:	049f00a8 	ldreq	r0, [pc], #168	@ c48 <_Unwind_VRS_Pop+0x34>
     c44:	07d807d4 			@ <UNDEFINED> instruction: 0x07d807d4
     c48:	00005201 	andeq	r5, r0, r1, lsl #4
	...
     c54:	07a40400 	streq	r0, [r4, r0, lsl #8]!
     c58:	530107b8 	movwpl	r0, #6072	@ 0x17b8
     c5c:	c007b804 	andgt	fp, r7, r4, lsl #16
     c60:	03a30a07 			@ <UNDEFINED> instruction: 0x03a30a07
     c64:	a82603a5 	stmdage	r6!, {r0, r2, r5, r7, r8, r9}
     c68:	9f00a834 	svcls	0x0000a834
     c6c:	cc07c004 	stcgt	0, cr12, [r7], {4}
     c70:	04530107 	ldrbeq	r0, [r3], #-263	@ 0xfffffef9
     c74:	07d407cc 	ldrbeq	r0, [r4, ip, asr #15]
     c78:	a503a30a 	strge	sl, [r3, #-778]	@ 0xfffffcf6
     c7c:	34a82603 	strtcc	r2, [r8], #1539	@ 0x603
     c80:	049f00a8 	ldreq	r0, [pc], #168	@ c88 <_Unwind_VRS_Pop+0x74>
     c84:	07d807d4 			@ <UNDEFINED> instruction: 0x07d807d4
     c88:	02005301 	andeq	r5, r0, #67108864	@ 0x4000000
	...
     c98:	04000000 	streq	r0, [r0], #-0
     c9c:	07b407a4 	ldreq	r0, [r4, r4, lsr #15]!
     ca0:	b4045001 	strlt	r5, [r4], #-1
     ca4:	0a07b607 	beq	1ee4c8 <__ROM_SIZE+0x1ae4c8>
     ca8:	00a503a3 	adceq	r0, r5, r3, lsr #7
     cac:	a82da826 	stmdage	sp!, {r1, r2, r5, fp, sp, pc}
     cb0:	b6049f00 	strlt	r9, [r4], -r0, lsl #30
     cb4:	0107bc07 	tsteq	r7, r7, lsl #24
     cb8:	07bc0450 	sbfxeq	r0, r0, #8, #29
     cbc:	a30a07c0 	movwge	r0, #42944	@ 0xa7c0
     cc0:	2600a503 	strcs	sl, [r0], -r3, lsl #10
     cc4:	00a82da8 	adceq	r2, r8, r8, lsr #27
     cc8:	07c0049f 	bfceq	r0, (invalid: 9:0)
     ccc:	500107d0 	ldrdpl	r0, [r1], -r0	@ <UNPREDICTABLE>
     cd0:	d407d004 	strle	sp, [r7], #-4
     cd4:	03a30a07 			@ <UNDEFINED> instruction: 0x03a30a07
     cd8:	a82600a5 	stmdage	r6!, {r0, r2, r5, r7}
     cdc:	9f00a82d 	svcls	0x0000a82d
     ce0:	d607d404 	strle	sp, [r7], -r4, lsl #8
     ce4:	04500107 	ldrbeq	r0, [r0], #-263	@ 0xfffffef9
     ce8:	07d807d6 			@ <UNDEFINED> instruction: 0x07d807d6
     cec:	a503a30a 	strge	sl, [r3, #-778]	@ 0xfffffcf6
     cf0:	2da82600 	stccs	6, cr2, [r8]
     cf4:	009f00a8 	addseq	r0, pc, r8, lsr #1
	...
     d04:	c0040000 	andgt	r0, r4, r0
     d08:	0109d409 	tsteq	r9, r9, lsl #8
     d0c:	09d40450 	ldmibeq	r4, {r4, r6, sl}^
     d10:	5c010a87 			@ <UNDEFINED> instruction: 0x5c010a87
     d14:	940a8704 	strls	r8, [sl], #-1796	@ 0xfffff8fc
     d18:	03a30c0a 			@ <UNDEFINED> instruction: 0x03a30c0a
     d1c:	a82600a5 	stmdage	r6!, {r0, r2, r5, r7}
     d20:	3300a82d 	movwcc	sl, #2093	@ 0x82d
     d24:	94049f1a 	strls	r9, [r4], #-3866	@ 0xfffff0e6
     d28:	010aa60a 	tsteq	sl, sl, lsl #12
     d2c:	0aa6045c 	beq	fe981ea4 <__StackTop+0xde971ea4>
     d30:	a30c0bce 	movwge	r0, #52174	@ 0xcbce
     d34:	2600a503 	strcs	sl, [r0], -r3, lsl #10
     d38:	00a82da8 	adceq	r2, r8, r8, lsr #27
     d3c:	049f1a33 	ldreq	r1, [pc], #2611	@ d44 <_Unwind_VRS_Pop+0x130>
     d40:	0bda0bce 	bleq	ff683c80 <__StackTop+0xdf673c80>
     d44:	da045c01 	ble	117d50 <__ROM_SIZE+0xd7d50>
     d48:	0c0ee80b 	stceq	8, cr14, [lr], {11}
     d4c:	00a503a3 	adceq	r0, r5, r3, lsr #7
     d50:	a82da826 	stmdage	sp!, {r1, r2, r5, fp, sp, pc}
     d54:	9f1a3300 	svcls	0x001a3300
     d58:	00000000 	andeq	r0, r0, r0
     d5c:	09c00400 	stmibeq	r0, {sl}^
     d60:	510109ce 	smlabtpl	r1, lr, r9, r0
     d64:	e809ce04 	stmda	r9, {r2, r9, sl, fp, lr, pc}
     d68:	0055010e 	subseq	r0, r5, lr, lsl #2
	...
     d80:	c0040000 	andgt	r0, r4, r0
     d84:	0109c809 	tsteq	r9, r9, lsl #16
     d88:	09c80452 	stmibeq	r8, {r1, r4, r6, sl}^
     d8c:	56010bbc 			@ <UNDEFINED> instruction: 0x56010bbc
     d90:	c20bbc04 	andgt	fp, fp, #4, 24	@ 0x400
     d94:	03a30a0b 			@ <UNDEFINED> instruction: 0x03a30a0b
     d98:	a82602a5 	stmdage	r6!, {r0, r2, r5, r7, r9}
     d9c:	9f00a82d 	svcls	0x0000a82d
     da0:	bc0bc204 	sfmlt	f4, 1, [fp], {4}
     da4:	0456010d 	ldrbeq	r0, [r6], #-269	@ 0xfffffef3
     da8:	0df60dbc 	ldcleq	13, cr0, [r6, #752]!	@ 0x2f0
     dac:	f6045b01 			@ <UNDEFINED> instruction: 0xf6045b01
     db0:	010e820d 	tsteq	lr, sp, lsl #4
     db4:	0e820456 	mcreq	4, 4, r0, cr2, cr6, {2}
     db8:	a30a0e98 	movwge	r0, #44696	@ 0xae98
     dbc:	2602a503 	strcs	sl, [r2], -r3, lsl #10
     dc0:	00a82da8 	adceq	r2, r8, r8, lsr #27
     dc4:	0e98049f 	mrceq	4, 4, r0, cr8, cr15, {4}
     dc8:	5b010ea2 	blpl	44858 <__ROM_SIZE+0x4858>
     dcc:	d40ea204 	strle	sl, [lr], #-516	@ 0xfffffdfc
     dd0:	0456010e 	ldrbeq	r0, [r6], #-270	@ 0xfffffef2
     dd4:	0ed80ed4 	mrceq	14, 6, r0, cr8, cr4, {6}
     dd8:	a503a30a 	strge	sl, [r3, #-778]	@ 0xfffffcf6
     ddc:	2da82602 	stccs	6, cr2, [r8, #8]!
     de0:	049f00a8 	ldreq	r0, [pc], #168	@ de8 <_Unwind_VRS_Pop+0x1d4>
     de4:	0ee80ed8 	mcreq	14, 7, r0, cr8, cr8, {6}
     de8:	00005601 	andeq	r5, r0, r1, lsl #12
	...
     df8:	04000000 	streq	r0, [r0], #-0
     dfc:	0a8709c0 	beq	fe1c3504 <__StackTop+0xde1b3504>
     e00:	87045301 	strhi	r5, [r4, -r1, lsl #6]
     e04:	0a0a940a 	beq	2a5e34 <__ROM_SIZE+0x265e34>
     e08:	03a503a3 			@ <UNDEFINED> instruction: 0x03a503a3
     e0c:	a82da826 	stmdage	sp!, {r1, r2, r5, fp, sp, pc}
     e10:	94049f00 	strls	r9, [r4], #-3840	@ 0xfffff100
     e14:	010aa60a 	tsteq	sl, sl, lsl #12
     e18:	0aa60453 	beq	fe981f6c <__StackTop+0xde971f6c>
     e1c:	5a010bba 	bpl	43d0c <__ROM_SIZE+0x3d0c>
     e20:	c20bba04 	andgt	fp, fp, #4, 20	@ 0x4000
     e24:	03a30a0b 			@ <UNDEFINED> instruction: 0x03a30a0b
     e28:	a82603a5 	stmdage	r6!, {r0, r2, r5, r7, r8, r9}
     e2c:	9f00a82d 	svcls	0x0000a82d
     e30:	ce0bc204 	cdpgt	2, 0, cr12, cr11, cr4, {0}
     e34:	045a010b 	ldrbeq	r0, [sl], #-267	@ 0xfffffef5
     e38:	0bda0bce 	bleq	ff683d78 <__StackTop+0xdf673d78>
     e3c:	da045301 	ble	115a48 <__ROM_SIZE+0xd5a48>
     e40:	010ee80b 	tsteq	lr, fp, lsl #16
     e44:	0002005a 	andeq	r0, r2, sl, asr r0
	...
     e60:	00010100 	andeq	r0, r1, r0, lsl #2
     e64:	00020200 	andeq	r0, r2, r0, lsl #4
     e68:	fe040000 	cdp2	0, 0, cr0, cr4, cr0, {0}
     e6c:	010a8709 	tsteq	sl, r9, lsl #14
     e70:	0a940452 	beq	fe501fc0 <__StackTop+0xde4f1fc0>
     e74:	52010ab4 	andpl	r0, r1, #180, 20	@ 0xb4000
     e78:	800ab404 	andhi	fp, sl, r4, lsl #8
     e7c:	0459010b 	ldrbeq	r0, [r9], #-267	@ 0xfffffef5
     e80:	0b910b80 	bleq	fe443c88 <__StackTop+0xde433c88>
     e84:	c2045201 	andgt	r5, r4, #268435456	@ 0x10000000
     e88:	010bc60b 	tsteq	fp, fp, lsl #12
     e8c:	0bc60459 	bleq	ff181ff8 <__StackTop+0xdf171ff8>
     e90:	52010bcc 	andpl	r0, r1, #204, 22	@ 0x33000
     e94:	ce0bcc04 	cdpgt	12, 0, cr12, cr11, cr4, {0}
     e98:	0459010b 	ldrbeq	r0, [r9], #-267	@ 0xfffffef5
     e9c:	0c860bda 	vstmiaeq	r6, {d0-<overflow reg d44>}
     ea0:	86045901 	strhi	r5, [r4], -r1, lsl #18
     ea4:	010c880c 	tsteq	ip, ip, lsl #16
     ea8:	0c880452 	cfstrseq	mvf0, [r8], {82}	@ 0x52
     eac:	59010cc6 	stmdbpl	r1, {r1, r2, r6, r7, sl, fp}
     eb0:	c80cc604 	stmdagt	ip, {r2, r9, sl, lr, pc}
     eb4:	0452010c 	ldrbeq	r0, [r2], #-268	@ 0xfffffef4
     eb8:	0cde0cc8 	ldcleq	12, cr0, [lr], {200}	@ 0xc8
     ebc:	de045901 	vmlale.f16	s10, s8, s2	@ <UNPREDICTABLE>
     ec0:	010ce10c 	tsteq	ip, ip, lsl #2
     ec4:	0cf80450 	cfldrdeq	mvd0, [r8], #320	@ 0x140
     ec8:	59010eb2 	stmdbpl	r1, {r1, r4, r5, r7, r9, sl, fp}
     ecc:	ca0eb204 	bgt	3ad6e4 <__ROM_SIZE+0x36d6e4>
     ed0:	0479030e 	ldrbteq	r0, [r9], #-782	@ 0xfffffcf2
     ed4:	0eca049f 	mcreq	4, 6, r0, cr10, cr15, {4}
     ed8:	59010ed8 	stmdbpl	r1, {r3, r4, r6, r7, r9, sl, fp}
     edc:	e00ed804 	and	sp, lr, r4, lsl #16
     ee0:	0178080e 	cmneq	r8, lr, lsl #16
     ee4:	00792432 	rsbseq	r2, r9, r2, lsr r4
     ee8:	e0049f22 	and	r9, r4, r2, lsr #30
     eec:	010ee80e 	tsteq	lr, lr, lsl #16
     ef0:	00000050 	andeq	r0, r0, r0, asr r0
     ef4:	00000000 	andeq	r0, r0, r0
     ef8:	dc0ab004 	stcle	0, cr11, [sl], {4}
     efc:	0454010a 	ldrbeq	r0, [r4], #-266	@ 0xfffffef6
     f00:	0bc60bc2 	bleq	ff183e10 <__StackTop+0xdf173e10>
     f04:	c8045401 	stmdagt	r4, {r0, sl, ip, lr}
     f08:	010bce0b 	tsteq	fp, fp, lsl #28
     f0c:	00000054 	andeq	r0, r0, r4, asr r0
     f10:	00010000 	andeq	r0, r1, r0
     f14:	e40aae04 	str	sl, [sl], #-3588	@ 0xfffff1fc
     f18:	0457010a 	ldrbeq	r0, [r7], #-266	@ 0xfffffef6
     f1c:	0bc60bc2 	bleq	ff183e2c <__StackTop+0xdf173e2c>
     f20:	c6045701 	strgt	r5, [r4], -r1, lsl #14
     f24:	010bce0b 	tsteq	fp, fp, lsl #28
     f28:	00000057 	andeq	r0, r0, r7, asr r0
     f2c:	00000000 	andeq	r0, r0, r0
     f30:	e2040000 	and	r0, r4, #0
     f34:	010c880b 	tsteq	ip, fp, lsl #16
     f38:	0cf80458 	cfldrdeq	mvd0, [r8], #352	@ 0x160
     f3c:	58010df6 	stmdapl	r1, {r1, r2, r4, r5, r6, r7, r8, sl, fp}
     f40:	a40e9804 	strge	r9, [lr], #-2052	@ 0xfffff7fc
     f44:	0458010e 	ldrbeq	r0, [r8], #-270	@ 0xfffffef2
     f48:	0ee80ed8 	mcreq	14, 7, r0, cr8, cr8, {6}
     f4c:	07005801 	streq	r5, [r0, -r1, lsl #16]
     f50:	00000000 	andeq	r0, r0, r0
     f54:	09c00400 	stmibeq	r0, {sl}^
     f58:	30020a80 	andcc	r0, r2, r0, lsl #21
     f5c:	0a94049f 	beq	fe5021e0 <__StackTop+0xde4f21e0>
     f60:	30020aa6 	andcc	r0, r2, r6, lsr #21
     f64:	0bce049f 	bleq	ff3821e8 <__StackTop+0xdf3721e8>
     f68:	30020bda 	ldrdcc	r0, [r2], -sl
     f6c:	0008009f 	muleq	r8, pc, r0	@ <UNPREDICTABLE>
     f70:	01000000 	mrseq	r0, (UNDEF: 0)
	...
     f80:	8c09c004 	stchi	0, cr12, [r9], {4}
     f84:	9f30020a 	svcls	0x0030020a
     f88:	a60a9404 	strge	r9, [sl], -r4, lsl #8
     f8c:	9f30020a 	svcls	0x0030020a
     f90:	800ada04 	andhi	sp, sl, r4, lsl #20
     f94:	0453010b 	ldrbeq	r0, [r3], #-267	@ 0xfffffef5
     f98:	0bda0bce 	bleq	ff683ed8 <__StackTop+0xdf673ed8>
     f9c:	049f3002 	ldreq	r3, [pc], #2	@ fa4 <__gnu_Unwind_Save_WMMXD+0x18>
     fa0:	0bec0bda 	bleq	ffb03f10 <__StackTop+0xdfaf3f10>
     fa4:	88045301 	stmdahi	r4, {r0, r8, r9, ip, lr}
     fa8:	010c940c 	tsteq	ip, ip, lsl #8
     fac:	0cc80453 	cfstrdeq	mvd0, [r8], {83}	@ 0x53
     fb0:	53010ccf 	movwpl	r0, #7375	@ 0x1ccf
     fb4:	ff0cf804 			@ <UNDEFINED> instruction: 0xff0cf804
     fb8:	0453010c 	ldrbeq	r0, [r3], #-268	@ 0xfffffef4
     fbc:	0ea90ea4 	cdpeq	14, 10, cr0, cr9, cr4, {5}
     fc0:	00005301 	andeq	r5, r0, r1, lsl #6
	...
     fcc:	04000000 	streq	r0, [r0], #-0
     fd0:	0a8209ca 	beq	fe083700 <__StackTop+0xde073700>
     fd4:	38007008 	stmdacc	r0, {r3, ip, sp, lr}
     fd8:	1aff081a 	bne	fffc3048 <__StackTop+0xdffb3048>
     fdc:	0a82049f 	beq	fe082260 <__StackTop+0xde072260>
     fe0:	a30f0a94 	movwge	r0, #64148	@ 0xfa94
     fe4:	2600a503 	strcs	sl, [r0], -r3, lsl #10
     fe8:	00a834a8 	adceq	r3, r8, r8, lsr #9
     fec:	ff081a38 			@ <UNDEFINED> instruction: 0xff081a38
     ff0:	94049f1a 	strls	r9, [r4], #-3866	@ 0xfffff0e6
     ff4:	080aa60a 	stmdaeq	sl, {r1, r3, r9, sl, sp, pc}
     ff8:	1a380070 	bne	e011c0 <__ROM_SIZE+0xdc11c0>
     ffc:	9f1aff08 	svcls	0x001aff08
    1000:	ce0aa604 	cfmadd32gt	mvax0, mvfx10, mvfx10, mvfx4
    1004:	03a30f0b 			@ <UNDEFINED> instruction: 0x03a30f0b
    1008:	a82600a5 	stmdage	r6!, {r0, r2, r5, r7}
    100c:	3800a834 	stmdacc	r0, {r2, r4, r5, fp, sp, pc}
    1010:	1aff081a 	bne	fffc3080 <__StackTop+0xdffb3080>
    1014:	0bce049f 	bleq	ff382298 <__StackTop+0xdf372298>
    1018:	70080bda 	ldrdvc	r0, [r8], -sl
    101c:	081a3800 	ldmdaeq	sl, {fp, ip, sp}
    1020:	049f1aff 	ldreq	r1, [pc], #2815	@ 1028 <_Unwind_Resume+0xc>
    1024:	0ee80bda 			@ <UNDEFINED> instruction: 0x0ee80bda
    1028:	a503a30f 	strge	sl, [r3, #-783]	@ 0xfffffcf1
    102c:	34a82600 	strtcc	r2, [r8], #1536	@ 0x600
    1030:	1a3800a8 	bne	e012d8 <__ROM_SIZE+0xdc12d8>
    1034:	9f1aff08 	svcls	0x001aff08
    1038:	00010000 	andeq	r0, r1, r0
	...
    1048:	04000000 	streq	r0, [r0], #-0
    104c:	0b800ac6 	bleq	fe003b6c <__StackTop+0xddff3b6c>
    1050:	c2045001 	andgt	r5, r4, #1
    1054:	010bc60b 	tsteq	fp, fp, lsl #12
    1058:	0bda0450 	bleq	ff6821a0 <__StackTop+0xdf6721a0>
    105c:	50010bf6 	strdpl	r0, [r1], -r6
    1060:	b00c8804 	andlt	r8, ip, r4, lsl #16
    1064:	0450010c 	ldrbeq	r0, [r0], #-268	@ 0xfffffef4
    1068:	0ccc0cc8 	stcleq	12, cr0, [ip], {200}	@ 0xc8
    106c:	f8045001 			@ <UNDEFINED> instruction: 0xf8045001
    1070:	010cfc0c 	tsteq	ip, ip, lsl #24	@ <UNPREDICTABLE>
    1074:	0daa0450 	cfstrseq	mvf0, [sl, #320]!	@ 0x140
    1078:	50010dbe 			@ <UNDEFINED> instruction: 0x50010dbe
    107c:	a60ea404 	strge	sl, [lr], -r4, lsl #8
    1080:	0450010e 	ldrbeq	r0, [r0], #-270	@ 0xfffffef2
    1084:	0ecc0eca 	cdpeq	14, 12, cr0, cr12, cr10, {6}
    1088:	00005001 	andeq	r5, r0, r1
    108c:	00000001 	andeq	r0, r0, r1
    1090:	00000000 	andeq	r0, r0, r0
    1094:	04000000 	streq	r0, [r0], #-0
    1098:	0b800ac2 	bleq	fe003ba8 <__StackTop+0xddff3ba8>
    109c:	c2045801 	andgt	r5, r4, #65536	@ 0x10000
    10a0:	010bc60b 	tsteq	fp, fp, lsl #12
    10a4:	0bda0458 	bleq	ff68220c <__StackTop+0xdf67220c>
    10a8:	58010be2 	stmdapl	r1, {r1, r5, r6, r7, r8, r9, fp}
    10ac:	de0c8804 	cdple	8, 0, cr8, cr12, cr4, {0}
    10b0:	0458010c 	ldrbeq	r0, [r8], #-268	@ 0xfffffef4
    10b4:	0e980df6 	mrceq	13, 4, r0, cr8, cr6, {7}
    10b8:	a4045801 	strge	r5, [r4], #-2049	@ 0xfffff7ff
    10bc:	010ed80e 	tsteq	lr, lr, lsl #16
    10c0:	00000058 	andeq	r0, r0, r8, asr r0
    10c4:	b2040000 	andlt	r0, r4, #0
    10c8:	010eb40e 	tsteq	lr, lr, lsl #8
    10cc:	0eb40450 	mrceq	4, 5, r0, cr4, cr0, {2}
    10d0:	54010eca 	strpl	r0, [r1], #-3786	@ 0xfffff136
    10d4:	00000000 	andeq	r0, r0, r0
    10d8:	0cb80400 	cfldrseq	mvf0, [r8]
    10dc:	50010cba 			@ <UNDEFINED> instruction: 0x50010cba
    10e0:	bd0cba04 	vstrlt	s22, [ip, #-16]
    10e4:	0051010c 	subseq	r0, r1, ip, lsl #2
    10e8:	00000000 	andeq	r0, r0, r0
    10ec:	bd0c9e04 	stclt	14, cr9, [ip, #-16]
    10f0:	0452010c 	ldrbeq	r0, [r2], #-268	@ 0xfffffef4
    10f4:	0ed10eca 	cdpeq	14, 13, cr0, cr1, cr10, {6}
    10f8:	00005201 	andeq	r5, r0, r1, lsl #4
    10fc:	04000000 	streq	r0, [r0], #-0
    1100:	0cc20cbe 	stcleq	12, cr0, [r2], {190}	@ 0xbe
    1104:	f6045001 			@ <UNDEFINED> instruction: 0xf6045001
    1108:	010dfc0d 	tsteq	sp, sp, lsl #24	@ <UNPREDICTABLE>
    110c:	00000050 	andeq	r0, r0, r0, asr r0
    1110:	e6040000 	str	r0, [r4], -r0
    1114:	010ce80c 	tsteq	ip, ip, lsl #16
    1118:	0ce80450 	cfstrdeq	mvd0, [r8], #320	@ 0x140
    111c:	52010ceb 	andpl	r0, r1, #60160	@ 0xeb00
    1120:	01000000 	mrseq	r0, (UNDEF: 0)
    1124:	00000000 	andeq	r0, r0, r0
    1128:	0dbe0400 	cfldrseq	mvf0, [lr]
    112c:	74030dd6 	strvc	r0, [r3], #-3542	@ 0xfffff22a
    1130:	d6049f7f 			@ <UNDEFINED> instruction: 0xd6049f7f
    1134:	010ddc0d 	tsteq	sp, sp, lsl #24
    1138:	0ddc0454 	cfldrdeq	mvd0, [ip, #336]	@ 0x150
    113c:	74030df6 	strvc	r0, [r3], #-3574	@ 0xfffff20a
    1140:	98049f7f 	stmdals	r4, {r0, r1, r2, r3, r4, r5, r6, r8, r9, sl, fp, ip, pc}
    1144:	030e9e0e 	movweq	r9, #60942	@ 0xee0e
    1148:	009f7f74 	addseq	r7, pc, r4, ror pc	@ <UNPREDICTABLE>
    114c:	00000000 	andeq	r0, r0, r0
    1150:	ce0dca04 	vmlagt.f32	s24, s26, s8
    1154:	0450010d 	ldrbeq	r0, [r0], #-269	@ 0xfffffef3
    1158:	0dd10dce 	ldcleq	13, cr0, [r1, #824]	@ 0x338
    115c:	00005101 	andeq	r5, r0, r1, lsl #2
    1160:	04000000 	streq	r0, [r0], #-0
    1164:	08de08c0 	ldmeq	lr, {r6, r7, fp}^
    1168:	de045001 	cdple	0, 0, cr5, cr4, cr1, {0}
    116c:	0109c008 	tsteq	r9, r8
    1170:	00000055 	andeq	r0, r0, r5, asr r0
    1174:	c0040000 	andgt	r0, r4, r0
    1178:	0108de08 	tsteq	r8, r8, lsl #28
    117c:	08de0451 	ldmeq	lr, {r0, r4, r6, sl}^
    1180:	540109c0 	strpl	r0, [r1], #-2496	@ 0xfffff640
	...
    118c:	04000000 	streq	r0, [r0], #-0
    1190:	08de08c0 	ldmeq	lr, {r6, r7, fp}^
    1194:	de045201 	cdple	2, 0, cr5, cr4, cr1, {0}
    1198:	0308e608 	movweq	lr, #34312	@ 0x8608
    119c:	049f6c7c 	ldreq	r6, [pc], #3196	@ 11a4 <__gnu_unwind_execute+0xa0>
    11a0:	08ee08e6 	stmiaeq	lr!, {r1, r2, r5, r6, r7, fp}^
    11a4:	9f5c7c03 	svcls	0x005c7c03
    11a8:	fe08ee04 	cdp2	14, 0, cr14, cr8, cr4, {0}
    11ac:	4c7c0308 	ldclmi	3, cr0, [ip], #-32	@ 0xffffffe0
    11b0:	08fe049f 	ldmeq	lr!, {r0, r1, r2, r3, r4, r7, sl}^
    11b4:	a30a09c0 	movwge	r0, #43456	@ 0xa9c0
    11b8:	2602a503 	strcs	sl, [r2], -r3, lsl #10
    11bc:	00a82da8 	adceq	r2, r8, r8, lsr #27
    11c0:	0000009f 	muleq	r0, pc, r0	@ <UNPREDICTABLE>
    11c4:	9e040000 	cdpls	0, 0, cr0, cr4, cr0, {0}
    11c8:	0109a409 	tsteq	r9, r9, lsl #8
    11cc:	09b20450 	ldmibeq	r2!, {r4, r6, sl}
    11d0:	560109c0 	strpl	r0, [r1], -r0, asr #19
    11d4:	00000000 	andeq	r0, r0, r0
    11d8:	08cc0400 	stmiaeq	ip, {sl}^
    11dc:	5d0109be 	vstrpl.16	s0, [r1, #-380]	@ 0xfffffe84	@ <UNPREDICTABLE>
    11e0:	c009be04 	andgt	fp, r9, r4, lsl #28
    11e4:	b0910409 	addslt	r0, r1, r9, lsl #8
    11e8:	00009f7b 	andeq	r9, r0, fp, ror pc
    11ec:	00000000 	andeq	r0, r0, r0
    11f0:	04000000 	streq	r0, [r0], #-0
    11f4:	07a00798 			@ <UNDEFINED> instruction: 0x07a00798
    11f8:	a0045001 	andge	r5, r4, r1
    11fc:	0107a107 	tsteq	r7, r7, lsl #2
    1200:	07a10451 	sbfxeq	r0, r1, #8, #2
    1204:	a30a07a2 	movwge	r0, #42914	@ 0xa7a2
    1208:	2600a503 	strcs	sl, [r0], -r3, lsl #10
    120c:	00a82da8 	adceq	r2, r8, r8, lsr #27
    1210:	07a2049f 			@ <UNDEFINED> instruction: 0x07a2049f
    1214:	500107a4 	andpl	r0, r1, r4, lsr #15
	...
    1220:	07800400 	streq	r0, [r0, r0, lsl #8]
    1224:	5001078f 	andpl	r0, r1, pc, lsl #15
    1228:	90078f04 	andls	r8, r7, r4, lsl #30
    122c:	03a30a07 			@ <UNDEFINED> instruction: 0x03a30a07
    1230:	a82600a5 	stmdage	r6!, {r0, r2, r5, r7}
    1234:	9f00a82d 	svcls	0x0000a82d
    1238:	91079004 	tstls	r7, r4
    123c:	04500107 	ldrbeq	r0, [r0], #-263	@ 0xfffffef9
    1240:	07920791 			@ <UNDEFINED> instruction: 0x07920791
    1244:	a503a30a 	strge	sl, [r3, #-778]	@ 0xfffffcf6
    1248:	2da82600 	stccs	6, cr2, [r8]
    124c:	009f00a8 	addseq	r0, pc, r8, lsr #1
	...
    1258:	8f078004 	svchi	0x00078004
    125c:	04510107 	ldrbeq	r0, [r1], #-263	@ 0xfffffef9
    1260:	0790078f 	ldreq	r0, [r0, pc, lsl #15]
    1264:	a503a30a 	strge	sl, [r3, #-778]	@ 0xfffffcf6
    1268:	2da82601 	stccs	6, cr2, [r8, #4]!
    126c:	049f00a8 	ldreq	r0, [pc], #168	@ 1274 <__gnu_unwind_execute+0x170>
    1270:	07910790 			@ <UNDEFINED> instruction: 0x07910790
    1274:	91045101 	tstls	r4, r1, lsl #2
    1278:	0a079207 	beq	1e5a9c <__ROM_SIZE+0x1a5a9c>
    127c:	01a503a3 			@ <UNDEFINED> instruction: 0x01a503a3
    1280:	a82da826 	stmdage	sp!, {r1, r2, r5, fp, sp, pc}
    1284:	00009f00 	andeq	r9, r0, r0, lsl #30
	...
    1290:	04000000 	streq	r0, [r0], #-0
    1294:	06d606c0 	ldrbeq	r0, [r6], r0, asr #13
    1298:	d6045001 	strle	r5, [r4], -r1
    129c:	0106d706 	tsteq	r6, r6, lsl #14
    12a0:	06d70451 			@ <UNDEFINED> instruction: 0x06d70451
    12a4:	540106f6 	strpl	r0, [r1], #-1782	@ 0xfffff90a
    12a8:	fb06f604 	blx	1beac2 <__ROM_SIZE+0x17eac2>
    12ac:	04500106 	ldrbeq	r0, [r0], #-262	@ 0xfffffefa
    12b0:	06fe06fb 			@ <UNDEFINED> instruction: 0x06fe06fb
    12b4:	a503a30a 	strge	sl, [r3, #-778]	@ 0xfffffcf6
    12b8:	2da82600 	stccs	6, cr2, [r8]
    12bc:	049f00a8 	ldreq	r0, [pc], #168	@ 12c4 <__gnu_unwind_execute+0x1c0>
    12c0:	078006fe 			@ <UNDEFINED> instruction: 0x078006fe
    12c4:	00005401 	andeq	r5, r0, r1, lsl #8
	...
    12d0:	04000000 	streq	r0, [r0], #-0
    12d4:	06d406c0 	ldrbeq	r0, [r4], r0, asr #13
    12d8:	d4045101 	strle	r5, [r4], #-257	@ 0xfffffeff
    12dc:	0106d706 	tsteq	r6, r6, lsl #14
    12e0:	06d70452 			@ <UNDEFINED> instruction: 0x06d70452
    12e4:	550106f6 	strpl	r0, [r1, #-1782]	@ 0xfffff90a
    12e8:	fb06f604 	blx	1beb02 <__ROM_SIZE+0x17eb02>
    12ec:	04510106 	ldrbeq	r0, [r1], #-262	@ 0xfffffefa
    12f0:	06fe06fb 			@ <UNDEFINED> instruction: 0x06fe06fb
    12f4:	a503a30a 	strge	sl, [r3, #-778]	@ 0xfffffcf6
    12f8:	2da82601 	stccs	6, cr2, [r8, #4]!
    12fc:	049f00a8 	ldreq	r0, [pc], #168	@ 1304 <__gnu_unwind_execute+0x200>
    1300:	078006fe 			@ <UNDEFINED> instruction: 0x078006fe
    1304:	00005501 	andeq	r5, r0, r1, lsl #10
    1308:	00000000 	andeq	r0, r0, r0
    130c:	06d80400 	ldrbeq	r0, [r8], r0, lsl #8
    1310:	500106e4 	andpl	r0, r1, r4, ror #13
    1314:	ea06e804 	b	1bb32c <__ROM_SIZE+0x17b32c>
    1318:	04500106 	ldrbeq	r0, [r0], #-262	@ 0xfffffefa
    131c:	078006fe 			@ <UNDEFINED> instruction: 0x078006fe
    1320:	02005001 	andeq	r5, r0, #1
    1324:	04000000 	streq	r0, [r0], #-0
    1328:	06ef06e8 	strbteq	r0, [pc], r8, ror #13
    132c:	00c07503 	sbceq	r7, r0, r3, lsl #10
    1330:	f506ef04 			@ <UNDEFINED> instruction: 0xf506ef04
    1334:	00510106 	subseq	r0, r1, r6, lsl #2
    1338:	00000000 	andeq	r0, r0, r0
    133c:	bf06ac04 	svclt	0x0006ac04
    1340:	04500106 	ldrbeq	r0, [r0], #-262	@ 0xfffffefa
    1344:	06c006bf 			@ <UNDEFINED> instruction: 0x06c006bf
    1348:	a503a30a 	strge	sl, [r3, #-778]	@ 0xfffffcf6
    134c:	2da82600 	stccs	6, cr2, [r8]
    1350:	009f00a8 	addseq	r0, pc, r8, lsr #1
    1354:	00000000 	andeq	r0, r0, r0
    1358:	ac040000 	stcge	0, cr0, [r4], {-0}
    135c:	0106bc06 	tsteq	r6, r6, lsl #24
    1360:	06bc0451 	ssateq	r0, #29, r1, asr #8
    1364:	700206bf 			@ <UNDEFINED> instruction: 0x700206bf
    1368:	06bf040c 	ldrteq	r0, [pc], ip, lsl #8
    136c:	a30a06c0 	movwge	r0, #42688	@ 0xa6c0
    1370:	2601a503 	strcs	sl, [r1], -r3, lsl #10
    1374:	00a82da8 	adceq	r2, r8, r8, lsr #27
    1378:	0000009f 	muleq	r0, pc, r0	@ <UNPREDICTABLE>
    137c:	00000000 	andeq	r0, r0, r0
    1380:	b806ac04 	stmdalt	r6, {r2, sl, fp, sp, pc}
    1384:	04520106 	ldrbeq	r0, [r2], #-262	@ 0xfffffefa
    1388:	06bf06b8 			@ <UNDEFINED> instruction: 0x06bf06b8
    138c:	04187002 	ldreq	r7, [r8], #-2
    1390:	06c006bf 			@ <UNDEFINED> instruction: 0x06c006bf
    1394:	a503a30a 	strge	sl, [r3, #-778]	@ 0xfffffcf6
    1398:	2da82602 	stccs	6, cr2, [r8, #8]!
    139c:	009f00a8 	addseq	r0, pc, r8, lsr #1
    13a0:	00000000 	andeq	r0, r0, r0
    13a4:	bf06ac04 	svclt	0x0006ac04
    13a8:	04530106 	ldrbeq	r0, [r3], #-262	@ 0xfffffefa
    13ac:	06c006bf 			@ <UNDEFINED> instruction: 0x06c006bf
    13b0:	a503a30a 	strge	sl, [r3, #-778]	@ 0xfffffcf6
    13b4:	2da82603 	stccs	6, cr2, [r8, #12]!
    13b8:	009f00a8 	addseq	r0, pc, r8, lsr #1
    13bc:	00000000 	andeq	r0, r0, r0
    13c0:	de05c404 	cdple	4, 0, cr12, cr5, cr4, {0}
    13c4:	04500105 	ldrbeq	r0, [r0], #-261	@ 0xfffffefb
    13c8:	06aa05de 	ssateq	r0, #11, lr, asr #11
    13cc:	00005501 	andeq	r5, r0, r1, lsl #10
    13d0:	04000000 	streq	r0, [r0], #-0
    13d4:	05de05c4 	ldrbeq	r0, [lr, #1476]	@ 0x5c4
    13d8:	de045101 	adfles	f5, f4, f1
    13dc:	0106aa05 	tsteq	r6, r5, lsl #20
    13e0:	00000056 	andeq	r0, r0, r6, asr r0
    13e4:	84040000 	strhi	r0, [r4], #-0
    13e8:	01068606 	tsteq	r6, r6, lsl #12
    13ec:	06980450 			@ <UNDEFINED> instruction: 0x06980450
    13f0:	5001069a 	mulpl	r1, sl, r6
    13f4:	00000000 	andeq	r0, r0, r0
    13f8:	05c00400 	strbeq	r0, [r0, #1024]	@ 0x400
    13fc:	500105c2 	andpl	r0, r1, r2, asr #11
    1400:	c405c204 	strgt	ip, [r5], #-516	@ 0xfffffdfc
    1404:	03a30a05 			@ <UNDEFINED> instruction: 0x03a30a05
    1408:	a82600a5 	stmdage	r6!, {r0, r2, r5, r7}
    140c:	9f00a82d 	svcls	0x0000a82d
    1410:	00000000 	andeq	r0, r0, r0
    1414:	03e00400 	mvneq	r0, #0, 8
    1418:	50010482 	andpl	r0, r1, r2, lsl #9
    141c:	c0048204 	andgt	r8, r4, r4, lsl #4
    1420:	00560105 	subseq	r0, r6, r5, lsl #2
	...
    142c:	e0040000 	and	r0, r4, r0
    1430:	01048203 	tsteq	r4, r3, lsl #4
    1434:	04820451 	streq	r0, [r2], #1105	@ 0x451
    1438:	7c03048a 	cfstrsvc	mvf0, [r3], {138}	@ 0x8a
    143c:	8a049f6c 	bhi	1291f4 <__ROM_SIZE+0xe91f4>
    1440:	03049204 	movweq	r9, #16900	@ 0x4204
    1444:	049f5c7c 	ldreq	r5, [pc], #3196	@ 144c <_Unwind_GetLanguageSpecificData+0x10>
    1448:	04a60492 	strteq	r0, [r6], #1170	@ 0x492
    144c:	9f4c7c03 	svcls	0x004c7c03
    1450:	c004a604 	andgt	sl, r4, r4, lsl #12
    1454:	03a30a05 			@ <UNDEFINED> instruction: 0x03a30a05
    1458:	a82601a5 	stmdage	r6!, {r0, r2, r5, r7, r8}
    145c:	9f00a82d 	svcls	0x0000a82d
	...
    1468:	04000000 	streq	r0, [r0], #-0
    146c:	048203e0 	streq	r0, [r2], #992	@ 0x3e0
    1470:	82045201 	andhi	r5, r4, #268435456	@ 0x10000000
    1474:	0104a604 	tsteq	r4, r4, lsl #12
    1478:	04a60454 	strteq	r0, [r6], #1108	@ 0x454
    147c:	300204ea 	andcc	r0, r2, sl, ror #9
    1480:	04ea049f 	strbteq	r0, [sl], #1183	@ 0x49f
    1484:	540104fa 	strpl	r0, [r1], #-1274	@ 0xfffffb06
    1488:	c004fa04 	andgt	pc, r4, r4, lsl #20
    148c:	9f300205 	svcls	0x00300205
    1490:	04000000 	streq	r0, [r0], #-0
    1494:	05c003f6 	strbeq	r0, [r0, #1014]	@ 0x3f6
    1498:	00005701 	andeq	r5, r0, r1, lsl #14
    149c:	03fa0400 	mvnseq	r0, #0, 8
    14a0:	580105c0 	stmdapl	r1, {r6, r7, r8, sl}
    14a4:	00000100 	andeq	r0, r0, r0, lsl #2
    14a8:	00000000 	andeq	r0, r0, r0
    14ac:	03fa0400 	mvnseq	r0, #0, 8
    14b0:	300204a6 	andcc	r0, r2, r6, lsr #9
    14b4:	04d2049f 	ldrbeq	r0, [r2], #1183	@ 0x49f
    14b8:	5a0104ea 	bpl	42868 <__ROM_SIZE+0x2868>
    14bc:	a605a004 	strge	sl, [r5], -r4
    14c0:	045a0105 	ldrbeq	r0, [sl], #-261	@ 0xfffffefb
    14c4:	05c005b2 	strbeq	r0, [r0, #1458]	@ 0x5b2
    14c8:	00005a01 	andeq	r5, r0, r1, lsl #20
    14cc:	00000000 	andeq	r0, r0, r0
    14d0:	00000101 	andeq	r0, r0, r1, lsl #2
    14d4:	04000000 	streq	r0, [r0], #-0
    14d8:	04c404a6 	strbeq	r0, [r4], #1190	@ 0x4a6
    14dc:	c4045a01 	strgt	r5, [r4], #-2561	@ 0xfffff5ff
    14e0:	0104ea04 	tsteq	r4, r4, lsl #20
    14e4:	04fa0459 	ldrbteq	r0, [sl], #1113	@ 0x459
    14e8:	5a010580 	bpl	42af0 <__ROM_SIZE+0x2af0>
    14ec:	a0058004 	andge	r8, r5, r4
    14f0:	007a0505 	rsbseq	r0, sl, r5, lsl #10
    14f4:	049f2140 	ldreq	r2, [pc], #320	@ 14fc <memcpy+0xac>
    14f8:	05a605a0 	streq	r0, [r6, #1440]!	@ 0x5a0
    14fc:	b2045901 	andlt	r5, r4, #16384	@ 0x4000
    1500:	0105c005 	tsteq	r5, r5
    1504:	00000059 	andeq	r0, r0, r9, asr r0
    1508:	00000000 	andeq	r0, r0, r0
    150c:	a6040000 	strge	r0, [r4], -r0
    1510:	0104b204 	tsteq	r4, r4, lsl #4
    1514:	04b20450 	ldrteq	r0, [r2], #1104	@ 0x450
    1518:	540104c2 	strpl	r0, [r1], #-1218	@ 0xfffffb3e
    151c:	8a04f204 	bhi	13dd34 <__ROM_SIZE+0xfdd34>
    1520:	04500105 	ldrbeq	r0, [r0], #-261	@ 0xfffffefb
    1524:	05a0058a 	streq	r0, [r0, #1418]!	@ 0x58a
    1528:	00005401 	andeq	r5, r0, r1, lsl #8
	...
    1534:	04d40400 	ldrbeq	r0, [r4], #1024	@ 0x400
    1538:	500104de 	ldrdpl	r0, [r1], -lr
    153c:	ea04de04 	b	138d54 <__ROM_SIZE+0xf8d54>
    1540:	04540104 	ldrbeq	r0, [r4], #-260	@ 0xfffffefc
    1544:	05980594 	ldreq	r0, [r8, #1428]	@ 0x594
    1548:	a0045001 	andge	r5, r4, r1
    154c:	0105a605 	tsteq	r5, r5, lsl #12
    1550:	05b20454 	ldreq	r0, [r2, #1108]!	@ 0x454
    1554:	540105c0 	strpl	r0, [r1], #-1472	@ 0xfffffa40
    1558:	00000200 	andeq	r0, r0, r0, lsl #4
    155c:	05b20400 	ldreq	r0, [r2, #1024]!	@ 0x400
    1560:	750305b9 	strvc	r0, [r3, #-1465]	@ 0xfffffa47
    1564:	b90400c0 	stmdblt	r4, {r6, r7}
    1568:	0105bf05 	tsteq	r5, r5, lsl #30
    156c:	00000051 	andeq	r0, r0, r1, asr r0
    1570:	a4040000 	strge	r0, [r4], #-0
    1574:	0103aa03 	tsteq	r3, r3, lsl #20
    1578:	03aa0450 			@ <UNDEFINED> instruction: 0x03aa0450
    157c:	540103e0 	strpl	r0, [r1], #-992	@ 0xfffffc20
    1580:	00000000 	andeq	r0, r0, r0
    1584:	03a40400 			@ <UNDEFINED> instruction: 0x03a40400
    1588:	510103aa 	smlatbpl	r1, sl, r3, r0
    158c:	e003aa04 	and	sl, r3, r4, lsl #20
    1590:	00560103 	subseq	r0, r6, r3, lsl #2
    1594:	c8040000 	stmdagt	r4, {}	@ <UNPREDICTABLE>
    1598:	0103d203 	tsteq	r3, r3, lsl #4
    159c:	00020050 	andeq	r0, r2, r0, asr r0
    15a0:	d0040000 	andle	r0, r4, r0
    15a4:	0303d703 	movweq	sp, #14083	@ 0x3703
    15a8:	0400c076 	streq	ip, [r0], #-118	@ 0xffffff8a
    15ac:	03dd03d7 	bicseq	r0, sp, #1543503875	@ 0x5c000003
    15b0:	00005101 	andeq	r5, r0, r1, lsl #2
    15b4:	00000000 	andeq	r0, r0, r0
    15b8:	04000000 	streq	r0, [r0], #-0
    15bc:	01ae01a0 			@ <UNDEFINED> instruction: 0x01ae01a0
    15c0:	ae045001 	cdpge	0, 0, cr5, cr4, cr1, {0}
    15c4:	0101fc01 	tsteq	r1, r1, lsl #24	@ <UNPREDICTABLE>
    15c8:	01fc0454 	mvnseq	r0, r4, asr r4
    15cc:	50010282 	andpl	r0, r1, r2, lsl #5
    15d0:	b8028204 	stmdalt	r2, {r2, r9, pc}
    15d4:	00540102 	subseq	r0, r4, r2, lsl #2
    15d8:	00000000 	andeq	r0, r0, r0
    15dc:	aa01a004 	bge	695f4 <__ROM_SIZE+0x295f4>
    15e0:	04510101 	ldrbeq	r0, [r1], #-257	@ 0xfffffeff
    15e4:	02b801aa 	adcseq	r0, r8, #-2147483606	@ 0x8000002a
    15e8:	00005501 	andeq	r5, r0, r1, lsl #10
	...
    15f4:	01b40400 			@ <UNDEFINED> instruction: 0x01b40400
    15f8:	500101bd 			@ <UNDEFINED> instruction: 0x500101bd
    15fc:	c501be04 	strgt	fp, [r1, #-3588]	@ 0xfffff1fc
    1600:	04500101 	ldrbeq	r0, [r0], #-257	@ 0xfffffeff
    1604:	01f201c5 	mvnseq	r0, r5, asr #3
    1608:	f2045101 	vrhadd.s8	d5, d4, d1
    160c:	0101f601 	tsteq	r1, r1, lsl #12	@ <UNPREDICTABLE>
    1610:	028a0450 	addeq	r0, sl, #80, 8	@ 0x50000000
    1614:	510102b8 			@ <UNDEFINED> instruction: 0x510102b8
    1618:	04000100 	streq	r0, [r0], #-256	@ 0xffffff00
    161c:	0291028a 	addseq	r0, r1, #-1610612728	@ 0xa0000008
    1620:	48007307 	stmdami	r0, {r0, r1, r2, r8, r9, ip, sp, lr}
    1624:	9f1a3f25 	svcls	0x001a3f25
    1628:	00000000 	andeq	r0, r0, r0
    162c:	04000000 	streq	r0, [r0], #-0
    1630:	50012614 	andpl	r2, r1, r4, lsl r6
    1634:	016c2604 	cmneq	ip, r4, lsl #12
    1638:	766c0455 			@ <UNDEFINED> instruction: 0x766c0455
    163c:	a503a30a 	strge	sl, [r3, #-778]	@ 0xfffffcf6
    1640:	2da82600 	stccs	6, cr2, [r8]
    1644:	009f00a8 	addseq	r0, pc, r8, lsr #1
    1648:	00000000 	andeq	r0, r0, r0
    164c:	14040000 	strne	r0, [r4], #-0
    1650:	04510126 	ldrbeq	r0, [r1], #-294	@ 0xfffffeda
    1654:	78036026 	stmdavc	r3, {r1, r2, r5, sp, lr}
    1658:	60049f01 	andvs	r9, r4, r1, lsl #30
    165c:	03a30a76 			@ <UNDEFINED> instruction: 0x03a30a76
    1660:	a82601a5 	stmdage	r6!, {r0, r2, r5, r7, r8}
    1664:	9f00a82d 	svcls	0x0000a82d
    1668:	00000000 	andeq	r0, r0, r0
    166c:	04000000 	streq	r0, [r0], #-0
    1670:	52012614 	andpl	r2, r1, #20, 12	@ 0x1400000
    1674:	016c2604 	cmneq	ip, r4, lsl #12
    1678:	766c0456 			@ <UNDEFINED> instruction: 0x766c0456
    167c:	a503a30a 	strge	sl, [r3, #-778]	@ 0xfffffcf6
    1680:	2da82602 	stccs	6, cr2, [r8, #8]!
    1684:	009f00a8 	addseq	r0, pc, r8, lsr #1
    1688:	60040000 	andvs	r0, r4, r0
    168c:	ff090364 			@ <UNDEFINED> instruction: 0xff090364
    1690:	0000009f 	muleq	r0, pc, r0	@ <UNPREDICTABLE>
    1694:	00000000 	andeq	r0, r0, r0
    1698:	3c040000 	stccc	0, cr0, [r4], {-0}
    169c:	04500146 	ldrbeq	r0, [r0], #-326	@ 0xfffffeba
    16a0:	53014f46 	movwpl	r4, #8006	@ 0x1f46
    16a4:	01646004 	cmneq	r4, r4
    16a8:	6c640450 	cfstrdvs	mvd0, [r4], #-320	@ 0xfffffec0
    16ac:	00005301 	andeq	r5, r0, r1, lsl #6
    16b0:	6c2e0400 	cfstrsvs	mvf0, [lr], #-0
    16b4:	01005101 	tsteq	r0, r1, lsl #2
    16b8:	04000000 	streq	r0, [r0], #-0
    16bc:	30022622 	andcc	r2, r2, r2, lsr #12
    16c0:	6c26049f 	cfstrsvs	mvf0, [r6], #-636	@ 0xfffffd84
    16c4:	02005401 	andeq	r5, r0, #16777216	@ 0x1000000
    16c8:	04000000 	streq	r0, [r0], #-0
    16cc:	58012622 	stmdapl	r1, {r1, r5, r9, sl, sp}
    16d0:	016c2604 	cmneq	ip, r4, lsl #12
    16d4:	00000057 	andeq	r0, r0, r7, asr r0
    16d8:	00000000 	andeq	r0, r0, r0
    16dc:	b8040000 	stmdalt	r4, {}	@ <UNPREDICTABLE>
    16e0:	0102c802 	tsteq	r2, r2, lsl #16
    16e4:	02c80450 	sbceq	r0, r8, #80, 8	@ 0x50000000
    16e8:	5401038c 	strpl	r0, [r1], #-908	@ 0xfffffc74
    16ec:	8f038c04 	svchi	0x00038c04
    16f0:	a8700403 	ldmdage	r0!, {r0, r1, sl}^
    16f4:	8f049f7c 	svchi	0x00049f7c
    16f8:	0a039003 	beq	e570c <__ROM_SIZE+0xa570c>
    16fc:	00a503a3 	adceq	r0, r5, r3, lsr #7
    1700:	a82da826 	stmdage	sp!, {r1, r2, r5, fp, sp, pc}
    1704:	00009f00 	andeq	r9, r0, r0, lsl #30
    1708:	04000000 	streq	r0, [r0], #-0
    170c:	08bb08a8 	ldmeq	fp!, {r3, r5, r7, fp}
    1710:	bb045001 	bllt	11571c <__ROM_SIZE+0xd571c>
    1714:	0a08c008 	beq	23173c <__ROM_SIZE+0x1f173c>
    1718:	00a503a3 	adceq	r0, r5, r3, lsr #7
    171c:	a82da826 	stmdage	sp!, {r1, r2, r5, fp, sp, pc}
    1720:	00009f00 	andeq	r9, r0, r0, lsl #30
    1724:	00000000 	andeq	r0, r0, r0
    1728:	08a80400 	stmiaeq	r8!, {sl}
    172c:	510108b8 			@ <UNDEFINED> instruction: 0x510108b8
    1730:	bb08b804 	bllt	22f748 <__ROM_SIZE+0x1ef748>
    1734:	04520108 	ldrbeq	r0, [r2], #-264	@ 0xfffffef8
    1738:	08c008bb 	stmiaeq	r0, {r0, r1, r3, r4, r5, r7, fp}^
    173c:	a503a30a 	strge	sl, [r3, #-778]	@ 0xfffffcf6
    1740:	2da82601 	stccs	6, cr2, [r8, #4]!
    1744:	009f00a8 	addseq	r0, pc, r8, lsr #1
    1748:	00000000 	andeq	r0, r0, r0
    174c:	b608a804 	strlt	sl, [r8], -r4, lsl #16
    1750:	04520108 	ldrbeq	r0, [r2], #-264	@ 0xfffffef8
    1754:	08bb08b6 	ldmeq	fp!, {r1, r2, r4, r5, r7, fp}
    1758:	00007402 	andeq	r7, r0, r2, lsl #8
    175c:	00000000 	andeq	r0, r0, r0
    1760:	e907d804 	stmdb	r7, {r2, fp, ip, lr, pc}
    1764:	04500107 	ldrbeq	r0, [r0], #-263	@ 0xfffffef9
    1768:	07f207e9 	ldrbeq	r0, [r2, r9, ror #15]!
    176c:	a503a30a 	strge	sl, [r3, #-778]	@ 0xfffffcf6
    1770:	2da82600 	stccs	6, cr2, [r8]
    1774:	009f00a8 	addseq	r0, pc, r8, lsr #1
    1778:	00000000 	andeq	r0, r0, r0
    177c:	d8040000 	stmdale	r4, {}	@ <UNPREDICTABLE>
    1780:	0107e207 	tsteq	r7, r7, lsl #4
    1784:	07e20451 	ubfxeq	r0, r1, #8, #3
    1788:	520107e9 	andpl	r0, r1, #61079552	@ 0x3a40000
    178c:	f207e904 	vmla.i8	d14, d7, d4
    1790:	03a30a07 			@ <UNDEFINED> instruction: 0x03a30a07
    1794:	a82601a5 	stmdage	r6!, {r0, r2, r5, r7, r8}
    1798:	9f00a82d 	svcls	0x0000a82d
    179c:	00000000 	andeq	r0, r0, r0
    17a0:	03900400 	orrseq	r0, r0, #0, 8
    17a4:	50010394 	mulpl	r1, r4, r3
    17a8:	9a039404 	bls	e67c0 <__ROM_SIZE+0xa67c0>
    17ac:	00530103 	subseq	r0, r3, r3, lsl #2
    17b0:	94040000 	strls	r0, [r4], #-0
    17b4:	01039a03 	tsteq	r3, r3, lsl #20
    17b8:	00010050 	andeq	r0, r1, r0, asr r0
    17bc:	a0039c04 	andge	r9, r3, r4, lsl #24
    17c0:	ddfa0603 	ldclle	6, cr0, [sl, #12]!
    17c4:	9f00001d 	svcls	0x0000001d
    17c8:	04000100 	streq	r0, [r0], #-256	@ 0xffffff00
    17cc:	03a0039c 	moveq	r0, #156, 6	@ 0x70000002
    17d0:	1dd2fa06 	vldrne	s31, [r2, #24]
    17d4:	009f0000 	addseq	r0, pc, r0
    17d8:	9c040001 	stcls	0, cr0, [r4], {1}
    17dc:	0603a003 	streq	sl, [r3], -r3
    17e0:	001dc7fa 			@ <UNDEFINED> instruction: 0x001dc7fa
    17e4:	18009f00 	stmdane	r0, {r8, r9, sl, fp, ip, pc}
    17e8:	05000004 	streq	r0, [r0, #-4]
    17ec:	00000400 	andeq	r0, r0, r0, lsl #8
    17f0:	00000000 	andeq	r0, r0, r0
    17f4:	06000000 	streq	r0, [r0], -r0
    17f8:	00000000 	andeq	r0, r0, r0
    17fc:	01050004 	tsteq	r5, r4
    1800:	06050450 			@ <UNDEFINED> instruction: 0x06050450
    1804:	a503a30a 	strge	sl, [r3, #-778]	@ 0xfffffcf6
    1808:	2da82600 	stccs	6, cr2, [r8]
    180c:	009f00a8 	addseq	r0, pc, r8, lsr #1
    1810:	00000000 	andeq	r0, r0, r0
    1814:	00143c06 	andseq	r3, r4, r6, lsl #24
    1818:	05000400 	streq	r0, [r0, #-1024]	@ 0xfffffc00
    181c:	05045001 	streq	r5, [r4, #-1]
    1820:	03a30a12 			@ <UNDEFINED> instruction: 0x03a30a12
    1824:	a82600a5 	stmdage	r6!, {r0, r2, r5, r7}
    1828:	9f00a82d 	svcls	0x0000a82d
    182c:	08000000 	stmdaeq	r0, {}	@ <UNPREDICTABLE>
    1830:	00001442 	andeq	r1, r0, r2, asr #8
    1834:	00500102 	subseq	r0, r0, r2, lsl #2
    1838:	00010100 	andeq	r0, r1, r0, lsl #2
    183c:	00144406 	andseq	r4, r4, r6, lsl #8
    1840:	00000400 	andeq	r0, r0, r0, lsl #8
    1844:	00045001 	andeq	r5, r4, r1
    1848:	04700306 	ldrbteq	r0, [r0], #-774	@ 0xfffffcfa
    184c:	0000009f 	muleq	r0, pc, r0	@ <UNPREDICTABLE>
    1850:	30060000 	andcc	r0, r6, r0
    1854:	04000014 	streq	r0, [r0], #-20	@ 0xffffffec
    1858:	50010500 	andpl	r0, r1, r0, lsl #10
    185c:	0a0a0504 	beq	282c74 <__ROM_SIZE+0x242c74>
    1860:	00a503a3 	adceq	r0, r5, r3, lsr #7
    1864:	a82da826 	stmdage	sp!, {r1, r2, r5, fp, sp, pc}
    1868:	00009f00 	andeq	r9, r0, r0, lsl #30
    186c:	14360800 	ldrtne	r0, [r6], #-2048	@ 0xfffff800
    1870:	01020000 	mrseq	r0, (UNDEF: 2)
    1874:	00000050 	andeq	r0, r0, r0, asr r0
    1878:	00060000 	andeq	r0, r6, r0
    187c:	04000011 	streq	r0, [r0], #-17	@ 0xffffffef
    1880:	50010100 	andpl	r0, r1, r0, lsl #2
    1884:	0a020104 	beq	81c9c <__ROM_SIZE+0x41c9c>
    1888:	00a503a3 	adceq	r0, r5, r3, lsr #7
    188c:	a82da826 	stmdage	sp!, {r1, r2, r5, fp, sp, pc}
    1890:	00009f00 	andeq	r9, r0, r0, lsl #30
    1894:	06000000 	streq	r0, [r0], -r0
    1898:	00001400 	andeq	r1, r0, r0, lsl #8
    189c:	010c0004 	tsteq	ip, r4
    18a0:	2e0c0450 	cfmvsrcs	mvf12, r0
    18a4:	a503a30a 	strge	sl, [r3, #-778]	@ 0xfffffcf6
    18a8:	2da82600 	stccs	6, cr2, [r8]
    18ac:	009f00a8 	addseq	r0, pc, r8, lsr #1
    18b0:	00000000 	andeq	r0, r0, r0
    18b4:	00060000 	andeq	r0, r6, r0
    18b8:	04000014 	streq	r0, [r0], #-20	@ 0xffffffec
    18bc:	51011600 	tstpl	r1, r0, lsl #12
    18c0:	01271604 			@ <UNDEFINED> instruction: 0x01271604
    18c4:	2e270450 	mcrcs	4, 1, r0, cr7, cr0, {2}
    18c8:	a503a30a 	strge	sl, [r3, #-778]	@ 0xfffffcf6
    18cc:	2da82601 	stccs	6, cr2, [r8, #4]!
    18d0:	009f00a8 	addseq	r0, pc, r8, lsr #1
    18d4:	00010100 	andeq	r0, r1, r0, lsl #2
    18d8:	00000000 	andeq	r0, r0, r0
    18dc:	00140a06 	andseq	r0, r4, r6, lsl #20
    18e0:	00000400 	andeq	r0, r0, r0, lsl #8
    18e4:	00045201 	andeq	r5, r4, r1, lsl #4
    18e8:	04720308 	ldrbteq	r0, [r2], #-776	@ 0xfffffcf8
    18ec:	0e08049f 	mcreq	4, 0, r0, cr8, cr15, {4}
    18f0:	9f7c7203 	svcls	0x007c7203
    18f4:	061d0e04 	ldreq	r0, [sp], -r4, lsl #28
    18f8:	34067091 	strcc	r7, [r6], #-145	@ 0xffffff6f
    18fc:	00009f1c 	andeq	r9, r0, ip, lsl pc
    1900:	06000000 	streq	r0, [r0], -r0
    1904:	00001104 	andeq	r1, r0, r4, lsl #2
    1908:	010e0004 	tsteq	lr, r4
    190c:	fa0e0450 	blx	382a54 <__ROM_SIZE+0x342a54>
    1910:	00560105 	subseq	r0, r6, r5, lsl #2
    1914:	00000000 	andeq	r0, r0, r0
    1918:	00110406 	andseq	r0, r1, r6, lsl #8
    191c:	0e000400 	cfcpyseq	mvf0, mvf0
    1920:	0e045101 	adfeqs	f5, f4, f1
    1924:	550105fa 	strpl	r0, [r1, #-1530]	@ 0xfffffa06
    1928:	01010000 	mrseq	r0, (UNDEF: 1)
	...
    1938:	01010000 	mrseq	r0, (UNDEF: 1)
	...
    1958:	00000100 	andeq	r0, r0, r0, lsl #2
	...
    1970:	01010000 	mrseq	r0, (UNDEF: 1)
	...
    197c:	00000101 	andeq	r0, r0, r1, lsl #2
    1980:	01010000 	mrseq	r0, (UNDEF: 1)
    1984:	111c0600 	tstne	ip, r0, lsl #12
    1988:	00040000 	andeq	r0, r4, r0
    198c:	0450011c 	ldrbeq	r0, [r0], #-284	@ 0xfffffee4
    1990:	7008321c 	andvc	r3, r8, ip, lsl r2
    1994:	081a3f00 	ldmdaeq	sl, {r8, r9, sl, fp, ip, sp}
    1998:	049f1aff 	ldreq	r1, [pc], #2815	@ 19a0 <__copy_table_end__+0x340>
    199c:	50016246 	andpl	r6, r1, r6, asr #4
    19a0:	019e7404 	orrseq	r7, lr, r4, lsl #8
    19a4:	9e045001 	cdpls	0, 0, cr5, cr4, cr1, {0}
    19a8:	0101a801 	tsteq	r1, r1, lsl #16
    19ac:	01a80454 			@ <UNDEFINED> instruction: 0x01a80454
    19b0:	740601ae 	strvc	r0, [r6], #-430	@ 0xfffffe52
    19b4:	1aff0800 	bne	fffc39bc <__StackTop+0xdffb39bc>
    19b8:	01c2049f 			@ <UNDEFINED> instruction: 0x01c2049f
    19bc:	500101d4 	ldrdpl	r0, [r1], -r4
    19c0:	fa01d404 	blx	769d8 <__ROM_SIZE+0x369d8>
    19c4:	04540101 	ldrbeq	r0, [r4], #-257	@ 0xfffffeff
    19c8:	028201fa 	addeq	r0, r2, #-2147483586	@ 0x8000003e
    19cc:	82045001 	andhi	r5, r4, #1
    19d0:	0e028e02 	cdpeq	14, 0, cr8, cr2, cr2, {0}
    19d4:	1a370070 	bne	dc1b9c <__ROM_SIZE+0xd81b9c>
    19d8:	ff080123 			@ <UNDEFINED> instruction: 0xff080123
    19dc:	243f401a 	ldrtcs	r4, [pc], #-26	@ 19e4 <__copy_table_end__+0x384>
    19e0:	9e049f21 	cdpls	15, 0, cr9, cr4, cr1, {1}
    19e4:	0102a002 	tsteq	r2, r2
    19e8:	02a00450 	adceq	r0, r0, #80, 8	@ 0x50000000
    19ec:	540102a6 	strpl	r0, [r1], #-678	@ 0xfffffd5a
    19f0:	b202a804 	andlt	sl, r2, #4, 16	@ 0x40000
    19f4:	04500102 	ldrbeq	r0, [r0], #-258	@ 0xfffffefe
    19f8:	02cc02b2 	sbceq	r0, ip, #536870923	@ 0x2000000b
    19fc:	0a007407 	beq	1ea20 <__RAM_SIZE+0xea20>
    1a00:	9f1affff 	svcls	0x001affff
    1a04:	e802cc04 	stmda	r2, {r2, sl, fp, lr, pc}
    1a08:	04500102 	ldrbeq	r0, [r0], #-258	@ 0xfffffefe
    1a0c:	02f202e8 	rscseq	r0, r2, #232, 4	@ 0x8000000e
    1a10:	f2045401 	vshl.s8	d5, d1, d4
    1a14:	0102f802 	tsteq	r2, r2, lsl #16	@ <UNPREDICTABLE>
    1a18:	02f80450 	rscseq	r0, r8, #80, 8	@ 0x50000000
    1a1c:	54010386 	strpl	r0, [r1], #-902	@ 0xfffffc7a
    1a20:	88038604 	stmdahi	r3, {r2, r9, sl, pc}
    1a24:	04500103 	ldrbeq	r0, [r0], #-259	@ 0xfffffefd
    1a28:	03900388 	orrseq	r0, r0, #136, 6	@ 0x20000002
    1a2c:	90045401 	andls	r5, r4, r1, lsl #8
    1a30:	06039403 	streq	r9, [r3], -r3, lsl #8
    1a34:	ff080074 			@ <UNDEFINED> instruction: 0xff080074
    1a38:	94049f1a 	strls	r9, [r4], #-3866	@ 0xfffff0e6
    1a3c:	0103a003 	tsteq	r3, r3
    1a40:	03a00450 	moveq	r0, #80, 8	@ 0x50000000
    1a44:	540103ae 	strpl	r0, [r1], #-942	@ 0xfffffc52
    1a48:	bc03ae04 	stclt	14, cr10, [r3], {4}
    1a4c:	04500103 	ldrbeq	r0, [r0], #-259	@ 0xfffffefd
    1a50:	03d403ce 	bicseq	r0, r4, #939524099	@ 0x38000003
    1a54:	ec045001 	stc	0, cr5, [r4], {1}
    1a58:	0103ee03 	tsteq	r3, r3, lsl #28
    1a5c:	03ee0450 	mvneq	r0, #80, 8	@ 0x50000000
    1a60:	540103fa 	strpl	r0, [r1], #-1018	@ 0xfffffc06
    1a64:	8203fa04 	andhi	pc, r3, #4, 20	@ 0x4000
    1a68:	04500104 	ldrbeq	r0, [r0], #-260	@ 0xfffffefc
    1a6c:	04880482 	streq	r0, [r8], #1154	@ 0x482
    1a70:	88045401 	stmdahi	r4, {r0, sl, ip, lr}
    1a74:	06049004 	streq	r9, [r4], -r4
    1a78:	ff080074 			@ <UNDEFINED> instruction: 0xff080074
    1a7c:	94049f1a 	strls	r9, [r4], #-3866	@ 0xfffff0e6
    1a80:	0d049a04 	vstreq	s18, [r4, #-16]
    1a84:	1a3f0070 	bne	fc1c4c <__ROM_SIZE+0xf81c4c>
    1a88:	ff080123 			@ <UNDEFINED> instruction: 0xff080123
    1a8c:	2100721a 	tstcs	r0, sl, lsl r2
    1a90:	04a8049f 	strteq	r0, [r8], #1183	@ 0x49f
    1a94:	500104ae 	andpl	r0, r1, lr, lsr #9
    1a98:	b404b204 	strlt	fp, [r4], #-516	@ 0xfffffdfc
    1a9c:	04500104 	ldrbeq	r0, [r0], #-260	@ 0xfffffefc
    1aa0:	04c004b4 	strbeq	r0, [r0], #1204	@ 0x4b4
    1aa4:	c0045401 	andgt	r5, r4, r1, lsl #8
    1aa8:	0104ca04 	tsteq	r4, r4, lsl #20
    1aac:	04ca0450 	strbeq	r0, [sl], #1104	@ 0x450
    1ab0:	520104cd 	andpl	r0, r1, #-855638016	@ 0xcd000000
    1ab4:	d604d604 	strle	sp, [r4], -r4, lsl #12
    1ab8:	04500104 	ldrbeq	r0, [r0], #-260	@ 0xfffffefc
    1abc:	04e004d6 	strbteq	r0, [r0], #1238	@ 0x4d6
    1ac0:	3f00700e 	svccc	0x0000700e
    1ac4:	0801231a 	stmdaeq	r1, {r1, r3, r4, r8, r9, sp}
    1ac8:	3f441aff 	svccc	0x00441aff
    1acc:	049f2124 	ldreq	r2, [pc], #292	@ 1ad4 <__copy_table_end__+0x474>
    1ad0:	04f204e0 	ldrbteq	r0, [r2], #1248	@ 0x4e0
    1ad4:	3f00740e 	svccc	0x0000740e
    1ad8:	0801231a 	stmdaeq	r1, {r1, r3, r4, r8, r9, sp}
    1adc:	3f441aff 	svccc	0x00441aff
    1ae0:	049f2124 	ldreq	r2, [pc], #292	@ 1ae8 <__copy_table_end__+0x488>
    1ae4:	04f404f2 	ldrbteq	r0, [r4], #1266	@ 0x4f2
    1ae8:	f4045001 	vst4.8	{d5-d8}, [r4], r1
    1aec:	0104fa04 	tsteq	r4, r4, lsl #20	@ <UNPREDICTABLE>
    1af0:	04fa0454 	ldrbteq	r0, [sl], #1108	@ 0x454
    1af4:	720604fa 	andvc	r0, r6, #-100663296	@ 0xfa000000
    1af8:	1aff0800 	bne	fffc3b00 <__StackTop+0xdffb3b00>
    1afc:	04fa049f 	ldrbteq	r0, [sl], #1183	@ 0x49f
    1b00:	72170584 	andsvc	r0, r7, #132, 10	@ 0x21000000
    1b04:	1af00900 	bne	ffc03f0c <__StackTop+0xdfbf3f0c>
    1b08:	231aff08 	tstcs	sl, #8, 30	@ <UNPREDICTABLE>
    1b0c:	72243c10 	eorvc	r3, r4, #16, 24	@ 0x1000
    1b10:	231a3f00 	tstcs	sl, #0, 30
    1b14:	1aff0801 	bne	fffc3b20 <__StackTop+0xdffb3b20>
    1b18:	9c049f21 	stcls	15, cr9, [r4], {33}	@ 0x21
    1b1c:	0105a605 	tsteq	r5, r5, lsl #12
    1b20:	05bc0450 	ldreq	r0, [ip, #1104]!	@ 0x450
    1b24:	500105c6 	andpl	r0, r1, r6, asr #11
    1b28:	d005c604 	andle	ip, r5, r4, lsl #12
    1b2c:	00700e05 	rsbseq	r0, r0, r5, lsl #28
    1b30:	01231a37 			@ <UNDEFINED> instruction: 0x01231a37
    1b34:	401aff08 	andsmi	pc, sl, r8, lsl #30
    1b38:	9f21243f 	svcls	0x0021243f
    1b3c:	00000600 	andeq	r0, r0, r0, lsl #12
    1b40:	00000000 	andeq	r0, r0, r0
    1b44:	11040600 	tstne	r4, r0, lsl #12
    1b48:	00040000 	andeq	r0, r4, r0
    1b4c:	9f30020e 	svcls	0x0030020e
    1b50:	01860e04 	orreq	r0, r6, r4, lsl #28
    1b54:	8c045801 	stchi	8, cr5, [r4], {1}
    1b58:	0102e201 	tsteq	r2, r1, lsl #4
    1b5c:	02e40458 	rsceq	r0, r4, #88, 8	@ 0x58000000
    1b60:	580105fa 	stmdapl	r1, {r1, r3, r4, r5, r6, r7, r8, sl}
    1b64:	00000000 	andeq	r0, r0, r0
    1b68:	11e40600 	mvnne	r0, r0, lsl #12
    1b6c:	00040000 	andeq	r0, r4, r0
    1b70:	0457011c 	ldrbeq	r0, [r7], #-284	@ 0xfffffee4
    1b74:	740a321c 	strvc	r3, [sl], #-540	@ 0xfffffde4
    1b78:	08243200 	stmdaeq	r4!, {r9, ip, sp}
    1b7c:	04231aff 	strteq	r1, [r3], #-2815	@ 0xfffff501
    1b80:	0000009f 	muleq	r0, pc, r0	@ <UNPREDICTABLE>
    1b84:	00117408 	andseq	r7, r1, r8, lsl #8
    1b88:	52010600 	andpl	r0, r1, #0, 12
    1b8c:	00000100 	andeq	r0, r0, r0, lsl #2
    1b90:	12ca0600 	sbcne	r0, sl, #0, 12
    1b94:	00040000 	andeq	r0, r4, r0
    1b98:	9f32020a 	svcls	0x0032020a
    1b9c:	01220a04 			@ <UNDEFINED> instruction: 0x01220a04
    1ba0:	00000057 	andeq	r0, r0, r7, asr r0
	...
    1bac:	ac060000 	stcge	0, cr0, [r6], {-0}
    1bb0:	04000010 	streq	r0, [r0], #-16
    1bb4:	50011600 	andpl	r1, r1, r0, lsl #12
    1bb8:	01261604 			@ <UNDEFINED> instruction: 0x01261604
    1bbc:	28260453 	stmdacs	r6!, {r0, r1, r4, r6, sl}
    1bc0:	28045001 	stmdacs	r4, {r0, ip, lr}
    1bc4:	04530134 	ldrbeq	r0, [r3], #-308	@ 0xfffffecc
    1bc8:	50013634 	andpl	r3, r1, r4, lsr r6
    1bcc:	01383604 	teqeq	r8, r4, lsl #12
    1bd0:	00000053 	andeq	r0, r0, r3, asr r0
    1bd4:	ce060000 	cdpgt	0, 0, cr0, cr6, cr0, {0}
    1bd8:	04000010 	streq	r0, [r0], #-16
    1bdc:	50010400 	andpl	r0, r1, r0, lsl #8
    1be0:	01121004 	tsteq	r2, r4
    1be4:	00000050 	andeq	r0, r0, r0, asr r0
    1be8:	e4060000 	str	r0, [r6], #-0
    1bec:	04000010 	streq	r0, [r0], #-16
    1bf0:	50011100 	andpl	r1, r1, r0, lsl #2
    1bf4:	0a1a1104 	beq	68600c <__ROM_SIZE+0x64600c>
    1bf8:	00a503a3 	adceq	r0, r5, r3, lsr #7
    1bfc:	a82da826 	stmdage	sp!, {r1, r2, r5, fp, sp, pc}
    1c00:	Address 0x1c00 is out of bounds.

