
uart_test.elf:     file format elf32-littlearm


Disassembly of section .text:

00000000 <__Vectors>:
       0:	20010000 	andcs	r0, r1, r0
       4:	000003c1 	andeq	r0, r0, r1, asr #7
       8:	00000405 	andeq	r0, r0, r5, lsl #8
       c:	00000403 	andeq	r0, r0, r3, lsl #8
      10:	00000405 	andeq	r0, r0, r5, lsl #8
      14:	00000405 	andeq	r0, r0, r5, lsl #8
      18:	00000405 	andeq	r0, r0, r5, lsl #8
	...
      2c:	00000405 	andeq	r0, r0, r5, lsl #8
      30:	00000405 	andeq	r0, r0, r5, lsl #8
      34:	00000000 	andeq	r0, r0, r0
      38:	00000405 	andeq	r0, r0, r5, lsl #8
      3c:	00000405 	andeq	r0, r0, r5, lsl #8
      40:	00000405 	andeq	r0, r0, r5, lsl #8
      44:	00000405 	andeq	r0, r0, r5, lsl #8
      48:	00000405 	andeq	r0, r0, r5, lsl #8
      4c:	00000405 	andeq	r0, r0, r5, lsl #8
      50:	00000405 	andeq	r0, r0, r5, lsl #8
      54:	00000405 	andeq	r0, r0, r5, lsl #8
      58:	00000405 	andeq	r0, r0, r5, lsl #8
      5c:	00000405 	andeq	r0, r0, r5, lsl #8
      60:	00000405 	andeq	r0, r0, r5, lsl #8
      64:	00000405 	andeq	r0, r0, r5, lsl #8
	...

000003c0 <Reset_Handler>:
     3c0:	f000 f82a 	bl	418 <SystemInit>
     3c4:	4c10      	ldr	r4, [pc, #64]	@ (408 <BusFault_Handler+0x4>)
     3c6:	4d11      	ldr	r5, [pc, #68]	@ (40c <BusFault_Handler+0x8>)
     3c8:	42ac      	cmp	r4, r5
     3ca:	da0a      	bge.n	3e2 <Reset_Handler+0x22>
     3cc:	6821      	ldr	r1, [r4, #0]
     3ce:	6862      	ldr	r2, [r4, #4]
     3d0:	68a3      	ldr	r3, [r4, #8]
     3d2:	009b      	lsls	r3, r3, #2
     3d4:	3b04      	subs	r3, #4
     3d6:	bfa2      	ittt	ge
     3d8:	58c8      	ldrge	r0, [r1, r3]
     3da:	50d0      	strge	r0, [r2, r3]
     3dc:	e7fa      	bge.n	3d4 <Reset_Handler+0x14>
     3de:	340c      	adds	r4, #12
     3e0:	e7f2      	b.n	3c8 <Reset_Handler+0x8>
     3e2:	4b0b      	ldr	r3, [pc, #44]	@ (410 <BusFault_Handler+0xc>)
     3e4:	4c0b      	ldr	r4, [pc, #44]	@ (414 <BusFault_Handler+0x10>)
     3e6:	42a3      	cmp	r3, r4
     3e8:	da09      	bge.n	3fe <Reset_Handler+0x3e>
     3ea:	6819      	ldr	r1, [r3, #0]
     3ec:	685a      	ldr	r2, [r3, #4]
     3ee:	0092      	lsls	r2, r2, #2
     3f0:	2000      	movs	r0, #0
     3f2:	3a04      	subs	r2, #4
     3f4:	bfa4      	itt	ge
     3f6:	5088      	strge	r0, [r1, r2]
     3f8:	e7fb      	bge.n	3f2 <Reset_Handler+0x32>
     3fa:	3308      	adds	r3, #8
     3fc:	e7f3      	b.n	3e6 <Reset_Handler+0x26>
     3fe:	f000 f81f 	bl	440 <main>

00000402 <HardFault_Handler>:
     402:	e7fe      	b.n	402 <HardFault_Handler>

00000404 <BusFault_Handler>:
     404:	e7fe      	b.n	404 <BusFault_Handler>
     406:	16540000 	ldrbne	r0, [r4], -r0
     40a:	16600000 	strbtne	r0, [r0], -r0
     40e:	16600000 	strbtne	r0, [r0], -r0
     412:	16600000 	strbtne	r0, [r0], -r0
	...

00000418 <SystemInit>:
     418:	b480      	push	{r7}
     41a:	af00      	add	r7, sp, #0
     41c:	4b04      	ldr	r3, [pc, #16]	@ (430 <SystemInit+0x18>)
     41e:	4a05      	ldr	r2, [pc, #20]	@ (434 <SystemInit+0x1c>)
     420:	609a      	str	r2, [r3, #8]
     422:	4b05      	ldr	r3, [pc, #20]	@ (438 <SystemInit+0x20>)
     424:	4a05      	ldr	r2, [pc, #20]	@ (43c <SystemInit+0x24>)
     426:	601a      	str	r2, [r3, #0]
     428:	bf00      	nop
     42a:	46bd      	mov	sp, r7
     42c:	bc80      	pop	{r7}
     42e:	4770      	bx	lr
     430:	e000ed00 	and	lr, r0, r0, lsl #26
     434:	00000000 	andeq	r0, r0, r0
     438:	20000000 	andcs	r0, r0, r0
     43c:	017d7840 	cmneq	sp, r0, asr #16

00000440 <main>:
     440:	b580      	push	{r7, lr}
     442:	af00      	add	r7, sp, #0
     444:	4802      	ldr	r0, [pc, #8]	@ (450 <main+0x10>)
     446:	f000 f815 	bl	474 <printString>
     44a:	bf00      	nop
     44c:	e7fd      	b.n	44a <main+0xa>
     44e:	bf00      	nop
     450:	0000153c 	andeq	r1, r0, ip, lsr r5

00000454 <__io_putchar>:
     454:	b480      	push	{r7}
     456:	b083      	sub	sp, #12
     458:	af00      	add	r7, sp, #0
     45a:	6078      	str	r0, [r7, #4]
     45c:	4a04      	ldr	r2, [pc, #16]	@ (470 <__io_putchar+0x1c>)
     45e:	687b      	ldr	r3, [r7, #4]
     460:	6013      	str	r3, [r2, #0]
     462:	687b      	ldr	r3, [r7, #4]
     464:	4618      	mov	r0, r3
     466:	370c      	adds	r7, #12
     468:	46bd      	mov	sp, r7
     46a:	bc80      	pop	{r7}
     46c:	4770      	bx	lr
     46e:	bf00      	nop
     470:	4000c000 	andmi	ip, r0, r0

00000474 <printString>:
     474:	b580      	push	{r7, lr}
     476:	b082      	sub	sp, #8
     478:	af00      	add	r7, sp, #0
     47a:	6078      	str	r0, [r7, #4]
     47c:	e007      	b.n	48e <printString+0x1a>
     47e:	687b      	ldr	r3, [r7, #4]
     480:	781b      	ldrb	r3, [r3, #0]
     482:	4618      	mov	r0, r3
     484:	f7ff ffe6 	bl	454 <__io_putchar>
     488:	687b      	ldr	r3, [r7, #4]
     48a:	3301      	adds	r3, #1
     48c:	607b      	str	r3, [r7, #4]
     48e:	687b      	ldr	r3, [r7, #4]
     490:	781b      	ldrb	r3, [r3, #0]
     492:	2b00      	cmp	r3, #0
     494:	d1f3      	bne.n	47e <printString+0xa>
     496:	bf00      	nop
     498:	bf00      	nop
     49a:	3708      	adds	r7, #8
     49c:	46bd      	mov	sp, r7
     49e:	bd80      	pop	{r7, pc}

000004a0 <selfrel_offset31>:
     4a0:	6803      	ldr	r3, [r0, #0]
     4a2:	005a      	lsls	r2, r3, #1
     4a4:	bf4c      	ite	mi
     4a6:	f043 4300 	orrmi.w	r3, r3, #2147483648	@ 0x80000000
     4aa:	f023 4300 	bicpl.w	r3, r3, #2147483648	@ 0x80000000
     4ae:	4418      	add	r0, r3
     4b0:	4770      	bx	lr
     4b2:	bf00      	nop

000004b4 <search_EIT_table>:
     4b4:	e92d 47f0 	stmdb	sp!, {r4, r5, r6, r7, r8, r9, sl, lr}
     4b8:	b341      	cbz	r1, 50c <search_EIT_table+0x58>
     4ba:	f101 38ff 	add.w	r8, r1, #4294967295	@ 0xffffffff
     4be:	4605      	mov	r5, r0
     4c0:	4616      	mov	r6, r2
     4c2:	4647      	mov	r7, r8
     4c4:	2400      	movs	r4, #0
     4c6:	19e1      	adds	r1, r4, r7
     4c8:	eb01 71d1 	add.w	r1, r1, r1, lsr #31
     4cc:	1049      	asrs	r1, r1, #1
     4ce:	eb05 0ac1 	add.w	sl, r5, r1, lsl #3
     4d2:	4650      	mov	r0, sl
     4d4:	f7ff ffe4 	bl	4a0 <selfrel_offset31>
     4d8:	4588      	cmp	r8, r1
     4da:	4603      	mov	r3, r0
     4dc:	ea4f 09c1 	mov.w	r9, r1, lsl #3
     4e0:	d00e      	beq.n	500 <search_EIT_table+0x4c>
     4e2:	f109 0008 	add.w	r0, r9, #8
     4e6:	42b3      	cmp	r3, r6
     4e8:	4428      	add	r0, r5
     4ea:	d80b      	bhi.n	504 <search_EIT_table+0x50>
     4ec:	f7ff ffd8 	bl	4a0 <selfrel_offset31>
     4f0:	3801      	subs	r0, #1
     4f2:	42b0      	cmp	r0, r6
     4f4:	f101 0401 	add.w	r4, r1, #1
     4f8:	d3e5      	bcc.n	4c6 <search_EIT_table+0x12>
     4fa:	4650      	mov	r0, sl
     4fc:	e8bd 87f0 	ldmia.w	sp!, {r4, r5, r6, r7, r8, r9, sl, pc}
     500:	42b0      	cmp	r0, r6
     502:	d9fa      	bls.n	4fa <search_EIT_table+0x46>
     504:	428c      	cmp	r4, r1
     506:	d001      	beq.n	50c <search_EIT_table+0x58>
     508:	1e4f      	subs	r7, r1, #1
     50a:	e7dc      	b.n	4c6 <search_EIT_table+0x12>
     50c:	f04f 0a00 	mov.w	sl, #0
     510:	4650      	mov	r0, sl
     512:	e8bd 87f0 	ldmia.w	sp!, {r4, r5, r6, r7, r8, r9, sl, pc}
     516:	bf00      	nop

00000518 <__gnu_unwind_get_pr_addr>:
     518:	2801      	cmp	r0, #1
     51a:	d009      	beq.n	530 <__gnu_unwind_get_pr_addr+0x18>
     51c:	2802      	cmp	r0, #2
     51e:	d005      	beq.n	52c <__gnu_unwind_get_pr_addr+0x14>
     520:	4b04      	ldr	r3, [pc, #16]	@ (534 <__gnu_unwind_get_pr_addr+0x1c>)
     522:	2800      	cmp	r0, #0
     524:	bf0c      	ite	eq
     526:	4618      	moveq	r0, r3
     528:	2000      	movne	r0, #0
     52a:	4770      	bx	lr
     52c:	4802      	ldr	r0, [pc, #8]	@ (538 <__gnu_unwind_get_pr_addr+0x20>)
     52e:	4770      	bx	lr
     530:	4802      	ldr	r0, [pc, #8]	@ (53c <__gnu_unwind_get_pr_addr+0x24>)
     532:	4770      	bx	lr
     534:	00000c09 	andeq	r0, r0, r9, lsl #24
     538:	00000c11 	andeq	r0, r0, r1, lsl ip
     53c:	00000c0d 	andeq	r0, r0, sp, lsl #24

00000540 <get_eit_entry>:
     540:	b530      	push	{r4, r5, lr}
     542:	4b22      	ldr	r3, [pc, #136]	@ (5cc <get_eit_entry+0x8c>)
     544:	4604      	mov	r4, r0
     546:	b083      	sub	sp, #12
     548:	1e8d      	subs	r5, r1, #2
     54a:	b33b      	cbz	r3, 59c <get_eit_entry+0x5c>
     54c:	4628      	mov	r0, r5
     54e:	a901      	add	r1, sp, #4
     550:	f3af 8000 	nop.w
     554:	b1e8      	cbz	r0, 592 <get_eit_entry+0x52>
     556:	9901      	ldr	r1, [sp, #4]
     558:	462a      	mov	r2, r5
     55a:	f7ff ffab 	bl	4b4 <search_EIT_table>
     55e:	4601      	mov	r1, r0
     560:	b1b8      	cbz	r0, 592 <get_eit_entry+0x52>
     562:	f7ff ff9d 	bl	4a0 <selfrel_offset31>
     566:	684b      	ldr	r3, [r1, #4]
     568:	64a0      	str	r0, [r4, #72]	@ 0x48
     56a:	2b01      	cmp	r3, #1
     56c:	d02b      	beq.n	5c6 <get_eit_entry+0x86>
     56e:	2b00      	cmp	r3, #0
     570:	db26      	blt.n	5c0 <get_eit_entry+0x80>
     572:	1d08      	adds	r0, r1, #4
     574:	f7ff ff94 	bl	4a0 <selfrel_offset31>
     578:	2300      	movs	r3, #0
     57a:	6523      	str	r3, [r4, #80]	@ 0x50
     57c:	6803      	ldr	r3, [r0, #0]
     57e:	64e0      	str	r0, [r4, #76]	@ 0x4c
     580:	2b00      	cmp	r3, #0
     582:	db12      	blt.n	5aa <get_eit_entry+0x6a>
     584:	f7ff ff8c 	bl	4a0 <selfrel_offset31>
     588:	4603      	mov	r3, r0
     58a:	2000      	movs	r0, #0
     58c:	6123      	str	r3, [r4, #16]
     58e:	b003      	add	sp, #12
     590:	bd30      	pop	{r4, r5, pc}
     592:	2300      	movs	r3, #0
     594:	2009      	movs	r0, #9
     596:	6123      	str	r3, [r4, #16]
     598:	b003      	add	sp, #12
     59a:	bd30      	pop	{r4, r5, pc}
     59c:	4b0c      	ldr	r3, [pc, #48]	@ (5d0 <get_eit_entry+0x90>)
     59e:	490d      	ldr	r1, [pc, #52]	@ (5d4 <get_eit_entry+0x94>)
     5a0:	4618      	mov	r0, r3
     5a2:	1ac9      	subs	r1, r1, r3
     5a4:	10c9      	asrs	r1, r1, #3
     5a6:	9101      	str	r1, [sp, #4]
     5a8:	e7d6      	b.n	558 <get_eit_entry+0x18>
     5aa:	f3c3 6003 	ubfx	r0, r3, #24, #4
     5ae:	f7ff ffb3 	bl	518 <__gnu_unwind_get_pr_addr>
     5b2:	1e03      	subs	r3, r0, #0
     5b4:	bf0c      	ite	eq
     5b6:	2009      	moveq	r0, #9
     5b8:	2000      	movne	r0, #0
     5ba:	6123      	str	r3, [r4, #16]
     5bc:	b003      	add	sp, #12
     5be:	bd30      	pop	{r4, r5, pc}
     5c0:	2301      	movs	r3, #1
     5c2:	1d08      	adds	r0, r1, #4
     5c4:	e7d9      	b.n	57a <get_eit_entry+0x3a>
     5c6:	2300      	movs	r3, #0
     5c8:	2005      	movs	r0, #5
     5ca:	e7df      	b.n	58c <get_eit_entry+0x4c>
     5cc:	00000000 	andeq	r0, r0, r0
     5d0:	00001594 	muleq	r0, r4, r5
     5d4:	00001654 	andeq	r1, r0, r4, asr r6

000005d8 <restore_non_core_regs>:
     5d8:	6803      	ldr	r3, [r0, #0]
     5da:	b510      	push	{r4, lr}
     5dc:	07da      	lsls	r2, r3, #31
     5de:	4604      	mov	r4, r0
     5e0:	d406      	bmi.n	5f0 <restore_non_core_regs+0x18>
     5e2:	079b      	lsls	r3, r3, #30
     5e4:	f100 0050 	add.w	r0, r0, #80	@ 0x50
     5e8:	d509      	bpl.n	5fe <restore_non_core_regs+0x26>
     5ea:	f000 fc9d 	bl	f28 <__gnu_Unwind_Restore_VFP_D>
     5ee:	6823      	ldr	r3, [r4, #0]
     5f0:	0759      	lsls	r1, r3, #29
     5f2:	d509      	bpl.n	608 <restore_non_core_regs+0x30>
     5f4:	071a      	lsls	r2, r3, #28
     5f6:	d50e      	bpl.n	616 <restore_non_core_regs+0x3e>
     5f8:	06db      	lsls	r3, r3, #27
     5fa:	d513      	bpl.n	624 <restore_non_core_regs+0x4c>
     5fc:	bd10      	pop	{r4, pc}
     5fe:	f000 fc8b 	bl	f18 <__gnu_Unwind_Restore_VFP>
     602:	6823      	ldr	r3, [r4, #0]
     604:	0759      	lsls	r1, r3, #29
     606:	d4f5      	bmi.n	5f4 <restore_non_core_regs+0x1c>
     608:	f104 00d8 	add.w	r0, r4, #216	@ 0xd8
     60c:	f000 fc94 	bl	f38 <__gnu_Unwind_Restore_VFP_D_16_to_31>
     610:	6823      	ldr	r3, [r4, #0]
     612:	071a      	lsls	r2, r3, #28
     614:	d4f0      	bmi.n	5f8 <restore_non_core_regs+0x20>
     616:	f504 70ac 	add.w	r0, r4, #344	@ 0x158
     61a:	f000 fc95 	bl	f48 <__gnu_Unwind_Restore_WMMXD>
     61e:	6823      	ldr	r3, [r4, #0]
     620:	06db      	lsls	r3, r3, #27
     622:	d4eb      	bmi.n	5fc <restore_non_core_regs+0x24>
     624:	f504 70ec 	add.w	r0, r4, #472	@ 0x1d8
     628:	e8bd 4010 	ldmia.w	sp!, {r4, lr}
     62c:	f000 bcd0 	b.w	fd0 <__gnu_Unwind_Restore_WMMXC>

00000630 <_Unwind_decode_typeinfo_ptr.constprop.0>:
     630:	4603      	mov	r3, r0
     632:	6800      	ldr	r0, [r0, #0]
     634:	b100      	cbz	r0, 638 <_Unwind_decode_typeinfo_ptr.constprop.0+0x8>
     636:	4418      	add	r0, r3
     638:	4770      	bx	lr
     63a:	bf00      	nop

0000063c <__gnu_unwind_24bit.isra.0>:
     63c:	2009      	movs	r0, #9
     63e:	4770      	bx	lr

00000640 <_Unwind_DebugHook>:
     640:	4770      	bx	lr
     642:	bf00      	nop

00000644 <unwind_phase2>:
     644:	b570      	push	{r4, r5, r6, lr}
     646:	4604      	mov	r4, r0
     648:	460e      	mov	r6, r1
     64a:	4620      	mov	r0, r4
     64c:	6c31      	ldr	r1, [r6, #64]	@ 0x40
     64e:	f7ff ff77 	bl	540 <get_eit_entry>
     652:	4605      	mov	r5, r0
     654:	b998      	cbnz	r0, 67e <unwind_phase2+0x3a>
     656:	f8d6 c040 	ldr.w	ip, [r6, #64]	@ 0x40
     65a:	4632      	mov	r2, r6
     65c:	4621      	mov	r1, r4
     65e:	2001      	movs	r0, #1
     660:	6923      	ldr	r3, [r4, #16]
     662:	f8c4 c014 	str.w	ip, [r4, #20]
     666:	4798      	blx	r3
     668:	2808      	cmp	r0, #8
     66a:	d0ee      	beq.n	64a <unwind_phase2+0x6>
     66c:	2807      	cmp	r0, #7
     66e:	d106      	bne.n	67e <unwind_phase2+0x3a>
     670:	4628      	mov	r0, r5
     672:	6c31      	ldr	r1, [r6, #64]	@ 0x40
     674:	f7ff ffe4 	bl	640 <_Unwind_DebugHook>
     678:	1d30      	adds	r0, r6, #4
     67a:	f000 fc41 	bl	f00 <__restore_core_regs>
     67e:	deff      	udf	#255	@ 0xff

00000680 <unwind_phase2_forced>:
     680:	e92d 47f0 	stmdb	sp!, {r4, r5, r6, r7, r8, r9, sl, lr}
     684:	f04f 0a00 	mov.w	sl, #0
     688:	f5ad 7d76 	sub.w	sp, sp, #984	@ 0x3d8
     68c:	f10d 0e0c 	add.w	lr, sp, #12
     690:	f101 0c04 	add.w	ip, r1, #4
     694:	68c7      	ldr	r7, [r0, #12]
     696:	f8d0 8018 	ldr.w	r8, [r0, #24]
     69a:	4606      	mov	r6, r0
     69c:	4614      	mov	r4, r2
     69e:	e8bc 000f 	ldmia.w	ip!, {r0, r1, r2, r3}
     6a2:	e8ae 000f 	stmia.w	lr!, {r0, r1, r2, r3}
     6a6:	e8bc 000f 	ldmia.w	ip!, {r0, r1, r2, r3}
     6aa:	e8ae 000f 	stmia.w	lr!, {r0, r1, r2, r3}
     6ae:	e8bc 000f 	ldmia.w	ip!, {r0, r1, r2, r3}
     6b2:	e8ae 000f 	stmia.w	lr!, {r0, r1, r2, r3}
     6b6:	e89c 000f 	ldmia.w	ip, {r0, r1, r2, r3}
     6ba:	ad02      	add	r5, sp, #8
     6bc:	e88e 000f 	stmia.w	lr, {r0, r1, r2, r3}
     6c0:	f8c5 a000 	str.w	sl, [r5]
     6c4:	e021      	b.n	70a <unwind_phase2_forced+0x8a>
     6c6:	6c2b      	ldr	r3, [r5, #64]	@ 0x40
     6c8:	f44f 72f4 	mov.w	r2, #488	@ 0x1e8
     6cc:	4629      	mov	r1, r5
     6ce:	6173      	str	r3, [r6, #20]
     6d0:	a87c      	add	r0, sp, #496	@ 0x1f0
     6d2:	f000 febd 	bl	1450 <memcpy>
     6d6:	4631      	mov	r1, r6
     6d8:	4650      	mov	r0, sl
     6da:	6933      	ldr	r3, [r6, #16]
     6dc:	aa7c      	add	r2, sp, #496	@ 0x1f0
     6de:	4798      	blx	r3
     6e0:	9c8a      	ldr	r4, [sp, #552]	@ 0x228
     6e2:	4682      	mov	sl, r0
     6e4:	64ac      	str	r4, [r5, #72]	@ 0x48
     6e6:	2001      	movs	r0, #1
     6e8:	4633      	mov	r3, r6
     6ea:	4632      	mov	r2, r6
     6ec:	4649      	mov	r1, r9
     6ee:	e9cd 5800 	strd	r5, r8, [sp]
     6f2:	47b8      	blx	r7
     6f4:	4604      	mov	r4, r0
     6f6:	bb30      	cbnz	r0, 746 <unwind_phase2_forced+0xc6>
     6f8:	f44f 72f4 	mov.w	r2, #488	@ 0x1e8
     6fc:	4628      	mov	r0, r5
     6fe:	a97c      	add	r1, sp, #496	@ 0x1f0
     700:	f000 fea6 	bl	1450 <memcpy>
     704:	f1ba 0f08 	cmp.w	sl, #8
     708:	d11a      	bne.n	740 <unwind_phase2_forced+0xc0>
     70a:	4630      	mov	r0, r6
     70c:	6c29      	ldr	r1, [r5, #64]	@ 0x40
     70e:	f7ff ff17 	bl	540 <get_eit_entry>
     712:	f104 0909 	add.w	r9, r4, #9
     716:	fa5f fa89 	uxtb.w	sl, r9
     71a:	4604      	mov	r4, r0
     71c:	2800      	cmp	r0, #0
     71e:	d0d2      	beq.n	6c6 <unwind_phase2_forced+0x46>
     720:	6ba9      	ldr	r1, [r5, #56]	@ 0x38
     722:	4633      	mov	r3, r6
     724:	64a9      	str	r1, [r5, #72]	@ 0x48
     726:	4632      	mov	r2, r6
     728:	2001      	movs	r0, #1
     72a:	e9cd 5800 	strd	r5, r8, [sp]
     72e:	f04a 0110 	orr.w	r1, sl, #16
     732:	47b8      	blx	r7
     734:	b938      	cbnz	r0, 746 <unwind_phase2_forced+0xc6>
     736:	4620      	mov	r0, r4
     738:	f50d 7d76 	add.w	sp, sp, #984	@ 0x3d8
     73c:	e8bd 87f0 	ldmia.w	sp!, {r4, r5, r6, r7, r8, r9, sl, pc}
     740:	f1ba 0f07 	cmp.w	sl, #7
     744:	d005      	beq.n	752 <unwind_phase2_forced+0xd2>
     746:	2409      	movs	r4, #9
     748:	4620      	mov	r0, r4
     74a:	f50d 7d76 	add.w	sp, sp, #984	@ 0x3d8
     74e:	e8bd 87f0 	ldmia.w	sp!, {r4, r5, r6, r7, r8, r9, sl, pc}
     752:	4620      	mov	r0, r4
     754:	6c29      	ldr	r1, [r5, #64]	@ 0x40
     756:	f7ff ff73 	bl	640 <_Unwind_DebugHook>
     75a:	a803      	add	r0, sp, #12
     75c:	f000 fbd0 	bl	f00 <__restore_core_regs>

00000760 <_Unwind_GetCFA>:
     760:	6c80      	ldr	r0, [r0, #72]	@ 0x48
     762:	4770      	bx	lr

00000764 <__gnu_Unwind_RaiseException>:
     764:	b5f0      	push	{r4, r5, r6, r7, lr}
     766:	f04f 37ff 	mov.w	r7, #4294967295	@ 0xffffffff
     76a:	6bcb      	ldr	r3, [r1, #60]	@ 0x3c
     76c:	b0fb      	sub	sp, #492	@ 0x1ec
     76e:	640b      	str	r3, [r1, #64]	@ 0x40
     770:	ac01      	add	r4, sp, #4
     772:	f101 0c04 	add.w	ip, r1, #4
     776:	460e      	mov	r6, r1
     778:	4605      	mov	r5, r0
     77a:	e8bc 000f 	ldmia.w	ip!, {r0, r1, r2, r3}
     77e:	c40f      	stmia	r4!, {r0, r1, r2, r3}
     780:	e8bc 000f 	ldmia.w	ip!, {r0, r1, r2, r3}
     784:	c40f      	stmia	r4!, {r0, r1, r2, r3}
     786:	e8bc 000f 	ldmia.w	ip!, {r0, r1, r2, r3}
     78a:	c40f      	stmia	r4!, {r0, r1, r2, r3}
     78c:	e89c 000f 	ldmia.w	ip, {r0, r1, r2, r3}
     790:	e884 000f 	stmia.w	r4, {r0, r1, r2, r3}
     794:	9700      	str	r7, [sp, #0]
     796:	e006      	b.n	7a6 <__gnu_Unwind_RaiseException+0x42>
     798:	466a      	mov	r2, sp
     79a:	4629      	mov	r1, r5
     79c:	692b      	ldr	r3, [r5, #16]
     79e:	4798      	blx	r3
     7a0:	2808      	cmp	r0, #8
     7a2:	4604      	mov	r4, r0
     7a4:	d108      	bne.n	7b8 <__gnu_Unwind_RaiseException+0x54>
     7a6:	4628      	mov	r0, r5
     7a8:	9910      	ldr	r1, [sp, #64]	@ 0x40
     7aa:	f7ff fec9 	bl	540 <get_eit_entry>
     7ae:	2800      	cmp	r0, #0
     7b0:	d0f2      	beq.n	798 <__gnu_Unwind_RaiseException+0x34>
     7b2:	2009      	movs	r0, #9
     7b4:	b07b      	add	sp, #492	@ 0x1ec
     7b6:	bdf0      	pop	{r4, r5, r6, r7, pc}
     7b8:	4668      	mov	r0, sp
     7ba:	f7ff ff0d 	bl	5d8 <restore_non_core_regs>
     7be:	2c06      	cmp	r4, #6
     7c0:	d1f7      	bne.n	7b2 <__gnu_Unwind_RaiseException+0x4e>
     7c2:	4631      	mov	r1, r6
     7c4:	4628      	mov	r0, r5
     7c6:	f7ff ff3d 	bl	644 <unwind_phase2>
     7ca:	bf00      	nop

000007cc <__gnu_Unwind_ForcedUnwind>:
     7cc:	b410      	push	{r4}
     7ce:	4614      	mov	r4, r2
     7d0:	6184      	str	r4, [r0, #24]
     7d2:	6bdc      	ldr	r4, [r3, #60]	@ 0x3c
     7d4:	60c1      	str	r1, [r0, #12]
     7d6:	2200      	movs	r2, #0
     7d8:	641c      	str	r4, [r3, #64]	@ 0x40
     7da:	4619      	mov	r1, r3
     7dc:	bc10      	pop	{r4}
     7de:	e74f      	b.n	680 <unwind_phase2_forced>

000007e0 <__gnu_Unwind_Resume>:
     7e0:	b570      	push	{r4, r5, r6, lr}
     7e2:	6943      	ldr	r3, [r0, #20]
     7e4:	68c6      	ldr	r6, [r0, #12]
     7e6:	640b      	str	r3, [r1, #64]	@ 0x40
     7e8:	b9ae      	cbnz	r6, 816 <__gnu_Unwind_Resume+0x36>
     7ea:	460a      	mov	r2, r1
     7ec:	6903      	ldr	r3, [r0, #16]
     7ee:	4604      	mov	r4, r0
     7f0:	460d      	mov	r5, r1
     7f2:	4601      	mov	r1, r0
     7f4:	2002      	movs	r0, #2
     7f6:	4798      	blx	r3
     7f8:	2807      	cmp	r0, #7
     7fa:	d005      	beq.n	808 <__gnu_Unwind_Resume+0x28>
     7fc:	2808      	cmp	r0, #8
     7fe:	d10e      	bne.n	81e <__gnu_Unwind_Resume+0x3e>
     800:	4629      	mov	r1, r5
     802:	4620      	mov	r0, r4
     804:	f7ff ff1e 	bl	644 <unwind_phase2>
     808:	4630      	mov	r0, r6
     80a:	6c29      	ldr	r1, [r5, #64]	@ 0x40
     80c:	f7ff ff18 	bl	640 <_Unwind_DebugHook>
     810:	1d28      	adds	r0, r5, #4
     812:	f000 fb75 	bl	f00 <__restore_core_regs>
     816:	2201      	movs	r2, #1
     818:	f7ff ff32 	bl	680 <unwind_phase2_forced>
     81c:	deff      	udf	#255	@ 0xff
     81e:	deff      	udf	#255	@ 0xff

00000820 <__gnu_Unwind_Resume_or_Rethrow>:
     820:	68c2      	ldr	r2, [r0, #12]
     822:	b12a      	cbz	r2, 830 <__gnu_Unwind_Resume_or_Rethrow+0x10>
     824:	f8d1 c03c 	ldr.w	ip, [r1, #60]	@ 0x3c
     828:	2200      	movs	r2, #0
     82a:	f8c1 c040 	str.w	ip, [r1, #64]	@ 0x40
     82e:	e727      	b.n	680 <unwind_phase2_forced>
     830:	e798      	b.n	764 <__gnu_Unwind_RaiseException>
     832:	bf00      	nop

00000834 <_Unwind_Complete>:
     834:	4770      	bx	lr
     836:	bf00      	nop

00000838 <_Unwind_DeleteException>:
     838:	6883      	ldr	r3, [r0, #8]
     83a:	4601      	mov	r1, r0
     83c:	b10b      	cbz	r3, 842 <_Unwind_DeleteException+0xa>
     83e:	2001      	movs	r0, #1
     840:	4718      	bx	r3
     842:	4770      	bx	lr

00000844 <_Unwind_VRS_Get>:
     844:	2905      	cmp	r1, #5
     846:	d815      	bhi.n	874 <_Unwind_VRS_Get+0x30>
     848:	e8df f001 	tbb	[pc, r1]
     84c:	0314030a 	tsteq	r4, #671088640	@ 0x28000000
     850:	20010503 	andcs	r0, r1, r3, lsl #10
     854:	4770      	bx	lr
     856:	6c43      	ldr	r3, [r0, #68]	@ 0x44
     858:	9a00      	ldr	r2, [sp, #0]
     85a:	2000      	movs	r0, #0
     85c:	6013      	str	r3, [r2, #0]
     85e:	4770      	bx	lr
     860:	b943      	cbnz	r3, 874 <_Unwind_VRS_Get+0x30>
     862:	2a0f      	cmp	r2, #15
     864:	d806      	bhi.n	874 <_Unwind_VRS_Get+0x30>
     866:	eb00 0282 	add.w	r2, r0, r2, lsl #2
     86a:	6853      	ldr	r3, [r2, #4]
     86c:	9a00      	ldr	r2, [sp, #0]
     86e:	2000      	movs	r0, #0
     870:	6013      	str	r3, [r2, #0]
     872:	4770      	bx	lr
     874:	2002      	movs	r0, #2
     876:	4770      	bx	lr

00000878 <_Unwind_GetGR>:
     878:	2300      	movs	r3, #0
     87a:	b500      	push	{lr}
     87c:	b085      	sub	sp, #20
     87e:	460a      	mov	r2, r1
     880:	a903      	add	r1, sp, #12
     882:	9100      	str	r1, [sp, #0]
     884:	4619      	mov	r1, r3
     886:	f7ff ffdd 	bl	844 <_Unwind_VRS_Get>
     88a:	9803      	ldr	r0, [sp, #12]
     88c:	b005      	add	sp, #20
     88e:	f85d fb04 	ldr.w	pc, [sp], #4
     892:	bf00      	nop

00000894 <_Unwind_VRS_Set>:
     894:	2905      	cmp	r1, #5
     896:	d815      	bhi.n	8c4 <_Unwind_VRS_Set+0x30>
     898:	e8df f001 	tbb	[pc, r1]
     89c:	0314030a 	tsteq	r4, #671088640	@ 0x28000000
     8a0:	20010503 	andcs	r0, r1, r3, lsl #10
     8a4:	4770      	bx	lr
     8a6:	9b00      	ldr	r3, [sp, #0]
     8a8:	681b      	ldr	r3, [r3, #0]
     8aa:	6443      	str	r3, [r0, #68]	@ 0x44
     8ac:	2000      	movs	r0, #0
     8ae:	4770      	bx	lr
     8b0:	b943      	cbnz	r3, 8c4 <_Unwind_VRS_Set+0x30>
     8b2:	2a0f      	cmp	r2, #15
     8b4:	d806      	bhi.n	8c4 <_Unwind_VRS_Set+0x30>
     8b6:	9b00      	ldr	r3, [sp, #0]
     8b8:	eb00 0282 	add.w	r2, r0, r2, lsl #2
     8bc:	681b      	ldr	r3, [r3, #0]
     8be:	2000      	movs	r0, #0
     8c0:	6053      	str	r3, [r2, #4]
     8c2:	4770      	bx	lr
     8c4:	2002      	movs	r0, #2
     8c6:	4770      	bx	lr

000008c8 <_Unwind_SetGR>:
     8c8:	2300      	movs	r3, #0
     8ca:	b510      	push	{r4, lr}
     8cc:	b084      	sub	sp, #16
     8ce:	ac03      	add	r4, sp, #12
     8d0:	9203      	str	r2, [sp, #12]
     8d2:	9400      	str	r4, [sp, #0]
     8d4:	460a      	mov	r2, r1
     8d6:	4619      	mov	r1, r3
     8d8:	f7ff ffdc 	bl	894 <_Unwind_VRS_Set>
     8dc:	b004      	add	sp, #16
     8de:	bd10      	pop	{r4, pc}

000008e0 <__gnu_Unwind_Backtrace>:
     8e0:	b570      	push	{r4, r5, r6, lr}
     8e2:	f04f 36ff 	mov.w	r6, #4294967295	@ 0xffffffff
     8e6:	6bd3      	ldr	r3, [r2, #60]	@ 0x3c
     8e8:	f5ad 7d10 	sub.w	sp, sp, #576	@ 0x240
     8ec:	6413      	str	r3, [r2, #64]	@ 0x40
     8ee:	f10d 0e5c 	add.w	lr, sp, #92	@ 0x5c
     8f2:	f102 0c04 	add.w	ip, r2, #4
     8f6:	4605      	mov	r5, r0
     8f8:	460c      	mov	r4, r1
     8fa:	e8bc 000f 	ldmia.w	ip!, {r0, r1, r2, r3}
     8fe:	e8ae 000f 	stmia.w	lr!, {r0, r1, r2, r3}
     902:	e8bc 000f 	ldmia.w	ip!, {r0, r1, r2, r3}
     906:	e8ae 000f 	stmia.w	lr!, {r0, r1, r2, r3}
     90a:	e8bc 000f 	ldmia.w	ip!, {r0, r1, r2, r3}
     90e:	e8ae 000f 	stmia.w	lr!, {r0, r1, r2, r3}
     912:	e89c 000f 	ldmia.w	ip, {r0, r1, r2, r3}
     916:	e88e 000f 	stmia.w	lr, {r0, r1, r2, r3}
     91a:	9616      	str	r6, [sp, #88]	@ 0x58
     91c:	e012      	b.n	944 <__gnu_Unwind_Backtrace+0x64>
     91e:	210c      	movs	r1, #12
     920:	a816      	add	r0, sp, #88	@ 0x58
     922:	466a      	mov	r2, sp
     924:	f7ff ffd0 	bl	8c8 <_Unwind_SetGR>
     928:	4621      	mov	r1, r4
     92a:	a816      	add	r0, sp, #88	@ 0x58
     92c:	47a8      	blx	r5
     92e:	b978      	cbnz	r0, 950 <__gnu_Unwind_Backtrace+0x70>
     930:	4669      	mov	r1, sp
     932:	2008      	movs	r0, #8
     934:	9b04      	ldr	r3, [sp, #16]
     936:	aa16      	add	r2, sp, #88	@ 0x58
     938:	4798      	blx	r3
     93a:	2805      	cmp	r0, #5
     93c:	4606      	mov	r6, r0
     93e:	d008      	beq.n	952 <__gnu_Unwind_Backtrace+0x72>
     940:	2809      	cmp	r0, #9
     942:	d005      	beq.n	950 <__gnu_Unwind_Backtrace+0x70>
     944:	4668      	mov	r0, sp
     946:	9926      	ldr	r1, [sp, #152]	@ 0x98
     948:	f7ff fdfa 	bl	540 <get_eit_entry>
     94c:	2800      	cmp	r0, #0
     94e:	d0e6      	beq.n	91e <__gnu_Unwind_Backtrace+0x3e>
     950:	2609      	movs	r6, #9
     952:	a816      	add	r0, sp, #88	@ 0x58
     954:	f7ff fe40 	bl	5d8 <restore_non_core_regs>
     958:	4630      	mov	r0, r6
     95a:	f50d 7d10 	add.w	sp, sp, #576	@ 0x240
     95e:	bd70      	pop	{r4, r5, r6, pc}

00000960 <__gnu_unwind_pr_common>:
     960:	e92d 4ff0 	stmdb	sp!, {r4, r5, r6, r7, r8, r9, sl, fp, lr}
     964:	4616      	mov	r6, r2
     966:	6cca      	ldr	r2, [r1, #76]	@ 0x4c
     968:	460d      	mov	r5, r1
     96a:	f852 1b04 	ldr.w	r1, [r2], #4
     96e:	b089      	sub	sp, #36	@ 0x24
     970:	f000 0c03 	and.w	ip, r0, #3
     974:	9206      	str	r2, [sp, #24]
     976:	2b00      	cmp	r3, #0
     978:	d079      	beq.n	a6e <__gnu_unwind_pr_common+0x10e>
     97a:	2402      	movs	r4, #2
     97c:	0c0f      	lsrs	r7, r1, #16
     97e:	f88d 701d 	strb.w	r7, [sp, #29]
     982:	0409      	lsls	r1, r1, #16
     984:	b2ff      	uxtb	r7, r7
     986:	9105      	str	r1, [sp, #20]
     988:	eb02 0287 	add.w	r2, r2, r7, lsl #2
     98c:	6d29      	ldr	r1, [r5, #80]	@ 0x50
     98e:	f1bc 0f02 	cmp.w	ip, #2
     992:	bf08      	it	eq
     994:	6baa      	ldreq	r2, [r5, #56]	@ 0x38
     996:	f011 0801 	ands.w	r8, r1, #1
     99a:	f88d 401c 	strb.w	r4, [sp, #28]
     99e:	d009      	beq.n	9b4 <__gnu_unwind_pr_common+0x54>
     9a0:	4630      	mov	r0, r6
     9a2:	a905      	add	r1, sp, #20
     9a4:	f000 fbae 	bl	1104 <__gnu_unwind_execute>
     9a8:	2800      	cmp	r0, #0
     9aa:	d156      	bne.n	a5a <__gnu_unwind_pr_common+0xfa>
     9ac:	2008      	movs	r0, #8
     9ae:	b009      	add	sp, #36	@ 0x24
     9b0:	e8bd 8ff0 	ldmia.w	sp!, {r4, r5, r6, r7, r8, r9, sl, fp, pc}
     9b4:	6817      	ldr	r7, [r2, #0]
     9b6:	2f00      	cmp	r7, #0
     9b8:	d0f2      	beq.n	9a0 <__gnu_unwind_pr_common+0x40>
     9ba:	46e3      	mov	fp, ip
     9bc:	469a      	mov	sl, r3
     9be:	f000 0108 	and.w	r1, r0, #8
     9c2:	e9cd 1801 	strd	r1, r8, [sp, #4]
     9c6:	f1ba 0f02 	cmp.w	sl, #2
     9ca:	d04c      	beq.n	a66 <__gnu_unwind_pr_common+0x106>
     9cc:	8817      	ldrh	r7, [r2, #0]
     9ce:	8854      	ldrh	r4, [r2, #2]
     9d0:	f102 0904 	add.w	r9, r2, #4
     9d4:	6caa      	ldr	r2, [r5, #72]	@ 0x48
     9d6:	f024 0301 	bic.w	r3, r4, #1
     9da:	210f      	movs	r1, #15
     9dc:	4630      	mov	r0, r6
     9de:	eb03 0802 	add.w	r8, r3, r2
     9e2:	f7ff ff49 	bl	878 <_Unwind_GetGR>
     9e6:	4580      	cmp	r8, r0
     9e8:	d83b      	bhi.n	a62 <__gnu_unwind_pr_common+0x102>
     9ea:	f027 0201 	bic.w	r2, r7, #1
     9ee:	eb02 0308 	add.w	r3, r2, r8
     9f2:	4283      	cmp	r3, r0
     9f4:	bf94      	ite	ls
     9f6:	2300      	movls	r3, #0
     9f8:	2301      	movhi	r3, #1
     9fa:	0064      	lsls	r4, r4, #1
     9fc:	f004 0402 	and.w	r4, r4, #2
     a00:	f007 0701 	and.w	r7, r7, #1
     a04:	4327      	orrs	r7, r4
     a06:	2f01      	cmp	r7, #1
     a08:	d04e      	beq.n	aa8 <__gnu_unwind_pr_common+0x148>
     a0a:	2f02      	cmp	r7, #2
     a0c:	d035      	beq.n	a7a <__gnu_unwind_pr_common+0x11a>
     a0e:	bb27      	cbnz	r7, a5a <__gnu_unwind_pr_common+0xfa>
     a10:	f1bb 0f00 	cmp.w	fp, #0
     a14:	d002      	beq.n	a1c <__gnu_unwind_pr_common+0xbc>
     a16:	2b00      	cmp	r3, #0
     a18:	f040 80d4 	bne.w	bc4 <__gnu_unwind_pr_common+0x264>
     a1c:	f109 0204 	add.w	r2, r9, #4
     a20:	6817      	ldr	r7, [r2, #0]
     a22:	2f00      	cmp	r7, #0
     a24:	d1cf      	bne.n	9c6 <__gnu_unwind_pr_common+0x66>
     a26:	4630      	mov	r0, r6
     a28:	a905      	add	r1, sp, #20
     a2a:	f8dd 8008 	ldr.w	r8, [sp, #8]
     a2e:	f000 fb69 	bl	1104 <__gnu_unwind_execute>
     a32:	b990      	cbnz	r0, a5a <__gnu_unwind_pr_common+0xfa>
     a34:	f1b8 0f00 	cmp.w	r8, #0
     a38:	d0b8      	beq.n	9ac <__gnu_unwind_pr_common+0x4c>
     a3a:	210f      	movs	r1, #15
     a3c:	4630      	mov	r0, r6
     a3e:	f7ff ff1b 	bl	878 <_Unwind_GetGR>
     a42:	210e      	movs	r1, #14
     a44:	4602      	mov	r2, r0
     a46:	4630      	mov	r0, r6
     a48:	f7ff ff3e 	bl	8c8 <_Unwind_SetGR>
     a4c:	210f      	movs	r1, #15
     a4e:	4630      	mov	r0, r6
     a50:	4a6c      	ldr	r2, [pc, #432]	@ (c04 <__HEAP_SIZE+0x4>)
     a52:	f7ff ff39 	bl	8c8 <_Unwind_SetGR>
     a56:	2007      	movs	r0, #7
     a58:	e000      	b.n	a5c <__gnu_unwind_pr_common+0xfc>
     a5a:	2009      	movs	r0, #9
     a5c:	b009      	add	sp, #36	@ 0x24
     a5e:	e8bd 8ff0 	ldmia.w	sp!, {r4, r5, r6, r7, r8, r9, sl, fp, pc}
     a62:	2300      	movs	r3, #0
     a64:	e7c9      	b.n	9fa <__gnu_unwind_pr_common+0x9a>
     a66:	6854      	ldr	r4, [r2, #4]
     a68:	f102 0908 	add.w	r9, r2, #8
     a6c:	e7b2      	b.n	9d4 <__gnu_unwind_pr_common+0x74>
     a6e:	0209      	lsls	r1, r1, #8
     a70:	2403      	movs	r4, #3
     a72:	9105      	str	r1, [sp, #20]
     a74:	f88d 301d 	strb.w	r3, [sp, #29]
     a78:	e788      	b.n	98c <__gnu_unwind_pr_common+0x2c>
     a7a:	f8d9 4000 	ldr.w	r4, [r9]
     a7e:	f024 4800 	bic.w	r8, r4, #2147483648	@ 0x80000000
     a82:	f1bb 0f00 	cmp.w	fp, #0
     a86:	d147      	bne.n	b18 <__gnu_unwind_pr_common+0x1b8>
     a88:	b12b      	cbz	r3, a96 <__gnu_unwind_pr_common+0x136>
     a8a:	9b01      	ldr	r3, [sp, #4]
     a8c:	2b00      	cmp	r3, #0
     a8e:	d05c      	beq.n	b4a <__gnu_unwind_pr_common+0x1ea>
     a90:	f1b8 0f00 	cmp.w	r8, #0
     a94:	d059      	beq.n	b4a <__gnu_unwind_pr_common+0x1ea>
     a96:	2c00      	cmp	r4, #0
     a98:	da01      	bge.n	a9e <__gnu_unwind_pr_common+0x13e>
     a9a:	f109 0904 	add.w	r9, r9, #4
     a9e:	f108 0201 	add.w	r2, r8, #1
     aa2:	eb09 0282 	add.w	r2, r9, r2, lsl #2
     aa6:	e7bb      	b.n	a20 <__gnu_unwind_pr_common+0xc0>
     aa8:	f1bb 0f00 	cmp.w	fp, #0
     aac:	d11c      	bne.n	ae8 <__gnu_unwind_pr_common+0x188>
     aae:	b1c3      	cbz	r3, ae2 <__gnu_unwind_pr_common+0x182>
     ab0:	f8d9 3004 	ldr.w	r3, [r9, #4]
     ab4:	f8d9 2000 	ldr.w	r2, [r9]
     ab8:	1c99      	adds	r1, r3, #2
     aba:	ea4f 72d2 	mov.w	r2, r2, lsr #31
     abe:	d0cc      	beq.n	a5a <__gnu_unwind_pr_common+0xfa>
     ac0:	f105 0458 	add.w	r4, r5, #88	@ 0x58
     ac4:	3301      	adds	r3, #1
     ac6:	9404      	str	r4, [sp, #16]
     ac8:	f000 808f 	beq.w	bea <__gnu_unwind_pr_common+0x28a>
     acc:	f109 0004 	add.w	r0, r9, #4
     ad0:	f7ff fdae 	bl	630 <_Unwind_decode_typeinfo_ptr.constprop.0>
     ad4:	ab04      	add	r3, sp, #16
     ad6:	4601      	mov	r1, r0
     ad8:	4628      	mov	r0, r5
     ada:	f3af 8000 	nop.w
     ade:	2800      	cmp	r0, #0
     ae0:	d159      	bne.n	b96 <__gnu_unwind_pr_common+0x236>
     ae2:	f109 0208 	add.w	r2, r9, #8
     ae6:	e79b      	b.n	a20 <__gnu_unwind_pr_common+0xc0>
     ae8:	210d      	movs	r1, #13
     aea:	4630      	mov	r0, r6
     aec:	f7ff fec4 	bl	878 <_Unwind_GetGR>
     af0:	6a2c      	ldr	r4, [r5, #32]
     af2:	4284      	cmp	r4, r0
     af4:	d1f5      	bne.n	ae2 <__gnu_unwind_pr_common+0x182>
     af6:	6aab      	ldr	r3, [r5, #40]	@ 0x28
     af8:	4599      	cmp	r9, r3
     afa:	d1f2      	bne.n	ae2 <__gnu_unwind_pr_common+0x182>
     afc:	4648      	mov	r0, r9
     afe:	f7ff fccf 	bl	4a0 <selfrel_offset31>
     b02:	210f      	movs	r1, #15
     b04:	4602      	mov	r2, r0
     b06:	4630      	mov	r0, r6
     b08:	f7ff fede 	bl	8c8 <_Unwind_SetGR>
     b0c:	462a      	mov	r2, r5
     b0e:	2100      	movs	r1, #0
     b10:	4630      	mov	r0, r6
     b12:	f7ff fed9 	bl	8c8 <_Unwind_SetGR>
     b16:	e79e      	b.n	a56 <__gnu_unwind_pr_common+0xf6>
     b18:	210d      	movs	r1, #13
     b1a:	4630      	mov	r0, r6
     b1c:	f7ff feac 	bl	878 <_Unwind_GetGR>
     b20:	6a2f      	ldr	r7, [r5, #32]
     b22:	4287      	cmp	r7, r0
     b24:	d1b7      	bne.n	a96 <__gnu_unwind_pr_common+0x136>
     b26:	6aab      	ldr	r3, [r5, #40]	@ 0x28
     b28:	4599      	cmp	r9, r3
     b2a:	d1b4      	bne.n	a96 <__gnu_unwind_pr_common+0x136>
     b2c:	2400      	movs	r4, #0
     b2e:	2304      	movs	r3, #4
     b30:	e9c5 430b 	strd	r4, r3, [r5, #44]	@ 0x2c
     b34:	444b      	add	r3, r9
     b36:	f8c5 8028 	str.w	r8, [r5, #40]	@ 0x28
     b3a:	636b      	str	r3, [r5, #52]	@ 0x34
     b3c:	f8d9 3000 	ldr.w	r3, [r9]
     b40:	42a3      	cmp	r3, r4
     b42:	db59      	blt.n	bf8 <__gnu_unwind_pr_common+0x298>
     b44:	2301      	movs	r3, #1
     b46:	9302      	str	r3, [sp, #8]
     b48:	e7a9      	b.n	a9e <__gnu_unwind_pr_common+0x13e>
     b4a:	f105 0358 	add.w	r3, r5, #88	@ 0x58
     b4e:	f8cd b00c 	str.w	fp, [sp, #12]
     b52:	2400      	movs	r4, #0
     b54:	46b3      	mov	fp, r6
     b56:	f109 0704 	add.w	r7, r9, #4
     b5a:	461e      	mov	r6, r3
     b5c:	e00b      	b.n	b76 <__gnu_unwind_pr_common+0x216>
     b5e:	4638      	mov	r0, r7
     b60:	9604      	str	r6, [sp, #16]
     b62:	f7ff fd65 	bl	630 <_Unwind_decode_typeinfo_ptr.constprop.0>
     b66:	2200      	movs	r2, #0
     b68:	4601      	mov	r1, r0
     b6a:	ab04      	add	r3, sp, #16
     b6c:	4628      	mov	r0, r5
     b6e:	f3af 8000 	nop.w
     b72:	3704      	adds	r7, #4
     b74:	bb00      	cbnz	r0, bb8 <__gnu_unwind_pr_common+0x258>
     b76:	4544      	cmp	r4, r8
     b78:	f104 0401 	add.w	r4, r4, #1
     b7c:	d1ef      	bne.n	b5e <__gnu_unwind_pr_common+0x1fe>
     b7e:	210d      	movs	r1, #13
     b80:	4658      	mov	r0, fp
     b82:	f7ff fe79 	bl	878 <_Unwind_GetGR>
     b86:	4602      	mov	r2, r0
     b88:	9b04      	ldr	r3, [sp, #16]
     b8a:	2006      	movs	r0, #6
     b8c:	e9c5 2308 	strd	r2, r3, [r5, #32]
     b90:	f8c5 9028 	str.w	r9, [r5, #40]	@ 0x28
     b94:	e762      	b.n	a5c <__gnu_unwind_pr_common+0xfc>
     b96:	4604      	mov	r4, r0
     b98:	210d      	movs	r1, #13
     b9a:	4630      	mov	r0, r6
     b9c:	f7ff fe6c 	bl	878 <_Unwind_GetGR>
     ba0:	9e04      	ldr	r6, [sp, #16]
     ba2:	2c02      	cmp	r4, #2
     ba4:	bf08      	it	eq
     ba6:	62ee      	streq	r6, [r5, #44]	@ 0x2c
     ba8:	6228      	str	r0, [r5, #32]
     baa:	bf08      	it	eq
     bac:	f105 062c 	addeq.w	r6, r5, #44	@ 0x2c
     bb0:	2006      	movs	r0, #6
     bb2:	e9c5 6909 	strd	r6, r9, [r5, #36]	@ 0x24
     bb6:	e751      	b.n	a5c <__gnu_unwind_pr_common+0xfc>
     bb8:	465e      	mov	r6, fp
     bba:	f8d9 4000 	ldr.w	r4, [r9]
     bbe:	f8dd b00c 	ldr.w	fp, [sp, #12]
     bc2:	e768      	b.n	a96 <__gnu_unwind_pr_common+0x136>
     bc4:	4648      	mov	r0, r9
     bc6:	f7ff fc6b 	bl	4a0 <selfrel_offset31>
     bca:	f109 0204 	add.w	r2, r9, #4
     bce:	4604      	mov	r4, r0
     bd0:	63aa      	str	r2, [r5, #56]	@ 0x38
     bd2:	4628      	mov	r0, r5
     bd4:	f3af 8000 	nop.w
     bd8:	2800      	cmp	r0, #0
     bda:	f43f af3e 	beq.w	a5a <__gnu_unwind_pr_common+0xfa>
     bde:	4622      	mov	r2, r4
     be0:	210f      	movs	r1, #15
     be2:	4630      	mov	r0, r6
     be4:	f7ff fe70 	bl	8c8 <_Unwind_SetGR>
     be8:	e735      	b.n	a56 <__gnu_unwind_pr_common+0xf6>
     bea:	4630      	mov	r0, r6
     bec:	210d      	movs	r1, #13
     bee:	f7ff fe43 	bl	878 <_Unwind_GetGR>
     bf2:	4626      	mov	r6, r4
     bf4:	6228      	str	r0, [r5, #32]
     bf6:	e7db      	b.n	bb0 <__gnu_unwind_pr_common+0x250>
     bf8:	f108 0201 	add.w	r2, r8, #1
     bfc:	eb09 0082 	add.w	r0, r9, r2, lsl #2
     c00:	e77d      	b.n	afe <__gnu_unwind_pr_common+0x19e>
     c02:	bf00      	nop
     c04:	00000000 	andeq	r0, r0, r0

00000c08 <__aeabi_unwind_cpp_pr0>:
     c08:	2300      	movs	r3, #0
     c0a:	e6a9      	b.n	960 <__gnu_unwind_pr_common>

00000c0c <__aeabi_unwind_cpp_pr1>:
     c0c:	2301      	movs	r3, #1
     c0e:	e6a7      	b.n	960 <__gnu_unwind_pr_common>

00000c10 <__aeabi_unwind_cpp_pr2>:
     c10:	2302      	movs	r3, #2
     c12:	e6a5      	b.n	960 <__gnu_unwind_pr_common>

00000c14 <_Unwind_VRS_Pop>:
     c14:	e92d 41f0 	stmdb	sp!, {r4, r5, r6, r7, r8, lr}
     c18:	4605      	mov	r5, r0
     c1a:	4614      	mov	r4, r2
     c1c:	b0c4      	sub	sp, #272	@ 0x110
     c1e:	2905      	cmp	r1, #5
     c20:	f200 80d7 	bhi.w	dd2 <_Unwind_VRS_Pop+0x1be>
     c24:	e8df f011 	tbh	[pc, r1, lsl #1]
     c28:	002a0012 	eoreq	r0, sl, r2, lsl r0
     c2c:	006900d5 	ldrdeq	r0, [r9], #-5	@ <UNPREDICTABLE>
     c30:	00060090 	muleq	r6, r0, r0
     c34:	6b83      	ldr	r3, [r0, #56]	@ 0x38
     c36:	2c00      	cmp	r4, #0
     c38:	f040 80cb 	bne.w	dd2 <_Unwind_VRS_Pop+0x1be>
     c3c:	f853 2b04 	ldr.w	r2, [r3], #4
     c40:	6442      	str	r2, [r0, #68]	@ 0x44
     c42:	6383      	str	r3, [r0, #56]	@ 0x38
     c44:	2000      	movs	r0, #0
     c46:	b044      	add	sp, #272	@ 0x110
     c48:	e8bd 81f0 	ldmia.w	sp!, {r4, r5, r6, r7, r8, pc}
     c4c:	2b00      	cmp	r3, #0
     c4e:	f040 80c0 	bne.w	dd2 <_Unwind_VRS_Pop+0x1be>
     c52:	f04f 0e01 	mov.w	lr, #1
     c56:	6b81      	ldr	r1, [r0, #56]	@ 0x38
     c58:	1d2a      	adds	r2, r5, #4
     c5a:	b2a0      	uxth	r0, r4
     c5c:	fa0e fc03 	lsl.w	ip, lr, r3
     c60:	ea1c 0f00 	tst.w	ip, r0
     c64:	bf1c      	itt	ne
     c66:	f851 6b04 	ldrne.w	r6, [r1], #4
     c6a:	f842 6023 	strne.w	r6, [r2, r3, lsl #2]
     c6e:	3301      	adds	r3, #1
     c70:	2b10      	cmp	r3, #16
     c72:	d1f3      	bne.n	c5c <_Unwind_VRS_Pop+0x48>
     c74:	04a0      	lsls	r0, r4, #18
     c76:	d4e5      	bmi.n	c44 <_Unwind_VRS_Pop+0x30>
     c78:	63a9      	str	r1, [r5, #56]	@ 0x38
     c7a:	e7e3      	b.n	c44 <_Unwind_VRS_Pop+0x30>
     c7c:	2b01      	cmp	r3, #1
     c7e:	ea4f 4714 	mov.w	r7, r4, lsr #16
     c82:	b2a4      	uxth	r4, r4
     c84:	f000 8085 	beq.w	d92 <_Unwind_VRS_Pop+0x17e>
     c88:	2b05      	cmp	r3, #5
     c8a:	f040 80a2 	bne.w	dd2 <_Unwind_VRS_Pop+0x1be>
     c8e:	eb07 0804 	add.w	r8, r7, r4
     c92:	f1b8 0f20 	cmp.w	r8, #32
     c96:	f200 809c 	bhi.w	dd2 <_Unwind_VRS_Pop+0x1be>
     c9a:	2f0f      	cmp	r7, #15
     c9c:	f240 809b 	bls.w	dd6 <_Unwind_VRS_Pop+0x1c2>
     ca0:	2c00      	cmp	r4, #0
     ca2:	d0cf      	beq.n	c44 <_Unwind_VRS_Pop+0x30>
     ca4:	6802      	ldr	r2, [r0, #0]
     ca6:	0756      	lsls	r6, r2, #29
     ca8:	f100 811a 	bmi.w	ee0 <_Unwind_VRS_Pop+0x2cc>
     cac:	9301      	str	r3, [sp, #4]
     cae:	ae02      	add	r6, sp, #8
     cb0:	4630      	mov	r0, r6
     cb2:	f000 f945 	bl	f40 <__gnu_Unwind_Save_VFP_D_16_to_31>
     cb6:	ea4f 0c44 	mov.w	ip, r4, lsl #1
     cba:	f1a7 0210 	sub.w	r2, r7, #16
     cbe:	6ba8      	ldr	r0, [r5, #56]	@ 0x38
     cc0:	9b01      	ldr	r3, [sp, #4]
     cc2:	f10c 3cff 	add.w	ip, ip, #4294967295	@ 0xffffffff
     cc6:	eb06 02c2 	add.w	r2, r6, r2, lsl #3
     cca:	f10c 0c01 	add.w	ip, ip, #1
     cce:	3a04      	subs	r2, #4
     cd0:	eb00 018c 	add.w	r1, r0, ip, lsl #2
     cd4:	f850 4b04 	ldr.w	r4, [r0], #4
     cd8:	4288      	cmp	r0, r1
     cda:	f842 4f04 	str.w	r4, [r2, #4]!
     cde:	d1f9      	bne.n	cd4 <_Unwind_VRS_Pop+0xc0>
     ce0:	2b01      	cmp	r3, #1
     ce2:	f000 80e0 	beq.w	ea6 <_Unwind_VRS_Pop+0x292>
     ce6:	2f0f      	cmp	r7, #15
     ce8:	63a8      	str	r0, [r5, #56]	@ 0x38
     cea:	d802      	bhi.n	cf2 <_Unwind_VRS_Pop+0xde>
     cec:	a822      	add	r0, sp, #136	@ 0x88
     cee:	f000 f91b 	bl	f28 <__gnu_Unwind_Restore_VFP_D>
     cf2:	4630      	mov	r0, r6
     cf4:	f000 f920 	bl	f38 <__gnu_Unwind_Restore_VFP_D_16_to_31>
     cf8:	e7a4      	b.n	c44 <_Unwind_VRS_Pop+0x30>
     cfa:	2b03      	cmp	r3, #3
     cfc:	d169      	bne.n	dd2 <_Unwind_VRS_Pop+0x1be>
     cfe:	fa1f f884 	uxth.w	r8, r4
     d02:	eb08 4314 	add.w	r3, r8, r4, lsr #16
     d06:	2b10      	cmp	r3, #16
     d08:	ea4f 4414 	mov.w	r4, r4, lsr #16
     d0c:	d861      	bhi.n	dd2 <_Unwind_VRS_Pop+0x1be>
     d0e:	6803      	ldr	r3, [r0, #0]
     d10:	0718      	lsls	r0, r3, #28
     d12:	f100 80c0 	bmi.w	e96 <_Unwind_VRS_Pop+0x282>
     d16:	ae22      	add	r6, sp, #136	@ 0x88
     d18:	4630      	mov	r0, r6
     d1a:	f000 f937 	bl	f8c <__gnu_Unwind_Save_WMMXD>
     d1e:	ea4f 0148 	mov.w	r1, r8, lsl #1
     d22:	6baf      	ldr	r7, [r5, #56]	@ 0x38
     d24:	eb06 02c4 	add.w	r2, r6, r4, lsl #3
     d28:	1e4b      	subs	r3, r1, #1
     d2a:	b141      	cbz	r1, d3e <_Unwind_VRS_Pop+0x12a>
     d2c:	1ab8      	subs	r0, r7, r2
     d2e:	5811      	ldr	r1, [r2, r0]
     d30:	3b01      	subs	r3, #1
     d32:	f842 1b04 	str.w	r1, [r2], #4
     d36:	1c59      	adds	r1, r3, #1
     d38:	d1f9      	bne.n	d2e <_Unwind_VRS_Pop+0x11a>
     d3a:	eb07 07c8 	add.w	r7, r7, r8, lsl #3
     d3e:	4630      	mov	r0, r6
     d40:	63af      	str	r7, [r5, #56]	@ 0x38
     d42:	f000 f901 	bl	f48 <__gnu_Unwind_Restore_WMMXD>
     d46:	e77d      	b.n	c44 <_Unwind_VRS_Pop+0x30>
     d48:	2b00      	cmp	r3, #0
     d4a:	d142      	bne.n	dd2 <_Unwind_VRS_Pop+0x1be>
     d4c:	2c10      	cmp	r4, #16
     d4e:	d840      	bhi.n	dd2 <_Unwind_VRS_Pop+0x1be>
     d50:	6803      	ldr	r3, [r0, #0]
     d52:	06de      	lsls	r6, r3, #27
     d54:	f100 8097 	bmi.w	e86 <_Unwind_VRS_Pop+0x272>
     d58:	ae22      	add	r6, sp, #136	@ 0x88
     d5a:	4630      	mov	r0, r6
     d5c:	f000 f942 	bl	fe4 <__gnu_Unwind_Save_WMMXC>
     d60:	2701      	movs	r7, #1
     d62:	2300      	movs	r3, #0
     d64:	4630      	mov	r0, r6
     d66:	6ba9      	ldr	r1, [r5, #56]	@ 0x38
     d68:	fa07 f203 	lsl.w	r2, r7, r3
     d6c:	4222      	tst	r2, r4
     d6e:	f103 0301 	add.w	r3, r3, #1
     d72:	d005      	beq.n	d80 <_Unwind_VRS_Pop+0x16c>
     d74:	460a      	mov	r2, r1
     d76:	f852 cb04 	ldr.w	ip, [r2], #4
     d7a:	4611      	mov	r1, r2
     d7c:	f8c0 c000 	str.w	ip, [r0]
     d80:	2b04      	cmp	r3, #4
     d82:	f100 0004 	add.w	r0, r0, #4
     d86:	d1ef      	bne.n	d68 <_Unwind_VRS_Pop+0x154>
     d88:	4630      	mov	r0, r6
     d8a:	63a9      	str	r1, [r5, #56]	@ 0x38
     d8c:	f000 f920 	bl	fd0 <__gnu_Unwind_Restore_WMMXC>
     d90:	e758      	b.n	c44 <_Unwind_VRS_Pop+0x30>
     d92:	193a      	adds	r2, r7, r4
     d94:	2a10      	cmp	r2, #16
     d96:	d81c      	bhi.n	dd2 <_Unwind_VRS_Pop+0x1be>
     d98:	2f10      	cmp	r7, #16
     d9a:	d01a      	beq.n	dd2 <_Unwind_VRS_Pop+0x1be>
     d9c:	6802      	ldr	r2, [r0, #0]
     d9e:	07d0      	lsls	r0, r2, #31
     da0:	d508      	bpl.n	db4 <_Unwind_VRS_Pop+0x1a0>
     da2:	4628      	mov	r0, r5
     da4:	f022 0203 	bic.w	r2, r2, #3
     da8:	f840 2b50 	str.w	r2, [r0], #80
     dac:	9301      	str	r3, [sp, #4]
     dae:	f000 f8b7 	bl	f20 <__gnu_Unwind_Save_VFP>
     db2:	9b01      	ldr	r3, [sp, #4]
     db4:	ae22      	add	r6, sp, #136	@ 0x88
     db6:	4630      	mov	r0, r6
     db8:	9301      	str	r3, [sp, #4]
     dba:	f000 f8b1 	bl	f20 <__gnu_Unwind_Save_VFP>
     dbe:	6ba9      	ldr	r1, [r5, #56]	@ 0x38
     dc0:	9b01      	ldr	r3, [sp, #4]
     dc2:	2c00      	cmp	r4, #0
     dc4:	d158      	bne.n	e78 <_Unwind_VRS_Pop+0x264>
     dc6:	3104      	adds	r1, #4
     dc8:	4630      	mov	r0, r6
     dca:	63a9      	str	r1, [r5, #56]	@ 0x38
     dcc:	f000 f8a4 	bl	f18 <__gnu_Unwind_Restore_VFP>
     dd0:	e738      	b.n	c44 <_Unwind_VRS_Pop+0x30>
     dd2:	2002      	movs	r0, #2
     dd4:	e737      	b.n	c46 <_Unwind_VRS_Pop+0x32>
     dd6:	f1b8 0f10 	cmp.w	r8, #16
     dda:	6802      	ldr	r2, [r0, #0]
     ddc:	d965      	bls.n	eaa <_Unwind_VRS_Pop+0x296>
     dde:	07d1      	lsls	r1, r2, #31
     de0:	d572      	bpl.n	ec8 <_Unwind_VRS_Pop+0x2b4>
     de2:	f022 0201 	bic.w	r2, r2, #1
     de6:	f042 0202 	orr.w	r2, r2, #2
     dea:	f840 2b50 	str.w	r2, [r0], #80
     dee:	9301      	str	r3, [sp, #4]
     df0:	f000 f89e 	bl	f30 <__gnu_Unwind_Save_VFP_D>
     df4:	682a      	ldr	r2, [r5, #0]
     df6:	9b01      	ldr	r3, [sp, #4]
     df8:	f012 0f04 	tst.w	r2, #4
     dfc:	d166      	bne.n	ecc <_Unwind_VRS_Pop+0x2b8>
     dfe:	ae22      	add	r6, sp, #136	@ 0x88
     e00:	4630      	mov	r0, r6
     e02:	9301      	str	r3, [sp, #4]
     e04:	f000 f894 	bl	f30 <__gnu_Unwind_Save_VFP_D>
     e08:	a802      	add	r0, sp, #8
     e0a:	f000 f899 	bl	f40 <__gnu_Unwind_Save_VFP_D_16_to_31>
     e0e:	f1c7 0210 	rsb	r2, r7, #16
     e12:	0052      	lsls	r2, r2, #1
     e14:	6ba9      	ldr	r1, [r5, #56]	@ 0x38
     e16:	9b01      	ldr	r3, [sp, #4]
     e18:	1e54      	subs	r4, r2, #1
     e1a:	f1a8 0c10 	sub.w	ip, r8, #16
     e1e:	eb06 02c7 	add.w	r2, r6, r7, lsl #3
     e22:	3401      	adds	r4, #1
     e24:	3a04      	subs	r2, #4
     e26:	eb01 0084 	add.w	r0, r1, r4, lsl #2
     e2a:	f851 4b04 	ldr.w	r4, [r1], #4
     e2e:	4281      	cmp	r1, r0
     e30:	f842 4f04 	str.w	r4, [r2, #4]!
     e34:	d1f9      	bne.n	e2a <_Unwind_VRS_Pop+0x216>
     e36:	f1bc 0f00 	cmp.w	ip, #0
     e3a:	d059      	beq.n	ef0 <_Unwind_VRS_Pop+0x2dc>
     e3c:	2f10      	cmp	r7, #16
     e3e:	463a      	mov	r2, r7
     e40:	bf38      	it	cc
     e42:	2210      	movcc	r2, #16
     e44:	ea4f 0c4c 	mov.w	ip, ip, lsl #1
     e48:	ae02      	add	r6, sp, #8
     e4a:	3a10      	subs	r2, #16
     e4c:	f10c 3cff 	add.w	ip, ip, #4294967295	@ 0xffffffff
     e50:	eb06 02c2 	add.w	r2, r6, r2, lsl #3
     e54:	e739      	b.n	cca <_Unwind_VRS_Pop+0xb6>
     e56:	4628      	mov	r0, r5
     e58:	f022 0201 	bic.w	r2, r2, #1
     e5c:	f042 0202 	orr.w	r2, r2, #2
     e60:	f840 2b50 	str.w	r2, [r0], #80
     e64:	ae22      	add	r6, sp, #136	@ 0x88
     e66:	9301      	str	r3, [sp, #4]
     e68:	f000 f862 	bl	f30 <__gnu_Unwind_Save_VFP_D>
     e6c:	4630      	mov	r0, r6
     e6e:	f000 f85f 	bl	f30 <__gnu_Unwind_Save_VFP_D>
     e72:	6ba9      	ldr	r1, [r5, #56]	@ 0x38
     e74:	b324      	cbz	r4, ec0 <_Unwind_VRS_Pop+0x2ac>
     e76:	9b01      	ldr	r3, [sp, #4]
     e78:	0064      	lsls	r4, r4, #1
     e7a:	f04f 0c00 	mov.w	ip, #0
     e7e:	3c01      	subs	r4, #1
     e80:	eb06 02c7 	add.w	r2, r6, r7, lsl #3
     e84:	e7cd      	b.n	e22 <_Unwind_VRS_Pop+0x20e>
     e86:	f023 0310 	bic.w	r3, r3, #16
     e8a:	6003      	str	r3, [r0, #0]
     e8c:	f500 70ec 	add.w	r0, r0, #472	@ 0x1d8
     e90:	f000 f8a8 	bl	fe4 <__gnu_Unwind_Save_WMMXC>
     e94:	e760      	b.n	d58 <_Unwind_VRS_Pop+0x144>
     e96:	f023 0308 	bic.w	r3, r3, #8
     e9a:	602b      	str	r3, [r5, #0]
     e9c:	f505 70ac 	add.w	r0, r5, #344	@ 0x158
     ea0:	f000 f874 	bl	f8c <__gnu_Unwind_Save_WMMXD>
     ea4:	e737      	b.n	d16 <_Unwind_VRS_Pop+0x102>
     ea6:	ae22      	add	r6, sp, #136	@ 0x88
     ea8:	e78d      	b.n	dc6 <_Unwind_VRS_Pop+0x1b2>
     eaa:	07d1      	lsls	r1, r2, #31
     eac:	d4d3      	bmi.n	e56 <_Unwind_VRS_Pop+0x242>
     eae:	ae22      	add	r6, sp, #136	@ 0x88
     eb0:	4630      	mov	r0, r6
     eb2:	9301      	str	r3, [sp, #4]
     eb4:	f000 f83c 	bl	f30 <__gnu_Unwind_Save_VFP_D>
     eb8:	6ba9      	ldr	r1, [r5, #56]	@ 0x38
     eba:	9b01      	ldr	r3, [sp, #4]
     ebc:	2c00      	cmp	r4, #0
     ebe:	d1db      	bne.n	e78 <_Unwind_VRS_Pop+0x264>
     ec0:	4630      	mov	r0, r6
     ec2:	f000 f831 	bl	f28 <__gnu_Unwind_Restore_VFP_D>
     ec6:	e6bd      	b.n	c44 <_Unwind_VRS_Pop+0x30>
     ec8:	0754      	lsls	r4, r2, #29
     eca:	d598      	bpl.n	dfe <_Unwind_VRS_Pop+0x1ea>
     ecc:	4628      	mov	r0, r5
     ece:	f022 0204 	bic.w	r2, r2, #4
     ed2:	f840 2bd8 	str.w	r2, [r0], #216
     ed6:	9301      	str	r3, [sp, #4]
     ed8:	f000 f832 	bl	f40 <__gnu_Unwind_Save_VFP_D_16_to_31>
     edc:	9b01      	ldr	r3, [sp, #4]
     ede:	e78e      	b.n	dfe <_Unwind_VRS_Pop+0x1ea>
     ee0:	f022 0204 	bic.w	r2, r2, #4
     ee4:	f840 2bd8 	str.w	r2, [r0], #216
     ee8:	9301      	str	r3, [sp, #4]
     eea:	f000 f829 	bl	f40 <__gnu_Unwind_Save_VFP_D_16_to_31>
     eee:	e6de      	b.n	cae <_Unwind_VRS_Pop+0x9a>
     ef0:	2b01      	cmp	r3, #1
     ef2:	f43f af68 	beq.w	dc6 <_Unwind_VRS_Pop+0x1b2>
     ef6:	2f0f      	cmp	r7, #15
     ef8:	63a9      	str	r1, [r5, #56]	@ 0x38
     efa:	f63f aea3 	bhi.w	c44 <_Unwind_VRS_Pop+0x30>
     efe:	e7df      	b.n	ec0 <_Unwind_VRS_Pop+0x2ac>

00000f00 <__restore_core_regs>:
     f00:	f100 0134 	add.w	r1, r0, #52	@ 0x34
     f04:	e891 0038 	ldmia.w	r1, {r3, r4, r5}
     f08:	469c      	mov	ip, r3
     f0a:	46a6      	mov	lr, r4
     f0c:	f84c 5d04 	str.w	r5, [ip, #-4]!
     f10:	e890 0fff 	ldmia.w	r0, {r0, r1, r2, r3, r4, r5, r6, r7, r8, r9, sl, fp}
     f14:	46e5      	mov	sp, ip
     f16:	bd00      	pop	{pc}

00000f18 <__gnu_Unwind_Restore_VFP>:
     f18:	ec90 0b21 	fldmiax	r0, {d0-d15}	@ Deprecated
     f1c:	4770      	bx	lr
     f1e:	bf00      	nop

00000f20 <__gnu_Unwind_Save_VFP>:
     f20:	ec80 0b21 	fstmiax	r0, {d0-d15}	@ Deprecated
     f24:	4770      	bx	lr
     f26:	bf00      	nop

00000f28 <__gnu_Unwind_Restore_VFP_D>:
     f28:	ec90 0b20 	vldmia	r0, {d0-d15}
     f2c:	4770      	bx	lr
     f2e:	bf00      	nop

00000f30 <__gnu_Unwind_Save_VFP_D>:
     f30:	ec80 0b20 	vstmia	r0, {d0-d15}
     f34:	4770      	bx	lr
     f36:	bf00      	nop

00000f38 <__gnu_Unwind_Restore_VFP_D_16_to_31>:
     f38:	ecd0 0b20 	vldmia	r0, {d16-d31}
     f3c:	4770      	bx	lr
     f3e:	bf00      	nop

00000f40 <__gnu_Unwind_Save_VFP_D_16_to_31>:
     f40:	ecc0 0b20 	vstmia	r0, {d16-d31}
     f44:	4770      	bx	lr
     f46:	bf00      	nop

00000f48 <__gnu_Unwind_Restore_WMMXD>:
     f48:	ecf0 0102 	ldfe	f0, [r0], #8
     f4c:	ecf0 1102 	ldfe	f1, [r0], #8
     f50:	ecf0 2102 	ldfe	f2, [r0], #8
     f54:	ecf0 3102 	ldfe	f3, [r0], #8
     f58:	ecf0 4102 	ldfe	f4, [r0], #8
     f5c:	ecf0 5102 	ldfe	f5, [r0], #8
     f60:	ecf0 6102 	ldfe	f6, [r0], #8
     f64:	ecf0 7102 	ldfe	f7, [r0], #8
     f68:	ecf0 8102 	ldfp	f0, [r0], #8
     f6c:	ecf0 9102 	ldfp	f1, [r0], #8
     f70:	ecf0 a102 	ldfp	f2, [r0], #8
     f74:	ecf0 b102 	ldfp	f3, [r0], #8
     f78:	ecf0 c102 	ldfp	f4, [r0], #8
     f7c:	ecf0 d102 	ldfp	f5, [r0], #8
     f80:	ecf0 e102 	ldfp	f6, [r0], #8
     f84:	ecf0 f102 	ldfp	f7, [r0], #8
     f88:	4770      	bx	lr
     f8a:	bf00      	nop

00000f8c <__gnu_Unwind_Save_WMMXD>:
     f8c:	ece0 0102 	stfe	f0, [r0], #8
     f90:	ece0 1102 	stfe	f1, [r0], #8
     f94:	ece0 2102 	stfe	f2, [r0], #8
     f98:	ece0 3102 	stfe	f3, [r0], #8
     f9c:	ece0 4102 	stfe	f4, [r0], #8
     fa0:	ece0 5102 	stfe	f5, [r0], #8
     fa4:	ece0 6102 	stfe	f6, [r0], #8
     fa8:	ece0 7102 	stfe	f7, [r0], #8
     fac:	ece0 8102 	stfp	f0, [r0], #8
     fb0:	ece0 9102 	stfp	f1, [r0], #8
     fb4:	ece0 a102 	stfp	f2, [r0], #8
     fb8:	ece0 b102 	stfp	f3, [r0], #8
     fbc:	ece0 c102 	stfp	f4, [r0], #8
     fc0:	ece0 d102 	stfp	f5, [r0], #8
     fc4:	ece0 e102 	stfp	f6, [r0], #8
     fc8:	ece0 f102 	stfp	f7, [r0], #8
     fcc:	4770      	bx	lr
     fce:	bf00      	nop

00000fd0 <__gnu_Unwind_Restore_WMMXC>:
     fd0:	fcb0 8101 	ldc2	1, cr8, [r0], #4
     fd4:	fcb0 9101 	ldc2	1, cr9, [r0], #4
     fd8:	fcb0 a101 	ldc2	1, cr10, [r0], #4
     fdc:	fcb0 b101 	ldc2	1, cr11, [r0], #4
     fe0:	4770      	bx	lr
     fe2:	bf00      	nop

00000fe4 <__gnu_Unwind_Save_WMMXC>:
     fe4:	fca0 8101 	stc2	1, cr8, [r0], #4
     fe8:	fca0 9101 	stc2	1, cr9, [r0], #4
     fec:	fca0 a101 	stc2	1, cr10, [r0], #4
     ff0:	fca0 b101 	stc2	1, cr11, [r0], #4
     ff4:	4770      	bx	lr
     ff6:	bf00      	nop

00000ff8 <_Unwind_RaiseException>:
     ff8:	46ec      	mov	ip, sp
     ffa:	b500      	push	{lr}
     ffc:	e92d 5000 	stmdb	sp!, {ip, lr}
    1000:	e92d 1fff 	stmdb	sp!, {r0, r1, r2, r3, r4, r5, r6, r7, r8, r9, sl, fp, ip}
    1004:	f04f 0300 	mov.w	r3, #0
    1008:	e92d 000c 	stmdb	sp!, {r2, r3}
    100c:	a901      	add	r1, sp, #4
    100e:	f7ff fba9 	bl	764 <__gnu_Unwind_RaiseException>
    1012:	f8dd e040 	ldr.w	lr, [sp, #64]	@ 0x40
    1016:	b012      	add	sp, #72	@ 0x48
    1018:	4770      	bx	lr
    101a:	bf00      	nop

0000101c <_Unwind_Resume>:
    101c:	46ec      	mov	ip, sp
    101e:	b500      	push	{lr}
    1020:	e92d 5000 	stmdb	sp!, {ip, lr}
    1024:	e92d 1fff 	stmdb	sp!, {r0, r1, r2, r3, r4, r5, r6, r7, r8, r9, sl, fp, ip}
    1028:	f04f 0300 	mov.w	r3, #0
    102c:	e92d 000c 	stmdb	sp!, {r2, r3}
    1030:	a901      	add	r1, sp, #4
    1032:	f7ff fbd5 	bl	7e0 <__gnu_Unwind_Resume>
    1036:	f8dd e040 	ldr.w	lr, [sp, #64]	@ 0x40
    103a:	b012      	add	sp, #72	@ 0x48
    103c:	4770      	bx	lr
    103e:	bf00      	nop

00001040 <_Unwind_Resume_or_Rethrow>:
    1040:	46ec      	mov	ip, sp
    1042:	b500      	push	{lr}
    1044:	e92d 5000 	stmdb	sp!, {ip, lr}
    1048:	e92d 1fff 	stmdb	sp!, {r0, r1, r2, r3, r4, r5, r6, r7, r8, r9, sl, fp, ip}
    104c:	f04f 0300 	mov.w	r3, #0
    1050:	e92d 000c 	stmdb	sp!, {r2, r3}
    1054:	a901      	add	r1, sp, #4
    1056:	f7ff fbe3 	bl	820 <__gnu_Unwind_Resume_or_Rethrow>
    105a:	f8dd e040 	ldr.w	lr, [sp, #64]	@ 0x40
    105e:	b012      	add	sp, #72	@ 0x48
    1060:	4770      	bx	lr
    1062:	bf00      	nop

00001064 <_Unwind_ForcedUnwind>:
    1064:	46ec      	mov	ip, sp
    1066:	b500      	push	{lr}
    1068:	e92d 5000 	stmdb	sp!, {ip, lr}
    106c:	e92d 1fff 	stmdb	sp!, {r0, r1, r2, r3, r4, r5, r6, r7, r8, r9, sl, fp, ip}
    1070:	f04f 0300 	mov.w	r3, #0
    1074:	e92d 000c 	stmdb	sp!, {r2, r3}
    1078:	ab01      	add	r3, sp, #4
    107a:	f7ff fba7 	bl	7cc <__gnu_Unwind_ForcedUnwind>
    107e:	f8dd e040 	ldr.w	lr, [sp, #64]	@ 0x40
    1082:	b012      	add	sp, #72	@ 0x48
    1084:	4770      	bx	lr
    1086:	bf00      	nop

00001088 <_Unwind_Backtrace>:
    1088:	46ec      	mov	ip, sp
    108a:	b500      	push	{lr}
    108c:	e92d 5000 	stmdb	sp!, {ip, lr}
    1090:	e92d 1fff 	stmdb	sp!, {r0, r1, r2, r3, r4, r5, r6, r7, r8, r9, sl, fp, ip}
    1094:	f04f 0300 	mov.w	r3, #0
    1098:	e92d 000c 	stmdb	sp!, {r2, r3}
    109c:	aa01      	add	r2, sp, #4
    109e:	f7ff fc1f 	bl	8e0 <__gnu_Unwind_Backtrace>
    10a2:	f8dd e040 	ldr.w	lr, [sp, #64]	@ 0x40
    10a6:	b012      	add	sp, #72	@ 0x48
    10a8:	4770      	bx	lr
    10aa:	bf00      	nop

000010ac <next_unwind_byte>:
    10ac:	7a02      	ldrb	r2, [r0, #8]
    10ae:	4603      	mov	r3, r0
    10b0:	b97a      	cbnz	r2, 10d2 <next_unwind_byte+0x26>
    10b2:	7a42      	ldrb	r2, [r0, #9]
    10b4:	b1a2      	cbz	r2, 10e0 <next_unwind_byte+0x34>
    10b6:	f04f 0c03 	mov.w	ip, #3
    10ba:	6841      	ldr	r1, [r0, #4]
    10bc:	3a01      	subs	r2, #1
    10be:	7242      	strb	r2, [r0, #9]
    10c0:	6808      	ldr	r0, [r1, #0]
    10c2:	1d0a      	adds	r2, r1, #4
    10c4:	605a      	str	r2, [r3, #4]
    10c6:	0202      	lsls	r2, r0, #8
    10c8:	f883 c008 	strb.w	ip, [r3, #8]
    10cc:	0e00      	lsrs	r0, r0, #24
    10ce:	601a      	str	r2, [r3, #0]
    10d0:	4770      	bx	lr
    10d2:	6800      	ldr	r0, [r0, #0]
    10d4:	3a01      	subs	r2, #1
    10d6:	721a      	strb	r2, [r3, #8]
    10d8:	0202      	lsls	r2, r0, #8
    10da:	601a      	str	r2, [r3, #0]
    10dc:	0e00      	lsrs	r0, r0, #24
    10de:	4770      	bx	lr
    10e0:	20b0      	movs	r0, #176	@ 0xb0
    10e2:	4770      	bx	lr

000010e4 <_Unwind_GetGR.constprop.0>:
    10e4:	2300      	movs	r3, #0
    10e6:	b500      	push	{lr}
    10e8:	b085      	sub	sp, #20
    10ea:	a903      	add	r1, sp, #12
    10ec:	9100      	str	r1, [sp, #0]
    10ee:	220c      	movs	r2, #12
    10f0:	4619      	mov	r1, r3
    10f2:	f7ff fba7 	bl	844 <_Unwind_VRS_Get>
    10f6:	9803      	ldr	r0, [sp, #12]
    10f8:	b005      	add	sp, #20
    10fa:	f85d fb04 	ldr.w	pc, [sp], #4
    10fe:	bf00      	nop

00001100 <unwind_UCB_from_context>:
    1100:	e7f0      	b.n	10e4 <_Unwind_GetGR.constprop.0>
    1102:	bf00      	nop

00001104 <__gnu_unwind_execute>:
    1104:	e92d 43f0 	stmdb	sp!, {r4, r5, r6, r7, r8, r9, lr}
    1108:	f04f 0800 	mov.w	r8, #0
    110c:	4606      	mov	r6, r0
    110e:	460d      	mov	r5, r1
    1110:	b085      	sub	sp, #20
    1112:	4628      	mov	r0, r5
    1114:	f7ff ffca 	bl	10ac <next_unwind_byte>
    1118:	28b0      	cmp	r0, #176	@ 0xb0
    111a:	4604      	mov	r4, r0
    111c:	f000 8112 	beq.w	1344 <__gnu_unwind_execute+0x240>
    1120:	0607      	lsls	r7, r0, #24
    1122:	d55c      	bpl.n	11de <__gnu_unwind_execute+0xda>
    1124:	f000 03f0 	and.w	r3, r0, #240	@ 0xf0
    1128:	2ba0      	cmp	r3, #160	@ 0xa0
    112a:	d01a      	beq.n	1162 <__gnu_unwind_execute+0x5e>
    112c:	d830      	bhi.n	1190 <__gnu_unwind_execute+0x8c>
    112e:	2b80      	cmp	r3, #128	@ 0x80
    1130:	f000 8083 	beq.w	123a <__gnu_unwind_execute+0x136>
    1134:	2b90      	cmp	r3, #144	@ 0x90
    1136:	d127      	bne.n	1188 <__gnu_unwind_execute+0x84>
    1138:	f000 030d 	and.w	r3, r0, #13
    113c:	2b0d      	cmp	r3, #13
    113e:	d023      	beq.n	1188 <__gnu_unwind_execute+0x84>
    1140:	2300      	movs	r3, #0
    1142:	af02      	add	r7, sp, #8
    1144:	4619      	mov	r1, r3
    1146:	f000 020f 	and.w	r2, r0, #15
    114a:	9700      	str	r7, [sp, #0]
    114c:	4630      	mov	r0, r6
    114e:	f7ff fb79 	bl	844 <_Unwind_VRS_Get>
    1152:	2300      	movs	r3, #0
    1154:	220d      	movs	r2, #13
    1156:	4619      	mov	r1, r3
    1158:	4630      	mov	r0, r6
    115a:	9700      	str	r7, [sp, #0]
    115c:	f7ff fb9a 	bl	894 <_Unwind_VRS_Set>
    1160:	e7d7      	b.n	1112 <__gnu_unwind_execute+0xe>
    1162:	43c3      	mvns	r3, r0
    1164:	f44f 627f 	mov.w	r2, #4080	@ 0xff0
    1168:	f003 0307 	and.w	r3, r3, #7
    116c:	411a      	asrs	r2, r3
    116e:	0701      	lsls	r1, r0, #28
    1170:	f402 627f 	and.w	r2, r2, #4080	@ 0xff0
    1174:	d501      	bpl.n	117a <__gnu_unwind_execute+0x76>
    1176:	f442 4280 	orr.w	r2, r2, #16384	@ 0x4000
    117a:	2300      	movs	r3, #0
    117c:	4630      	mov	r0, r6
    117e:	4619      	mov	r1, r3
    1180:	f7ff fd48 	bl	c14 <_Unwind_VRS_Pop>
    1184:	2800      	cmp	r0, #0
    1186:	d0c4      	beq.n	1112 <__gnu_unwind_execute+0xe>
    1188:	2009      	movs	r0, #9
    118a:	b005      	add	sp, #20
    118c:	e8bd 83f0 	ldmia.w	sp!, {r4, r5, r6, r7, r8, r9, pc}
    1190:	2bb0      	cmp	r3, #176	@ 0xb0
    1192:	d069      	beq.n	1268 <__gnu_unwind_execute+0x164>
    1194:	2bc0      	cmp	r3, #192	@ 0xc0
    1196:	d13e      	bne.n	1216 <__gnu_unwind_execute+0x112>
    1198:	28c6      	cmp	r0, #198	@ 0xc6
    119a:	f000 80bf 	beq.w	131c <__gnu_unwind_execute+0x218>
    119e:	28c7      	cmp	r0, #199	@ 0xc7
    11a0:	f000 80d5 	beq.w	134e <__gnu_unwind_execute+0x24a>
    11a4:	f000 03f8 	and.w	r3, r0, #248	@ 0xf8
    11a8:	2bc0      	cmp	r3, #192	@ 0xc0
    11aa:	f000 80e2 	beq.w	1372 <__gnu_unwind_execute+0x26e>
    11ae:	28c8      	cmp	r0, #200	@ 0xc8
    11b0:	f000 80ed 	beq.w	138e <__gnu_unwind_execute+0x28a>
    11b4:	28c9      	cmp	r0, #201	@ 0xc9
    11b6:	d1e7      	bne.n	1188 <__gnu_unwind_execute+0x84>
    11b8:	4628      	mov	r0, r5
    11ba:	f7ff ff77 	bl	10ac <next_unwind_byte>
    11be:	2305      	movs	r3, #5
    11c0:	2101      	movs	r1, #1
    11c2:	4604      	mov	r4, r0
    11c4:	0322      	lsls	r2, r4, #12
    11c6:	f004 040f 	and.w	r4, r4, #15
    11ca:	f402 2270 	and.w	r2, r2, #983040	@ 0xf0000
    11ce:	440c      	add	r4, r1
    11d0:	4630      	mov	r0, r6
    11d2:	4322      	orrs	r2, r4
    11d4:	f7ff fd1e 	bl	c14 <_Unwind_VRS_Pop>
    11d8:	2800      	cmp	r0, #0
    11da:	d09a      	beq.n	1112 <__gnu_unwind_execute+0xe>
    11dc:	e7d4      	b.n	1188 <__gnu_unwind_execute+0x84>
    11de:	0083      	lsls	r3, r0, #2
    11e0:	b2db      	uxtb	r3, r3
    11e2:	1d1f      	adds	r7, r3, #4
    11e4:	2300      	movs	r3, #0
    11e6:	f10d 0908 	add.w	r9, sp, #8
    11ea:	4619      	mov	r1, r3
    11ec:	220d      	movs	r2, #13
    11ee:	4630      	mov	r0, r6
    11f0:	f8cd 9000 	str.w	r9, [sp]
    11f4:	f7ff fb26 	bl	844 <_Unwind_VRS_Get>
    11f8:	9b02      	ldr	r3, [sp, #8]
    11fa:	0660      	lsls	r0, r4, #25
    11fc:	bf4c      	ite	mi
    11fe:	1bdf      	submi	r7, r3, r7
    1200:	18ff      	addpl	r7, r7, r3
    1202:	2300      	movs	r3, #0
    1204:	220d      	movs	r2, #13
    1206:	4630      	mov	r0, r6
    1208:	4619      	mov	r1, r3
    120a:	f8cd 9000 	str.w	r9, [sp]
    120e:	9702      	str	r7, [sp, #8]
    1210:	f7ff fb40 	bl	894 <_Unwind_VRS_Set>
    1214:	e77d      	b.n	1112 <__gnu_unwind_execute+0xe>
    1216:	f000 03f8 	and.w	r3, r0, #248	@ 0xf8
    121a:	2bd0      	cmp	r3, #208	@ 0xd0
    121c:	d1b4      	bne.n	1188 <__gnu_unwind_execute+0x84>
    121e:	f000 0207 	and.w	r2, r0, #7
    1222:	3201      	adds	r2, #1
    1224:	2305      	movs	r3, #5
    1226:	2101      	movs	r1, #1
    1228:	4630      	mov	r0, r6
    122a:	f442 2200 	orr.w	r2, r2, #524288	@ 0x80000
    122e:	f7ff fcf1 	bl	c14 <_Unwind_VRS_Pop>
    1232:	2800      	cmp	r0, #0
    1234:	f43f af6d 	beq.w	1112 <__gnu_unwind_execute+0xe>
    1238:	e7a6      	b.n	1188 <__gnu_unwind_execute+0x84>
    123a:	4628      	mov	r0, r5
    123c:	f7ff ff36 	bl	10ac <next_unwind_byte>
    1240:	0224      	lsls	r4, r4, #8
    1242:	4320      	orrs	r0, r4
    1244:	f5b0 4f00 	cmp.w	r0, #32768	@ 0x8000
    1248:	d09e      	beq.n	1188 <__gnu_unwind_execute+0x84>
    124a:	2300      	movs	r3, #0
    124c:	0104      	lsls	r4, r0, #4
    124e:	4619      	mov	r1, r3
    1250:	4630      	mov	r0, r6
    1252:	b2a2      	uxth	r2, r4
    1254:	f7ff fcde 	bl	c14 <_Unwind_VRS_Pop>
    1258:	2800      	cmp	r0, #0
    125a:	d195      	bne.n	1188 <__gnu_unwind_execute+0x84>
    125c:	f414 4f00 	tst.w	r4, #32768	@ 0x8000
    1260:	bf18      	it	ne
    1262:	f04f 0801 	movne.w	r8, #1
    1266:	e754      	b.n	1112 <__gnu_unwind_execute+0xe>
    1268:	f1a0 03b1 	sub.w	r3, r0, #177	@ 0xb1
    126c:	2b04      	cmp	r3, #4
    126e:	f200 80b3 	bhi.w	13d8 <__gnu_unwind_execute+0x2d4>
    1272:	e8df f003 	tbb	[pc, r3]
    1276:	0c161d49 	ldceq	13, cr1, [r6], {73}	@ 0x49
    127a:	23000003 	movwcs	r0, #3
    127e:	aa03      	add	r2, sp, #12
    1280:	9200      	str	r2, [sp, #0]
    1282:	4630      	mov	r0, r6
    1284:	220d      	movs	r2, #13
    1286:	4619      	mov	r1, r3
    1288:	f7ff fadc 	bl	844 <_Unwind_VRS_Get>
    128c:	e741      	b.n	1112 <__gnu_unwind_execute+0xe>
    128e:	2300      	movs	r3, #0
    1290:	2105      	movs	r1, #5
    1292:	4630      	mov	r0, r6
    1294:	461a      	mov	r2, r3
    1296:	f7ff fcbd 	bl	c14 <_Unwind_VRS_Pop>
    129a:	2800      	cmp	r0, #0
    129c:	f43f af39 	beq.w	1112 <__gnu_unwind_execute+0xe>
    12a0:	e772      	b.n	1188 <__gnu_unwind_execute+0x84>
    12a2:	4628      	mov	r0, r5
    12a4:	f7ff ff02 	bl	10ac <next_unwind_byte>
    12a8:	2301      	movs	r3, #1
    12aa:	4604      	mov	r4, r0
    12ac:	4619      	mov	r1, r3
    12ae:	e789      	b.n	11c4 <__gnu_unwind_execute+0xc0>
    12b0:	2300      	movs	r3, #0
    12b2:	f10d 0908 	add.w	r9, sp, #8
    12b6:	220d      	movs	r2, #13
    12b8:	4619      	mov	r1, r3
    12ba:	4630      	mov	r0, r6
    12bc:	f8cd 9000 	str.w	r9, [sp]
    12c0:	f7ff fac0 	bl	844 <_Unwind_VRS_Get>
    12c4:	4628      	mov	r0, r5
    12c6:	f7ff fef1 	bl	10ac <next_unwind_byte>
    12ca:	0602      	lsls	r2, r0, #24
    12cc:	f04f 0702 	mov.w	r7, #2
    12d0:	9c02      	ldr	r4, [sp, #8]
    12d2:	d50b      	bpl.n	12ec <__gnu_unwind_execute+0x1e8>
    12d4:	f000 007f 	and.w	r0, r0, #127	@ 0x7f
    12d8:	40b8      	lsls	r0, r7
    12da:	4404      	add	r4, r0
    12dc:	4628      	mov	r0, r5
    12de:	9402      	str	r4, [sp, #8]
    12e0:	f7ff fee4 	bl	10ac <next_unwind_byte>
    12e4:	0603      	lsls	r3, r0, #24
    12e6:	f107 0707 	add.w	r7, r7, #7
    12ea:	d4f3      	bmi.n	12d4 <__gnu_unwind_execute+0x1d0>
    12ec:	2300      	movs	r3, #0
    12ee:	40b8      	lsls	r0, r7
    12f0:	f504 7401 	add.w	r4, r4, #516	@ 0x204
    12f4:	4404      	add	r4, r0
    12f6:	220d      	movs	r2, #13
    12f8:	4630      	mov	r0, r6
    12fa:	4619      	mov	r1, r3
    12fc:	f8cd 9000 	str.w	r9, [sp]
    1300:	9402      	str	r4, [sp, #8]
    1302:	f7ff fac7 	bl	894 <_Unwind_VRS_Set>
    1306:	e704      	b.n	1112 <__gnu_unwind_execute+0xe>
    1308:	4628      	mov	r0, r5
    130a:	f7ff fecf 	bl	10ac <next_unwind_byte>
    130e:	1e43      	subs	r3, r0, #1
    1310:	b2db      	uxtb	r3, r3
    1312:	2b0e      	cmp	r3, #14
    1314:	4602      	mov	r2, r0
    1316:	f67f af30 	bls.w	117a <__gnu_unwind_execute+0x76>
    131a:	e735      	b.n	1188 <__gnu_unwind_execute+0x84>
    131c:	4628      	mov	r0, r5
    131e:	f7ff fec5 	bl	10ac <next_unwind_byte>
    1322:	4604      	mov	r4, r0
    1324:	2303      	movs	r3, #3
    1326:	0322      	lsls	r2, r4, #12
    1328:	f004 040f 	and.w	r4, r4, #15
    132c:	f402 2270 	and.w	r2, r2, #983040	@ 0xf0000
    1330:	3401      	adds	r4, #1
    1332:	4619      	mov	r1, r3
    1334:	4630      	mov	r0, r6
    1336:	4322      	orrs	r2, r4
    1338:	f7ff fc6c 	bl	c14 <_Unwind_VRS_Pop>
    133c:	2800      	cmp	r0, #0
    133e:	f43f aee8 	beq.w	1112 <__gnu_unwind_execute+0xe>
    1342:	e721      	b.n	1188 <__gnu_unwind_execute+0x84>
    1344:	f1b8 0f00 	cmp.w	r8, #0
    1348:	d036      	beq.n	13b8 <__gnu_unwind_execute+0x2b4>
    134a:	2000      	movs	r0, #0
    134c:	e71d      	b.n	118a <__gnu_unwind_execute+0x86>
    134e:	4628      	mov	r0, r5
    1350:	f7ff feac 	bl	10ac <next_unwind_byte>
    1354:	1e43      	subs	r3, r0, #1
    1356:	b2db      	uxtb	r3, r3
    1358:	2b0e      	cmp	r3, #14
    135a:	4602      	mov	r2, r0
    135c:	f63f af14 	bhi.w	1188 <__gnu_unwind_execute+0x84>
    1360:	2300      	movs	r3, #0
    1362:	2104      	movs	r1, #4
    1364:	4630      	mov	r0, r6
    1366:	f7ff fc55 	bl	c14 <_Unwind_VRS_Pop>
    136a:	2800      	cmp	r0, #0
    136c:	f43f aed1 	beq.w	1112 <__gnu_unwind_execute+0xe>
    1370:	e70a      	b.n	1188 <__gnu_unwind_execute+0x84>
    1372:	2303      	movs	r3, #3
    1374:	f000 020f 	and.w	r2, r0, #15
    1378:	3201      	adds	r2, #1
    137a:	4630      	mov	r0, r6
    137c:	4619      	mov	r1, r3
    137e:	f442 2220 	orr.w	r2, r2, #655360	@ 0xa0000
    1382:	f7ff fc47 	bl	c14 <_Unwind_VRS_Pop>
    1386:	2800      	cmp	r0, #0
    1388:	f43f aec3 	beq.w	1112 <__gnu_unwind_execute+0xe>
    138c:	e6fc      	b.n	1188 <__gnu_unwind_execute+0x84>
    138e:	4628      	mov	r0, r5
    1390:	f7ff fe8c 	bl	10ac <next_unwind_byte>
    1394:	4602      	mov	r2, r0
    1396:	2101      	movs	r1, #1
    1398:	f002 04f0 	and.w	r4, r2, #240	@ 0xf0
    139c:	f002 020f 	and.w	r2, r2, #15
    13a0:	3410      	adds	r4, #16
    13a2:	440a      	add	r2, r1
    13a4:	2305      	movs	r3, #5
    13a6:	4630      	mov	r0, r6
    13a8:	ea42 3204 	orr.w	r2, r2, r4, lsl #12
    13ac:	f7ff fc32 	bl	c14 <_Unwind_VRS_Pop>
    13b0:	2800      	cmp	r0, #0
    13b2:	f43f aeae 	beq.w	1112 <__gnu_unwind_execute+0xe>
    13b6:	e6e7      	b.n	1188 <__gnu_unwind_execute+0x84>
    13b8:	ac02      	add	r4, sp, #8
    13ba:	4643      	mov	r3, r8
    13bc:	4641      	mov	r1, r8
    13be:	220e      	movs	r2, #14
    13c0:	4630      	mov	r0, r6
    13c2:	9400      	str	r4, [sp, #0]
    13c4:	f7ff fa3e 	bl	844 <_Unwind_VRS_Get>
    13c8:	220f      	movs	r2, #15
    13ca:	4643      	mov	r3, r8
    13cc:	4641      	mov	r1, r8
    13ce:	4630      	mov	r0, r6
    13d0:	9400      	str	r4, [sp, #0]
    13d2:	f7ff fa5f 	bl	894 <_Unwind_VRS_Set>
    13d6:	e7b8      	b.n	134a <__gnu_unwind_execute+0x246>
    13d8:	f000 03fc 	and.w	r3, r0, #252	@ 0xfc
    13dc:	2bb4      	cmp	r3, #180	@ 0xb4
    13de:	f43f aed3 	beq.w	1188 <__gnu_unwind_execute+0x84>
    13e2:	2301      	movs	r3, #1
    13e4:	f000 0207 	and.w	r2, r0, #7
    13e8:	441a      	add	r2, r3
    13ea:	4630      	mov	r0, r6
    13ec:	4619      	mov	r1, r3
    13ee:	f442 2200 	orr.w	r2, r2, #524288	@ 0x80000
    13f2:	f7ff fc0f 	bl	c14 <_Unwind_VRS_Pop>
    13f6:	2800      	cmp	r0, #0
    13f8:	f43f ae8b 	beq.w	1112 <__gnu_unwind_execute+0xe>
    13fc:	e6c4      	b.n	1188 <__gnu_unwind_execute+0x84>
    13fe:	bf00      	nop

00001400 <__gnu_unwind_frame>:
    1400:	460b      	mov	r3, r1
    1402:	f04f 0c03 	mov.w	ip, #3
    1406:	b500      	push	{lr}
    1408:	6cc2      	ldr	r2, [r0, #76]	@ 0x4c
    140a:	4618      	mov	r0, r3
    140c:	6853      	ldr	r3, [r2, #4]
    140e:	b085      	sub	sp, #20
    1410:	3208      	adds	r2, #8
    1412:	9202      	str	r2, [sp, #8]
    1414:	a901      	add	r1, sp, #4
    1416:	0e1a      	lsrs	r2, r3, #24
    1418:	021b      	lsls	r3, r3, #8
    141a:	f88d c00c 	strb.w	ip, [sp, #12]
    141e:	9301      	str	r3, [sp, #4]
    1420:	f88d 200d 	strb.w	r2, [sp, #13]
    1424:	f7ff fe6e 	bl	1104 <__gnu_unwind_execute>
    1428:	b005      	add	sp, #20
    142a:	f85d fb04 	ldr.w	pc, [sp], #4
    142e:	bf00      	nop

00001430 <_Unwind_GetRegionStart>:
    1430:	b508      	push	{r3, lr}
    1432:	f7ff fe65 	bl	1100 <unwind_UCB_from_context>
    1436:	6c80      	ldr	r0, [r0, #72]	@ 0x48
    1438:	bd08      	pop	{r3, pc}
    143a:	bf00      	nop

0000143c <_Unwind_GetLanguageSpecificData>:
    143c:	b508      	push	{r3, lr}
    143e:	f7ff fe5f 	bl	1100 <unwind_UCB_from_context>
    1442:	6cc0      	ldr	r0, [r0, #76]	@ 0x4c
    1444:	79c3      	ldrb	r3, [r0, #7]
    1446:	eb00 0083 	add.w	r0, r0, r3, lsl #2
    144a:	3008      	adds	r0, #8
    144c:	bd08      	pop	{r3, pc}
    144e:	bf00      	nop

00001450 <memcpy>:
    1450:	4684      	mov	ip, r0
    1452:	ea41 0300 	orr.w	r3, r1, r0
    1456:	f013 0303 	ands.w	r3, r3, #3
    145a:	d149      	bne.n	14f0 <memcpy+0xa0>
    145c:	3a40      	subs	r2, #64	@ 0x40
    145e:	d323      	bcc.n	14a8 <memcpy+0x58>
    1460:	680b      	ldr	r3, [r1, #0]
    1462:	6003      	str	r3, [r0, #0]
    1464:	684b      	ldr	r3, [r1, #4]
    1466:	6043      	str	r3, [r0, #4]
    1468:	688b      	ldr	r3, [r1, #8]
    146a:	6083      	str	r3, [r0, #8]
    146c:	68cb      	ldr	r3, [r1, #12]
    146e:	60c3      	str	r3, [r0, #12]
    1470:	690b      	ldr	r3, [r1, #16]
    1472:	6103      	str	r3, [r0, #16]
    1474:	694b      	ldr	r3, [r1, #20]
    1476:	6143      	str	r3, [r0, #20]
    1478:	698b      	ldr	r3, [r1, #24]
    147a:	6183      	str	r3, [r0, #24]
    147c:	69cb      	ldr	r3, [r1, #28]
    147e:	61c3      	str	r3, [r0, #28]
    1480:	6a0b      	ldr	r3, [r1, #32]
    1482:	6203      	str	r3, [r0, #32]
    1484:	6a4b      	ldr	r3, [r1, #36]	@ 0x24
    1486:	6243      	str	r3, [r0, #36]	@ 0x24
    1488:	6a8b      	ldr	r3, [r1, #40]	@ 0x28
    148a:	6283      	str	r3, [r0, #40]	@ 0x28
    148c:	6acb      	ldr	r3, [r1, #44]	@ 0x2c
    148e:	62c3      	str	r3, [r0, #44]	@ 0x2c
    1490:	6b0b      	ldr	r3, [r1, #48]	@ 0x30
    1492:	6303      	str	r3, [r0, #48]	@ 0x30
    1494:	6b4b      	ldr	r3, [r1, #52]	@ 0x34
    1496:	6343      	str	r3, [r0, #52]	@ 0x34
    1498:	6b8b      	ldr	r3, [r1, #56]	@ 0x38
    149a:	6383      	str	r3, [r0, #56]	@ 0x38
    149c:	6bcb      	ldr	r3, [r1, #60]	@ 0x3c
    149e:	63c3      	str	r3, [r0, #60]	@ 0x3c
    14a0:	3040      	adds	r0, #64	@ 0x40
    14a2:	3140      	adds	r1, #64	@ 0x40
    14a4:	3a40      	subs	r2, #64	@ 0x40
    14a6:	d2db      	bcs.n	1460 <memcpy+0x10>
    14a8:	3230      	adds	r2, #48	@ 0x30
    14aa:	d30b      	bcc.n	14c4 <memcpy+0x74>
    14ac:	680b      	ldr	r3, [r1, #0]
    14ae:	6003      	str	r3, [r0, #0]
    14b0:	684b      	ldr	r3, [r1, #4]
    14b2:	6043      	str	r3, [r0, #4]
    14b4:	688b      	ldr	r3, [r1, #8]
    14b6:	6083      	str	r3, [r0, #8]
    14b8:	68cb      	ldr	r3, [r1, #12]
    14ba:	60c3      	str	r3, [r0, #12]
    14bc:	3010      	adds	r0, #16
    14be:	3110      	adds	r1, #16
    14c0:	3a10      	subs	r2, #16
    14c2:	d2f3      	bcs.n	14ac <memcpy+0x5c>
    14c4:	320c      	adds	r2, #12
    14c6:	d305      	bcc.n	14d4 <memcpy+0x84>
    14c8:	f851 3b04 	ldr.w	r3, [r1], #4
    14cc:	f840 3b04 	str.w	r3, [r0], #4
    14d0:	3a04      	subs	r2, #4
    14d2:	d2f9      	bcs.n	14c8 <memcpy+0x78>
    14d4:	3204      	adds	r2, #4
    14d6:	d008      	beq.n	14ea <memcpy+0x9a>
    14d8:	07d2      	lsls	r2, r2, #31
    14da:	bf1c      	itt	ne
    14dc:	f811 3b01 	ldrbne.w	r3, [r1], #1
    14e0:	f800 3b01 	strbne.w	r3, [r0], #1
    14e4:	d301      	bcc.n	14ea <memcpy+0x9a>
    14e6:	880b      	ldrh	r3, [r1, #0]
    14e8:	8003      	strh	r3, [r0, #0]
    14ea:	4660      	mov	r0, ip
    14ec:	4770      	bx	lr
    14ee:	bf00      	nop
    14f0:	2a08      	cmp	r2, #8
    14f2:	d313      	bcc.n	151c <memcpy+0xcc>
    14f4:	078b      	lsls	r3, r1, #30
    14f6:	d0b1      	beq.n	145c <memcpy+0xc>
    14f8:	f010 0303 	ands.w	r3, r0, #3
    14fc:	d0ae      	beq.n	145c <memcpy+0xc>
    14fe:	f1c3 0304 	rsb	r3, r3, #4
    1502:	1ad2      	subs	r2, r2, r3
    1504:	07db      	lsls	r3, r3, #31
    1506:	bf1c      	itt	ne
    1508:	f811 3b01 	ldrbne.w	r3, [r1], #1
    150c:	f800 3b01 	strbne.w	r3, [r0], #1
    1510:	d3a4      	bcc.n	145c <memcpy+0xc>
    1512:	f831 3b02 	ldrh.w	r3, [r1], #2
    1516:	f820 3b02 	strh.w	r3, [r0], #2
    151a:	e79f      	b.n	145c <memcpy+0xc>
    151c:	3a04      	subs	r2, #4
    151e:	d3d9      	bcc.n	14d4 <memcpy+0x84>
    1520:	3a01      	subs	r2, #1
    1522:	f811 3b01 	ldrb.w	r3, [r1], #1
    1526:	f800 3b01 	strb.w	r3, [r0], #1
    152a:	d2f9      	bcs.n	1520 <memcpy+0xd0>
    152c:	780b      	ldrb	r3, [r1, #0]
    152e:	7003      	strb	r3, [r0, #0]
    1530:	784b      	ldrb	r3, [r1, #1]
    1532:	7043      	strb	r3, [r0, #1]
    1534:	788b      	ldrb	r3, [r1, #2]
    1536:	7083      	strb	r3, [r0, #2]
    1538:	4660      	mov	r0, ip
    153a:	4770      	bx	lr
    153c:	6c6c6548 	cfstr64vs	mvdx6, [ip], #-288	@ 0xfffffee0
    1540:	55202c6f 	strpl	r2, [r0, #-3183]!	@ 0xfffff391
    1544:	20545241 	subscs	r5, r4, r1, asr #4
    1548:	6c726f57 	ldclvs	15, cr6, [r2], #-348	@ 0xfffffea4
    154c:	000a2164 	andeq	r2, sl, r4, ror #2
    1550:	00000010 	andeq	r0, r0, r0, lsl r0
    1554:	00000000 	andeq	r0, r0, r0
    1558:	00527a01 	subseq	r7, r2, r1, lsl #20
    155c:	010e7c02 	tsteq	lr, r2, lsl #24
    1560:	000d0c1b 	andeq	r0, sp, fp, lsl ip
    1564:	00000014 	andeq	r0, r0, r4, lsl r0
    1568:	00000018 	andeq	r0, r0, r8, lsl r0
    156c:	fffffee4 			@ <UNDEFINED> instruction: 0xfffffee4
    1570:	000000ec 	andeq	r0, r0, ip, ror #1
    1574:	0a4d0200 	beq	1341d7c <__ROM_SIZE+0x1301d7c>
    1578:	00000b43 	andeq	r0, r0, r3, asr #22

Disassembly of section .copy.table:

00001654 <__copy_table_start__>:
    1654:	00001660 	andeq	r1, r0, r0, ror #12
    1658:	20000000 	andcs	r0, r0, r0
    165c:	00000004 	andeq	r0, r0, r4
