
cm3.elf:     file format elf32-littlearm


Disassembly of section .text:

00000000 <__Vectors>:
       0:	20010000 	andcs	r0, r1, r0
       4:	0000268d 	andeq	r2, r0, sp, lsl #13
       8:	000026d1 	ldrdeq	r2, [r0], -r1
       c:	000026cf 	andeq	r2, r0, pc, asr #13
      10:	000026d1 	ldrdeq	r2, [r0], -r1
      14:	000026d1 	ldrdeq	r2, [r0], -r1
      18:	000026d1 	ldrdeq	r2, [r0], -r1
	...
      2c:	000025c1 	andeq	r2, r0, r1, asr #11
      30:	000026d1 	ldrdeq	r2, [r0], -r1
      34:	00000000 	andeq	r0, r0, r0
      38:	0000262b 	andeq	r2, r0, fp, lsr #12
      3c:	00002661 	andeq	r2, r0, r1, ror #12
      40:	000026d1 	ldrdeq	r2, [r0], -r1
      44:	000026d1 	ldrdeq	r2, [r0], -r1
      48:	000026d1 	ldrdeq	r2, [r0], -r1
      4c:	000026d1 	ldrdeq	r2, [r0], -r1
      50:	000026d1 	ldrdeq	r2, [r0], -r1
      54:	000026d1 	ldrdeq	r2, [r0], -r1
      58:	000026d1 	ldrdeq	r2, [r0], -r1
      5c:	000026d1 	ldrdeq	r2, [r0], -r1
      60:	000026d1 	ldrdeq	r2, [r0], -r1
      64:	000026d1 	ldrdeq	r2, [r0], -r1
	...

000003c0 <SystemInit>:
     3c0:	b480      	push	{r7}
     3c2:	af00      	add	r7, sp, #0
     3c4:	4b04      	ldr	r3, [pc, #16]	@ (3d8 <SystemInit+0x18>)
     3c6:	4a05      	ldr	r2, [pc, #20]	@ (3dc <SystemInit+0x1c>)
     3c8:	609a      	str	r2, [r3, #8]
     3ca:	4b05      	ldr	r3, [pc, #20]	@ (3e0 <SystemInit+0x20>)
     3cc:	4a05      	ldr	r2, [pc, #20]	@ (3e4 <SystemInit+0x24>)
     3ce:	601a      	str	r2, [r3, #0]
     3d0:	bf00      	nop
     3d2:	46bd      	mov	sp, r7
     3d4:	bc80      	pop	{r7}
     3d6:	4770      	bx	lr
     3d8:	e000ed00 	and	lr, r0, r0, lsl #26
     3dc:	00000000 	andeq	r0, r0, r0
     3e0:	20000068 	andcs	r0, r0, r8, rrx
     3e4:	017d7840 	cmneq	sp, r0, asr #16

000003e8 <_start>:
     3e8:	b580      	push	{r7, lr}
     3ea:	af00      	add	r7, sp, #0
     3ec:	f002 f8a6 	bl	253c <main>
     3f0:	2000      	movs	r0, #0
     3f2:	f003 fb1d 	bl	3a30 <exit>
	...

000003f8 <__io_putchar>:
     3f8:	b480      	push	{r7}
     3fa:	b083      	sub	sp, #12
     3fc:	af00      	add	r7, sp, #0
     3fe:	6078      	str	r0, [r7, #4]
     400:	4a04      	ldr	r2, [pc, #16]	@ (414 <__STACK_SIZE+0x14>)
     402:	687b      	ldr	r3, [r7, #4]
     404:	6013      	str	r3, [r2, #0]
     406:	687b      	ldr	r3, [r7, #4]
     408:	4618      	mov	r0, r3
     40a:	370c      	adds	r7, #12
     40c:	46bd      	mov	sp, r7
     40e:	bc80      	pop	{r7}
     410:	4770      	bx	lr
     412:	bf00      	nop
     414:	4000c000 	andmi	ip, r0, r0

00000418 <printString>:
     418:	b580      	push	{r7, lr}
     41a:	b082      	sub	sp, #8
     41c:	af00      	add	r7, sp, #0
     41e:	6078      	str	r0, [r7, #4]
     420:	e007      	b.n	432 <printString+0x1a>
     422:	687b      	ldr	r3, [r7, #4]
     424:	781b      	ldrb	r3, [r3, #0]
     426:	4618      	mov	r0, r3
     428:	f7ff ffe6 	bl	3f8 <__io_putchar>
     42c:	687b      	ldr	r3, [r7, #4]
     42e:	3301      	adds	r3, #1
     430:	607b      	str	r3, [r7, #4]
     432:	687b      	ldr	r3, [r7, #4]
     434:	781b      	ldrb	r3, [r3, #0]
     436:	2b00      	cmp	r3, #0
     438:	d1f3      	bne.n	422 <printString+0xa>
     43a:	bf00      	nop
     43c:	bf00      	nop
     43e:	3708      	adds	r7, #8
     440:	46bd      	mov	sp, r7
     442:	bd80      	pop	{r7, pc}

00000444 <rt_init_stack>:
     444:	b480      	push	{r7}
     446:	b087      	sub	sp, #28
     448:	af00      	add	r7, sp, #0
     44a:	6078      	str	r0, [r7, #4]
     44c:	6039      	str	r1, [r7, #0]
     44e:	687b      	ldr	r3, [r7, #4]
     450:	8cdb      	ldrh	r3, [r3, #38]	@ 0x26
     452:	089b      	lsrs	r3, r3, #2
     454:	b29b      	uxth	r3, r3
     456:	60fb      	str	r3, [r7, #12]
     458:	68fb      	ldr	r3, [r7, #12]
     45a:	2b00      	cmp	r3, #0
     45c:	d105      	bne.n	46a <rt_init_stack+0x26>
     45e:	4b38      	ldr	r3, [pc, #224]	@ (540 <rt_init_stack+0xfc>)
     460:	681b      	ldr	r3, [r3, #0]
     462:	b29b      	uxth	r3, r3
     464:	089b      	lsrs	r3, r3, #2
     466:	b29b      	uxth	r3, r3
     468:	60fb      	str	r3, [r7, #12]
     46a:	687b      	ldr	r3, [r7, #4]
     46c:	6ada      	ldr	r2, [r3, #44]	@ 0x2c
     46e:	68fb      	ldr	r3, [r7, #12]
     470:	009b      	lsls	r3, r3, #2
     472:	4413      	add	r3, r2
     474:	617b      	str	r3, [r7, #20]
     476:	697b      	ldr	r3, [r7, #20]
     478:	f003 0304 	and.w	r3, r3, #4
     47c:	2b00      	cmp	r3, #0
     47e:	d002      	beq.n	486 <rt_init_stack+0x42>
     480:	697b      	ldr	r3, [r7, #20]
     482:	3b04      	subs	r3, #4
     484:	617b      	str	r3, [r7, #20]
     486:	697b      	ldr	r3, [r7, #20]
     488:	3b40      	subs	r3, #64	@ 0x40
     48a:	617b      	str	r3, [r7, #20]
     48c:	697b      	ldr	r3, [r7, #20]
     48e:	333c      	adds	r3, #60	@ 0x3c
     490:	f04f 7280 	mov.w	r2, #16777216	@ 0x1000000
     494:	601a      	str	r2, [r3, #0]
     496:	697b      	ldr	r3, [r7, #20]
     498:	3338      	adds	r3, #56	@ 0x38
     49a:	683a      	ldr	r2, [r7, #0]
     49c:	601a      	str	r2, [r3, #0]
     49e:	2300      	movs	r3, #0
     4a0:	613b      	str	r3, [r7, #16]
     4a2:	e008      	b.n	4b6 <rt_init_stack+0x72>
     4a4:	693b      	ldr	r3, [r7, #16]
     4a6:	009b      	lsls	r3, r3, #2
     4a8:	697a      	ldr	r2, [r7, #20]
     4aa:	4413      	add	r3, r2
     4ac:	2200      	movs	r2, #0
     4ae:	601a      	str	r2, [r3, #0]
     4b0:	693b      	ldr	r3, [r7, #16]
     4b2:	3301      	adds	r3, #1
     4b4:	613b      	str	r3, [r7, #16]
     4b6:	693b      	ldr	r3, [r7, #16]
     4b8:	2b0d      	cmp	r3, #13
     4ba:	d9f3      	bls.n	4a4 <rt_init_stack+0x60>
     4bc:	687b      	ldr	r3, [r7, #4]
     4be:	69da      	ldr	r2, [r3, #28]
     4c0:	697b      	ldr	r3, [r7, #20]
     4c2:	3320      	adds	r3, #32
     4c4:	601a      	str	r2, [r3, #0]
     4c6:	697a      	ldr	r2, [r7, #20]
     4c8:	687b      	ldr	r3, [r7, #4]
     4ca:	629a      	str	r2, [r3, #40]	@ 0x28
     4cc:	687b      	ldr	r3, [r7, #4]
     4ce:	683a      	ldr	r2, [r7, #0]
     4d0:	631a      	str	r2, [r3, #48]	@ 0x30
     4d2:	4b1b      	ldr	r3, [pc, #108]	@ (540 <rt_init_stack+0xfc>)
     4d4:	681b      	ldr	r3, [r3, #0]
     4d6:	f003 5380 	and.w	r3, r3, #268435456	@ 0x10000000
     4da:	2b00      	cmp	r3, #0
     4dc:	d026      	beq.n	52c <rt_init_stack+0xe8>
     4de:	68fb      	ldr	r3, [r7, #12]
     4e0:	2b11      	cmp	r3, #17
     4e2:	d923      	bls.n	52c <rt_init_stack+0xe8>
     4e4:	68fb      	ldr	r3, [r7, #12]
     4e6:	3b10      	subs	r3, #16
     4e8:	085b      	lsrs	r3, r3, #1
     4ea:	3b01      	subs	r3, #1
     4ec:	613b      	str	r3, [r7, #16]
     4ee:	e00e      	b.n	50e <rt_init_stack+0xca>
     4f0:	697b      	ldr	r3, [r7, #20]
     4f2:	3b08      	subs	r3, #8
     4f4:	617b      	str	r3, [r7, #20]
     4f6:	697b      	ldr	r3, [r7, #20]
     4f8:	3304      	adds	r3, #4
     4fa:	f04f 32cc 	mov.w	r2, #3435973836	@ 0xcccccccc
     4fe:	601a      	str	r2, [r3, #0]
     500:	697b      	ldr	r3, [r7, #20]
     502:	f04f 32cc 	mov.w	r2, #3435973836	@ 0xcccccccc
     506:	601a      	str	r2, [r3, #0]
     508:	693b      	ldr	r3, [r7, #16]
     50a:	3b01      	subs	r3, #1
     50c:	613b      	str	r3, [r7, #16]
     50e:	693b      	ldr	r3, [r7, #16]
     510:	2b00      	cmp	r3, #0
     512:	d1ed      	bne.n	4f0 <rt_init_stack+0xac>
     514:	697b      	ldr	r3, [r7, #20]
     516:	3b04      	subs	r3, #4
     518:	617b      	str	r3, [r7, #20]
     51a:	687b      	ldr	r3, [r7, #4]
     51c:	6adb      	ldr	r3, [r3, #44]	@ 0x2c
     51e:	697a      	ldr	r2, [r7, #20]
     520:	429a      	cmp	r2, r3
     522:	d903      	bls.n	52c <rt_init_stack+0xe8>
     524:	697b      	ldr	r3, [r7, #20]
     526:	f04f 32cc 	mov.w	r2, #3435973836	@ 0xcccccccc
     52a:	601a      	str	r2, [r3, #0]
     52c:	687b      	ldr	r3, [r7, #4]
     52e:	6adb      	ldr	r3, [r3, #44]	@ 0x2c
     530:	4a04      	ldr	r2, [pc, #16]	@ (544 <rt_init_stack+0x100>)
     532:	601a      	str	r2, [r3, #0]
     534:	bf00      	nop
     536:	371c      	adds	r7, #28
     538:	46bd      	mov	sp, r7
     53a:	bc80      	pop	{r7}
     53c:	4770      	bx	lr
     53e:	bf00      	nop
     540:	00004af4 	strdeq	r4, [r0], -r4	@ <UNPREDICTABLE>
     544:	e25a2ea5 	subs	r2, sl, #2640	@ 0xa50

00000548 <rt_ret_regs>:
     548:	b480      	push	{r7}
     54a:	b083      	sub	sp, #12
     54c:	af00      	add	r7, sp, #0
     54e:	6078      	str	r0, [r7, #4]
     550:	687b      	ldr	r3, [r7, #4]
     552:	6a9b      	ldr	r3, [r3, #40]	@ 0x28
     554:	3320      	adds	r3, #32
     556:	4618      	mov	r0, r3
     558:	370c      	adds	r7, #12
     55a:	46bd      	mov	sp, r7
     55c:	bc80      	pop	{r7}
     55e:	4770      	bx	lr

00000560 <rt_ret_val>:
     560:	b580      	push	{r7, lr}
     562:	b084      	sub	sp, #16
     564:	af00      	add	r7, sp, #0
     566:	6078      	str	r0, [r7, #4]
     568:	6039      	str	r1, [r7, #0]
     56a:	6878      	ldr	r0, [r7, #4]
     56c:	f7ff ffec 	bl	548 <rt_ret_regs>
     570:	60f8      	str	r0, [r7, #12]
     572:	68fb      	ldr	r3, [r7, #12]
     574:	683a      	ldr	r2, [r7, #0]
     576:	601a      	str	r2, [r3, #0]
     578:	bf00      	nop
     57a:	3710      	adds	r7, #16
     57c:	46bd      	mov	sp, r7
     57e:	bd80      	pop	{r7, pc}

00000580 <rt_ret_val2>:
     580:	b580      	push	{r7, lr}
     582:	b086      	sub	sp, #24
     584:	af00      	add	r7, sp, #0
     586:	60f8      	str	r0, [r7, #12]
     588:	60b9      	str	r1, [r7, #8]
     58a:	607a      	str	r2, [r7, #4]
     58c:	68f8      	ldr	r0, [r7, #12]
     58e:	f7ff ffdb 	bl	548 <rt_ret_regs>
     592:	6178      	str	r0, [r7, #20]
     594:	697b      	ldr	r3, [r7, #20]
     596:	68ba      	ldr	r2, [r7, #8]
     598:	601a      	str	r2, [r3, #0]
     59a:	697b      	ldr	r3, [r7, #20]
     59c:	3304      	adds	r3, #4
     59e:	687a      	ldr	r2, [r7, #4]
     5a0:	601a      	str	r2, [r3, #0]
     5a2:	bf00      	nop
     5a4:	3718      	adds	r7, #24
     5a6:	46bd      	mov	sp, r7
     5a8:	bd80      	pop	{r7, pc}
	...

000005ac <rt_ms2tick>:
     5ac:	b480      	push	{r7}
     5ae:	b085      	sub	sp, #20
     5b0:	af00      	add	r7, sp, #0
     5b2:	6078      	str	r0, [r7, #4]
     5b4:	687b      	ldr	r3, [r7, #4]
     5b6:	2b00      	cmp	r3, #0
     5b8:	d101      	bne.n	5be <rt_ms2tick+0x12>
     5ba:	2300      	movs	r3, #0
     5bc:	e025      	b.n	60a <rt_ms2tick+0x5e>
     5be:	687b      	ldr	r3, [r7, #4]
     5c0:	f1b3 3fff 	cmp.w	r3, #4294967295	@ 0xffffffff
     5c4:	d102      	bne.n	5cc <rt_ms2tick+0x20>
     5c6:	f64f 73ff 	movw	r3, #65535	@ 0xffff
     5ca:	e01e      	b.n	60a <rt_ms2tick+0x5e>
     5cc:	687b      	ldr	r3, [r7, #4]
     5ce:	4a11      	ldr	r2, [pc, #68]	@ (614 <rt_ms2tick+0x68>)
     5d0:	4293      	cmp	r3, r2
     5d2:	d902      	bls.n	5da <rt_ms2tick+0x2e>
     5d4:	f64f 73fe 	movw	r3, #65534	@ 0xfffe
     5d8:	e017      	b.n	60a <rt_ms2tick+0x5e>
     5da:	687b      	ldr	r3, [r7, #4]
     5dc:	f44f 727a 	mov.w	r2, #1000	@ 0x3e8
     5e0:	fb03 f202 	mul.w	r2, r3, r2
     5e4:	4b0c      	ldr	r3, [pc, #48]	@ (618 <rt_ms2tick+0x6c>)
     5e6:	681b      	ldr	r3, [r3, #0]
     5e8:	4413      	add	r3, r2
     5ea:	1e5a      	subs	r2, r3, #1
     5ec:	4b0a      	ldr	r3, [pc, #40]	@ (618 <rt_ms2tick+0x6c>)
     5ee:	681b      	ldr	r3, [r3, #0]
     5f0:	fbb2 f3f3 	udiv	r3, r2, r3
     5f4:	60fb      	str	r3, [r7, #12]
     5f6:	68fb      	ldr	r3, [r7, #12]
     5f8:	f64f 72fe 	movw	r2, #65534	@ 0xfffe
     5fc:	4293      	cmp	r3, r2
     5fe:	d902      	bls.n	606 <rt_ms2tick+0x5a>
     600:	f64f 73fe 	movw	r3, #65534	@ 0xfffe
     604:	e001      	b.n	60a <rt_ms2tick+0x5e>
     606:	68fb      	ldr	r3, [r7, #12]
     608:	b29b      	uxth	r3, r3
     60a:	4618      	mov	r0, r3
     60c:	3714      	adds	r7, #20
     60e:	46bd      	mov	sp, r7
     610:	bc80      	pop	{r7}
     612:	4770      	bx	lr
     614:	003d0900 	eorseq	r0, sp, r0, lsl #18
     618:	00004b04 	andeq	r4, r0, r4, lsl #22

0000061c <rt_tid2ptcb>:
     61c:	b480      	push	{r7}
     61e:	b085      	sub	sp, #20
     620:	af00      	add	r7, sp, #0
     622:	6078      	str	r0, [r7, #4]
     624:	687b      	ldr	r3, [r7, #4]
     626:	2b00      	cmp	r3, #0
     628:	d101      	bne.n	62e <rt_tid2ptcb+0x12>
     62a:	2300      	movs	r3, #0
     62c:	e00f      	b.n	64e <rt_tid2ptcb+0x32>
     62e:	687b      	ldr	r3, [r7, #4]
     630:	f003 0303 	and.w	r3, r3, #3
     634:	2b00      	cmp	r3, #0
     636:	d001      	beq.n	63c <rt_tid2ptcb+0x20>
     638:	2300      	movs	r3, #0
     63a:	e008      	b.n	64e <rt_tid2ptcb+0x32>
     63c:	687b      	ldr	r3, [r7, #4]
     63e:	60fb      	str	r3, [r7, #12]
     640:	68fb      	ldr	r3, [r7, #12]
     642:	781b      	ldrb	r3, [r3, #0]
     644:	2b00      	cmp	r3, #0
     646:	d001      	beq.n	64c <rt_tid2ptcb+0x30>
     648:	2300      	movs	r3, #0
     64a:	e000      	b.n	64e <rt_tid2ptcb+0x32>
     64c:	68fb      	ldr	r3, [r7, #12]
     64e:	4618      	mov	r0, r3
     650:	3714      	adds	r7, #20
     652:	46bd      	mov	sp, r7
     654:	bc80      	pop	{r7}
     656:	4770      	bx	lr

00000658 <rt_id2obj>:
     658:	b480      	push	{r7}
     65a:	b083      	sub	sp, #12
     65c:	af00      	add	r7, sp, #0
     65e:	6078      	str	r0, [r7, #4]
     660:	687b      	ldr	r3, [r7, #4]
     662:	f003 0303 	and.w	r3, r3, #3
     666:	2b00      	cmp	r3, #0
     668:	d001      	beq.n	66e <rt_id2obj+0x16>
     66a:	2300      	movs	r3, #0
     66c:	e000      	b.n	670 <rt_id2obj+0x18>
     66e:	687b      	ldr	r3, [r7, #4]
     670:	4618      	mov	r0, r3
     672:	370c      	adds	r7, #12
     674:	46bd      	mov	sp, r7
     676:	bc80      	pop	{r7}
     678:	4770      	bx	lr
	...

0000067c <svcKernelInitialize>:
     67c:	b580      	push	{r7, lr}
     67e:	b082      	sub	sp, #8
     680:	af00      	add	r7, sp, #0
     682:	4b1b      	ldr	r3, [pc, #108]	@ (6f0 <svcKernelInitialize+0x74>)
     684:	781b      	ldrb	r3, [r3, #0]
     686:	2b00      	cmp	r3, #0
     688:	d10d      	bne.n	6a6 <svcKernelInitialize+0x2a>
     68a:	4b1a      	ldr	r3, [pc, #104]	@ (6f4 <svcKernelInitialize+0x78>)
     68c:	681b      	ldr	r3, [r3, #0]
     68e:	4619      	mov	r1, r3
     690:	4819      	ldr	r0, [pc, #100]	@ (6f8 <svcKernelInitialize+0x7c>)
     692:	f001 f959 	bl	1948 <rt_init_mem>
     696:	6078      	str	r0, [r7, #4]
     698:	687b      	ldr	r3, [r7, #4]
     69a:	2b00      	cmp	r3, #0
     69c:	d001      	beq.n	6a2 <svcKernelInitialize+0x26>
     69e:	2385      	movs	r3, #133	@ 0x85
     6a0:	e021      	b.n	6e6 <svcKernelInitialize+0x6a>
     6a2:	f001 fe3d 	bl	2320 <rt_sys_init>
     6a6:	4b15      	ldr	r3, [pc, #84]	@ (6fc <svcKernelInitialize+0x80>)
     6a8:	681b      	ldr	r3, [r3, #0]
     6aa:	22ff      	movs	r2, #255	@ 0xff
     6ac:	709a      	strb	r2, [r3, #2]
     6ae:	4b10      	ldr	r3, [pc, #64]	@ (6f0 <svcKernelInitialize+0x74>)
     6b0:	781b      	ldrb	r3, [r3, #0]
     6b2:	2b00      	cmp	r3, #0
     6b4:	d10d      	bne.n	6d2 <svcKernelInitialize+0x56>
     6b6:	2100      	movs	r1, #0
     6b8:	4811      	ldr	r0, [pc, #68]	@ (700 <svcKernelInitialize+0x84>)
     6ba:	f000 fb13 	bl	ce4 <svcMessageCreate>
     6be:	4603      	mov	r3, r0
     6c0:	4a10      	ldr	r2, [pc, #64]	@ (704 <svcKernelInitialize+0x88>)
     6c2:	6013      	str	r3, [r2, #0]
     6c4:	2100      	movs	r1, #0
     6c6:	4810      	ldr	r0, [pc, #64]	@ (708 <svcKernelInitialize+0x8c>)
     6c8:	f000 f8fc 	bl	8c4 <svcThreadCreate>
     6cc:	4603      	mov	r3, r0
     6ce:	4a0f      	ldr	r2, [pc, #60]	@ (70c <svcKernelInitialize+0x90>)
     6d0:	6013      	str	r3, [r2, #0]
     6d2:	2000      	movs	r0, #0
     6d4:	f000 f8ec 	bl	8b0 <sysThreadError>
     6d8:	4b05      	ldr	r3, [pc, #20]	@ (6f0 <svcKernelInitialize+0x74>)
     6da:	2201      	movs	r2, #1
     6dc:	701a      	strb	r2, [r3, #0]
     6de:	4b0c      	ldr	r3, [pc, #48]	@ (710 <svcKernelInitialize+0x94>)
     6e0:	2200      	movs	r2, #0
     6e2:	701a      	strb	r2, [r3, #0]
     6e4:	2300      	movs	r3, #0
     6e6:	4618      	mov	r0, r3
     6e8:	3708      	adds	r7, #8
     6ea:	46bd      	mov	sp, r7
     6ec:	bd80      	pop	{r7, pc}
     6ee:	bf00      	nop
     6f0:	2000026c 	andcs	r0, r0, ip, ror #4
     6f4:	00004b10 	andeq	r4, r0, r0, lsl fp
     6f8:	20000930 	andcs	r0, r0, r0, lsr r9
     6fc:	200002b4 			@ <UNDEFINED> instruction: 0x200002b4
     700:	00004b28 	andeq	r4, r0, r8, lsr #22
     704:	20000ba4 	andcs	r0, r0, r4, lsr #23
     708:	00004b18 	andeq	r4, r0, r8, lsl fp
     70c:	20000b80 	andcs	r0, r0, r0, lsl #23
     710:	2000026d 	andcs	r0, r0, sp, ror #4

00000714 <svcKernelStart>:
     714:	b580      	push	{r7, lr}
     716:	b082      	sub	sp, #8
     718:	af00      	add	r7, sp, #0
     71a:	4b18      	ldr	r3, [pc, #96]	@ (77c <svcKernelStart+0x68>)
     71c:	781b      	ldrb	r3, [r3, #0]
     71e:	2b00      	cmp	r3, #0
     720:	d001      	beq.n	726 <svcKernelStart+0x12>
     722:	2300      	movs	r3, #0
     724:	e026      	b.n	774 <svcKernelStart+0x60>
     726:	4b16      	ldr	r3, [pc, #88]	@ (780 <svcKernelStart+0x6c>)
     728:	681b      	ldr	r3, [r3, #0]
     72a:	f893 3024 	ldrb.w	r3, [r3, #36]	@ 0x24
     72e:	4619      	mov	r1, r3
     730:	2000      	movs	r0, #0
     732:	f001 fc3b 	bl	1fac <rt_tsk_prio>
     736:	4b12      	ldr	r3, [pc, #72]	@ (780 <svcKernelStart+0x6c>)
     738:	681b      	ldr	r3, [r3, #0]
     73a:	78db      	ldrb	r3, [r3, #3]
     73c:	2bff      	cmp	r3, #255	@ 0xff
     73e:	d108      	bne.n	752 <svcKernelStart+0x3e>
     740:	4b0f      	ldr	r3, [pc, #60]	@ (780 <svcKernelStart+0x6c>)
     742:	681b      	ldr	r3, [r3, #0]
     744:	6a9b      	ldr	r3, [r3, #40]	@ 0x28
     746:	3320      	adds	r3, #32
     748:	607b      	str	r3, [r7, #4]
     74a:	687b      	ldr	r3, [r7, #4]
     74c:	f383 8809 	msr	PSP, r3
     750:	bf00      	nop
     752:	4b0b      	ldr	r3, [pc, #44]	@ (780 <svcKernelStart+0x6c>)
     754:	685b      	ldr	r3, [r3, #4]
     756:	2b00      	cmp	r3, #0
     758:	d106      	bne.n	768 <svcKernelStart+0x54>
     75a:	4b09      	ldr	r3, [pc, #36]	@ (780 <svcKernelStart+0x6c>)
     75c:	681b      	ldr	r3, [r3, #0]
     75e:	4a08      	ldr	r2, [pc, #32]	@ (780 <svcKernelStart+0x6c>)
     760:	6053      	str	r3, [r2, #4]
     762:	4b07      	ldr	r3, [pc, #28]	@ (780 <svcKernelStart+0x6c>)
     764:	2200      	movs	r2, #0
     766:	601a      	str	r2, [r3, #0]
     768:	f001 fe5e 	bl	2428 <rt_sys_start>
     76c:	4b03      	ldr	r3, [pc, #12]	@ (77c <svcKernelStart+0x68>)
     76e:	2201      	movs	r2, #1
     770:	701a      	strb	r2, [r3, #0]
     772:	2300      	movs	r3, #0
     774:	4618      	mov	r0, r3
     776:	3708      	adds	r7, #8
     778:	46bd      	mov	sp, r7
     77a:	bd80      	pop	{r7, pc}
     77c:	2000026d 	andcs	r0, r0, sp, ror #4
     780:	200002b4 			@ <UNDEFINED> instruction: 0x200002b4

00000784 <osKernelInitialize>:
     784:	b590      	push	{r4, r7, lr}
     786:	b083      	sub	sp, #12
     788:	af00      	add	r7, sp, #0
     78a:	f3ef 8405 	mrs	r4, IPSR
     78e:	607c      	str	r4, [r7, #4]
     790:	687c      	ldr	r4, [r7, #4]
     792:	2c00      	cmp	r4, #0
     794:	d001      	beq.n	79a <osKernelInitialize+0x16>
     796:	2382      	movs	r3, #130	@ 0x82
     798:	e010      	b.n	7bc <osKernelInitialize+0x38>
     79a:	f3ef 8414 	mrs	r4, CONTROL
     79e:	603c      	str	r4, [r7, #0]
     7a0:	683c      	ldr	r4, [r7, #0]
     7a2:	f004 0401 	and.w	r4, r4, #1
     7a6:	2c00      	cmp	r4, #0
     7a8:	d103      	bne.n	7b2 <osKernelInitialize+0x2e>
     7aa:	f7ff ff67 	bl	67c <svcKernelInitialize>
     7ae:	4603      	mov	r3, r0
     7b0:	e004      	b.n	7bc <osKernelInitialize+0x38>
     7b2:	f8df c010 	ldr.w	ip, [pc, #16]	@ 7c4 <osKernelInitialize+0x40>
     7b6:	df00      	svc	0
     7b8:	4603      	mov	r3, r0
     7ba:	bf00      	nop
     7bc:	4618      	mov	r0, r3
     7be:	370c      	adds	r7, #12
     7c0:	46bd      	mov	sp, r7
     7c2:	bd90      	pop	{r4, r7, pc}
     7c4:	0000067d 	andeq	r0, r0, sp, ror r6

000007c8 <osKernelStart>:
     7c8:	b5b0      	push	{r4, r5, r7, lr}
     7ca:	b08e      	sub	sp, #56	@ 0x38
     7cc:	af00      	add	r7, sp, #0
     7ce:	f3ef 8405 	mrs	r4, IPSR
     7d2:	637c      	str	r4, [r7, #52]	@ 0x34
     7d4:	6b7c      	ldr	r4, [r7, #52]	@ 0x34
     7d6:	2c00      	cmp	r4, #0
     7d8:	d001      	beq.n	7de <osKernelStart+0x16>
     7da:	2382      	movs	r3, #130	@ 0x82
     7dc:	e060      	b.n	8a0 <osKernelStart+0xd8>
     7de:	f3ef 8414 	mrs	r4, CONTROL
     7e2:	633c      	str	r4, [r7, #48]	@ 0x30
     7e4:	6b3c      	ldr	r4, [r7, #48]	@ 0x30
     7e6:	f004 0403 	and.w	r4, r4, #3
     7ea:	2c03      	cmp	r4, #3
     7ec:	d853      	bhi.n	896 <osKernelStart+0xce>
     7ee:	a501      	add	r5, pc, #4	@ (adr r5, 7f4 <osKernelStart+0x2c>)
     7f0:	f855 f024 	ldr.w	pc, [r5, r4, lsl #2]
     7f4:	00000805 	andeq	r0, r0, r5, lsl #16
     7f8:	00000851 	andeq	r0, r0, r1, asr r8
     7fc:	00000855 	andeq	r0, r0, r5, asr r8
     800:	00000881 	andeq	r0, r0, r1, lsl #17
     804:	463c      	mov	r4, r7
     806:	3420      	adds	r4, #32
     808:	62fc      	str	r4, [r7, #44]	@ 0x2c
     80a:	6afc      	ldr	r4, [r7, #44]	@ 0x2c
     80c:	f384 8809 	msr	PSP, r4
     810:	bf00      	nop
     812:	4c25      	ldr	r4, [pc, #148]	@ (8a8 <osKernelStart+0xe0>)
     814:	7824      	ldrb	r4, [r4, #0]
     816:	f004 0401 	and.w	r4, r4, #1
     81a:	2c00      	cmp	r4, #0
     81c:	d008      	beq.n	830 <osKernelStart+0x68>
     81e:	2402      	movs	r4, #2
     820:	62bc      	str	r4, [r7, #40]	@ 0x28
     822:	6abc      	ldr	r4, [r7, #40]	@ 0x28
     824:	f384 8814 	msr	CONTROL, r4
     828:	f3bf 8f6f 	isb	sy
     82c:	bf00      	nop
     82e:	e008      	b.n	842 <osKernelStart+0x7a>
     830:	2403      	movs	r4, #3
     832:	627c      	str	r4, [r7, #36]	@ 0x24
     834:	6a7c      	ldr	r4, [r7, #36]	@ 0x24
     836:	f384 8814 	msr	CONTROL, r4
     83a:	f3bf 8f6f 	isb	sy
     83e:	bf00      	nop
     840:	bf00      	nop
     842:	f3bf 8f4f 	dsb	sy
     846:	bf00      	nop
     848:	f3bf 8f6f 	isb	sy
     84c:	bf00      	nop
     84e:	e022      	b.n	896 <osKernelStart+0xce>
     850:	23ff      	movs	r3, #255	@ 0xff
     852:	e025      	b.n	8a0 <osKernelStart+0xd8>
     854:	4c14      	ldr	r4, [pc, #80]	@ (8a8 <osKernelStart+0xe0>)
     856:	7824      	ldrb	r4, [r4, #0]
     858:	f004 0401 	and.w	r4, r4, #1
     85c:	2c00      	cmp	r4, #0
     85e:	d117      	bne.n	890 <osKernelStart+0xc8>
     860:	2403      	movs	r4, #3
     862:	623c      	str	r4, [r7, #32]
     864:	6a3c      	ldr	r4, [r7, #32]
     866:	f384 8814 	msr	CONTROL, r4
     86a:	f3bf 8f6f 	isb	sy
     86e:	bf00      	nop
     870:	bf00      	nop
     872:	f3bf 8f4f 	dsb	sy
     876:	bf00      	nop
     878:	f3bf 8f6f 	isb	sy
     87c:	bf00      	nop
     87e:	e007      	b.n	890 <osKernelStart+0xc8>
     880:	4c09      	ldr	r4, [pc, #36]	@ (8a8 <osKernelStart+0xe0>)
     882:	7824      	ldrb	r4, [r4, #0]
     884:	f004 0401 	and.w	r4, r4, #1
     888:	2c00      	cmp	r4, #0
     88a:	d003      	beq.n	894 <osKernelStart+0xcc>
     88c:	23ff      	movs	r3, #255	@ 0xff
     88e:	e007      	b.n	8a0 <osKernelStart+0xd8>
     890:	bf00      	nop
     892:	e000      	b.n	896 <osKernelStart+0xce>
     894:	bf00      	nop
     896:	f8df c014 	ldr.w	ip, [pc, #20]	@ 8ac <osKernelStart+0xe4>
     89a:	df00      	svc	0
     89c:	4603      	mov	r3, r0
     89e:	bf00      	nop
     8a0:	4618      	mov	r0, r3
     8a2:	3738      	adds	r7, #56	@ 0x38
     8a4:	46bd      	mov	sp, r7
     8a6:	bdb0      	pop	{r4, r5, r7, pc}
     8a8:	00004b00 	andeq	r4, r0, r0, lsl #22
     8ac:	00000715 	andeq	r0, r0, r5, lsl r7

000008b0 <sysThreadError>:
     8b0:	b480      	push	{r7}
     8b2:	b083      	sub	sp, #12
     8b4:	af00      	add	r7, sp, #0
     8b6:	6078      	str	r0, [r7, #4]
     8b8:	bf00      	nop
     8ba:	370c      	adds	r7, #12
     8bc:	46bd      	mov	sp, r7
     8be:	bc80      	pop	{r7}
     8c0:	4770      	bx	lr
	...

000008c4 <svcThreadCreate>:
     8c4:	b580      	push	{r7, lr}
     8c6:	b086      	sub	sp, #24
     8c8:	af00      	add	r7, sp, #0
     8ca:	6078      	str	r0, [r7, #4]
     8cc:	6039      	str	r1, [r7, #0]
     8ce:	687b      	ldr	r3, [r7, #4]
     8d0:	2b00      	cmp	r3, #0
     8d2:	d00c      	beq.n	8ee <svcThreadCreate+0x2a>
     8d4:	687b      	ldr	r3, [r7, #4]
     8d6:	681b      	ldr	r3, [r3, #0]
     8d8:	2b00      	cmp	r3, #0
     8da:	d008      	beq.n	8ee <svcThreadCreate+0x2a>
     8dc:	687b      	ldr	r3, [r7, #4]
     8de:	685b      	ldr	r3, [r3, #4]
     8e0:	f113 0f03 	cmn.w	r3, #3
     8e4:	db03      	blt.n	8ee <svcThreadCreate+0x2a>
     8e6:	687b      	ldr	r3, [r7, #4]
     8e8:	685b      	ldr	r3, [r3, #4]
     8ea:	2b03      	cmp	r3, #3
     8ec:	dd04      	ble.n	8f8 <svcThreadCreate+0x34>
     8ee:	2080      	movs	r0, #128	@ 0x80
     8f0:	f7ff ffde 	bl	8b0 <sysThreadError>
     8f4:	2300      	movs	r3, #0
     8f6:	e040      	b.n	97a <svcThreadCreate+0xb6>
     8f8:	687b      	ldr	r3, [r7, #4]
     8fa:	68db      	ldr	r3, [r3, #12]
     8fc:	2b00      	cmp	r3, #0
     8fe:	d00e      	beq.n	91e <svcThreadCreate+0x5a>
     900:	687b      	ldr	r3, [r7, #4]
     902:	68db      	ldr	r3, [r3, #12]
     904:	4619      	mov	r1, r3
     906:	481f      	ldr	r0, [pc, #124]	@ (984 <svcThreadCreate+0xc0>)
     908:	f001 f841 	bl	198e <rt_alloc_mem>
     90c:	6178      	str	r0, [r7, #20]
     90e:	697b      	ldr	r3, [r7, #20]
     910:	2b00      	cmp	r3, #0
     912:	d106      	bne.n	922 <svcThreadCreate+0x5e>
     914:	2085      	movs	r0, #133	@ 0x85
     916:	f7ff ffcb 	bl	8b0 <sysThreadError>
     91a:	2300      	movs	r3, #0
     91c:	e02d      	b.n	97a <svcThreadCreate+0xb6>
     91e:	2300      	movs	r3, #0
     920:	617b      	str	r3, [r7, #20]
     922:	687b      	ldr	r3, [r7, #4]
     924:	6818      	ldr	r0, [r3, #0]
     926:	687b      	ldr	r3, [r7, #4]
     928:	685b      	ldr	r3, [r3, #4]
     92a:	3304      	adds	r3, #4
     92c:	461a      	mov	r2, r3
     92e:	687b      	ldr	r3, [r7, #4]
     930:	68db      	ldr	r3, [r3, #12]
     932:	021b      	lsls	r3, r3, #8
     934:	ea42 0103 	orr.w	r1, r2, r3
     938:	683b      	ldr	r3, [r7, #0]
     93a:	697a      	ldr	r2, [r7, #20]
     93c:	f001 fb9c 	bl	2078 <rt_tsk_create>
     940:	6138      	str	r0, [r7, #16]
     942:	693b      	ldr	r3, [r7, #16]
     944:	2b00      	cmp	r3, #0
     946:	d10b      	bne.n	960 <svcThreadCreate+0x9c>
     948:	697b      	ldr	r3, [r7, #20]
     94a:	2b00      	cmp	r3, #0
     94c:	d003      	beq.n	956 <svcThreadCreate+0x92>
     94e:	6979      	ldr	r1, [r7, #20]
     950:	480c      	ldr	r0, [pc, #48]	@ (984 <svcThreadCreate+0xc0>)
     952:	f001 f86f 	bl	1a34 <rt_free_mem>
     956:	2085      	movs	r0, #133	@ 0x85
     958:	f7ff ffaa 	bl	8b0 <sysThreadError>
     95c:	2300      	movs	r3, #0
     95e:	e00c      	b.n	97a <svcThreadCreate+0xb6>
     960:	693b      	ldr	r3, [r7, #16]
     962:	3b01      	subs	r3, #1
     964:	4a08      	ldr	r2, [pc, #32]	@ (988 <svcThreadCreate+0xc4>)
     966:	f852 3023 	ldr.w	r3, [r2, r3, lsl #2]
     96a:	60fb      	str	r3, [r7, #12]
     96c:	68fb      	ldr	r3, [r7, #12]
     96e:	6a9b      	ldr	r3, [r3, #40]	@ 0x28
     970:	3334      	adds	r3, #52	@ 0x34
     972:	461a      	mov	r2, r3
     974:	4b05      	ldr	r3, [pc, #20]	@ (98c <svcThreadCreate+0xc8>)
     976:	6013      	str	r3, [r2, #0]
     978:	68fb      	ldr	r3, [r7, #12]
     97a:	4618      	mov	r0, r3
     97c:	3718      	adds	r7, #24
     97e:	46bd      	mov	sp, r7
     980:	bd80      	pop	{r7, pc}
     982:	bf00      	nop
     984:	20000930 	andcs	r0, r0, r0, lsr r9
     988:	20000b64 	andcs	r0, r0, r4, ror #22
     98c:	00000a81 	andeq	r0, r0, r1, lsl #21

00000990 <svcThreadGetId>:
     990:	b580      	push	{r7, lr}
     992:	b082      	sub	sp, #8
     994:	af00      	add	r7, sp, #0
     996:	f001 faf7 	bl	1f88 <rt_tsk_self>
     99a:	6078      	str	r0, [r7, #4]
     99c:	687b      	ldr	r3, [r7, #4]
     99e:	2b00      	cmp	r3, #0
     9a0:	d101      	bne.n	9a6 <svcThreadGetId+0x16>
     9a2:	2300      	movs	r3, #0
     9a4:	e004      	b.n	9b0 <svcThreadGetId+0x20>
     9a6:	687b      	ldr	r3, [r7, #4]
     9a8:	3b01      	subs	r3, #1
     9aa:	4a03      	ldr	r2, [pc, #12]	@ (9b8 <svcThreadGetId+0x28>)
     9ac:	f852 3023 	ldr.w	r3, [r2, r3, lsl #2]
     9b0:	4618      	mov	r0, r3
     9b2:	3708      	adds	r7, #8
     9b4:	46bd      	mov	sp, r7
     9b6:	bd80      	pop	{r7, pc}
     9b8:	20000b64 	andcs	r0, r0, r4, ror #22

000009bc <svcThreadTerminate>:
     9bc:	b580      	push	{r7, lr}
     9be:	b086      	sub	sp, #24
     9c0:	af00      	add	r7, sp, #0
     9c2:	6078      	str	r0, [r7, #4]
     9c4:	6878      	ldr	r0, [r7, #4]
     9c6:	f7ff fe29 	bl	61c <rt_tid2ptcb>
     9ca:	6178      	str	r0, [r7, #20]
     9cc:	697b      	ldr	r3, [r7, #20]
     9ce:	2b00      	cmp	r3, #0
     9d0:	d101      	bne.n	9d6 <svcThreadTerminate+0x1a>
     9d2:	2380      	movs	r3, #128	@ 0x80
     9d4:	e01b      	b.n	a0e <svcThreadTerminate+0x52>
     9d6:	697b      	ldr	r3, [r7, #20]
     9d8:	8cdb      	ldrh	r3, [r3, #38]	@ 0x26
     9da:	2b00      	cmp	r3, #0
     9dc:	d002      	beq.n	9e4 <svcThreadTerminate+0x28>
     9de:	697b      	ldr	r3, [r7, #20]
     9e0:	6adb      	ldr	r3, [r3, #44]	@ 0x2c
     9e2:	e000      	b.n	9e6 <svcThreadTerminate+0x2a>
     9e4:	2300      	movs	r3, #0
     9e6:	613b      	str	r3, [r7, #16]
     9e8:	697b      	ldr	r3, [r7, #20]
     9ea:	78db      	ldrb	r3, [r3, #3]
     9ec:	4618      	mov	r0, r3
     9ee:	f001 fb8b 	bl	2108 <rt_tsk_delete>
     9f2:	60f8      	str	r0, [r7, #12]
     9f4:	68fb      	ldr	r3, [r7, #12]
     9f6:	2bff      	cmp	r3, #255	@ 0xff
     9f8:	d101      	bne.n	9fe <svcThreadTerminate+0x42>
     9fa:	2381      	movs	r3, #129	@ 0x81
     9fc:	e007      	b.n	a0e <svcThreadTerminate+0x52>
     9fe:	693b      	ldr	r3, [r7, #16]
     a00:	2b00      	cmp	r3, #0
     a02:	d003      	beq.n	a0c <svcThreadTerminate+0x50>
     a04:	6939      	ldr	r1, [r7, #16]
     a06:	4804      	ldr	r0, [pc, #16]	@ (a18 <svcThreadTerminate+0x5c>)
     a08:	f001 f814 	bl	1a34 <rt_free_mem>
     a0c:	2300      	movs	r3, #0
     a0e:	4618      	mov	r0, r3
     a10:	3718      	adds	r7, #24
     a12:	46bd      	mov	sp, r7
     a14:	bd80      	pop	{r7, pc}
     a16:	bf00      	nop
     a18:	20000930 	andcs	r0, r0, r0, lsr r9

00000a1c <osThreadCreate>:
     a1c:	b580      	push	{r7, lr}
     a1e:	b086      	sub	sp, #24
     a20:	af00      	add	r7, sp, #0
     a22:	6078      	str	r0, [r7, #4]
     a24:	6039      	str	r1, [r7, #0]
     a26:	f3ef 8105 	mrs	r1, IPSR
     a2a:	6179      	str	r1, [r7, #20]
     a2c:	6979      	ldr	r1, [r7, #20]
     a2e:	2900      	cmp	r1, #0
     a30:	d001      	beq.n	a36 <osThreadCreate+0x1a>
     a32:	2300      	movs	r3, #0
     a34:	e01c      	b.n	a70 <osThreadCreate+0x54>
     a36:	f3ef 8114 	mrs	r1, CONTROL
     a3a:	6139      	str	r1, [r7, #16]
     a3c:	6939      	ldr	r1, [r7, #16]
     a3e:	f001 0101 	and.w	r1, r1, #1
     a42:	2900      	cmp	r1, #0
     a44:	d109      	bne.n	a5a <osThreadCreate+0x3e>
     a46:	490c      	ldr	r1, [pc, #48]	@ (a78 <osThreadCreate+0x5c>)
     a48:	7809      	ldrb	r1, [r1, #0]
     a4a:	2900      	cmp	r1, #0
     a4c:	d105      	bne.n	a5a <osThreadCreate+0x3e>
     a4e:	6839      	ldr	r1, [r7, #0]
     a50:	6878      	ldr	r0, [r7, #4]
     a52:	f7ff ff37 	bl	8c4 <svcThreadCreate>
     a56:	4603      	mov	r3, r0
     a58:	e00a      	b.n	a70 <osThreadCreate+0x54>
     a5a:	6879      	ldr	r1, [r7, #4]
     a5c:	60f9      	str	r1, [r7, #12]
     a5e:	6839      	ldr	r1, [r7, #0]
     a60:	60b9      	str	r1, [r7, #8]
     a62:	68f8      	ldr	r0, [r7, #12]
     a64:	68b9      	ldr	r1, [r7, #8]
     a66:	f8df c014 	ldr.w	ip, [pc, #20]	@ a7c <osThreadCreate+0x60>
     a6a:	df00      	svc	0
     a6c:	4603      	mov	r3, r0
     a6e:	bf00      	nop
     a70:	4618      	mov	r0, r3
     a72:	3718      	adds	r7, #24
     a74:	46bd      	mov	sp, r7
     a76:	bd80      	pop	{r7, pc}
     a78:	2000026d 	andcs	r0, r0, sp, ror #4
     a7c:	000008c5 	andeq	r0, r0, r5, asr #17

00000a80 <osThreadExit>:
     a80:	b580      	push	{r7, lr}
     a82:	b082      	sub	sp, #8
     a84:	af00      	add	r7, sp, #0
     a86:	f8df c014 	ldr.w	ip, [pc, #20]	@ a9c <osThreadExit+0x1c>
     a8a:	df00      	svc	0
     a8c:	6078      	str	r0, [r7, #4]
     a8e:	6878      	ldr	r0, [r7, #4]
     a90:	f8df c00c 	ldr.w	ip, [pc, #12]	@ aa0 <osThreadExit+0x20>
     a94:	df00      	svc	0
     a96:	bf00      	nop
     a98:	e7fd      	b.n	a96 <osThreadExit+0x16>
     a9a:	09910000 	ldmibeq	r1, {}	@ <UNPREDICTABLE>
     a9e:	09bd0000 	ldmibeq	sp!, {}	@ <UNPREDICTABLE>
	...

00000aa4 <svcDelay>:
     aa4:	b580      	push	{r7, lr}
     aa6:	b082      	sub	sp, #8
     aa8:	af00      	add	r7, sp, #0
     aaa:	6078      	str	r0, [r7, #4]
     aac:	687b      	ldr	r3, [r7, #4]
     aae:	2b00      	cmp	r3, #0
     ab0:	d101      	bne.n	ab6 <svcDelay+0x12>
     ab2:	2300      	movs	r3, #0
     ab4:	e007      	b.n	ac6 <svcDelay+0x22>
     ab6:	6878      	ldr	r0, [r7, #4]
     ab8:	f7ff fd78 	bl	5ac <rt_ms2tick>
     abc:	4603      	mov	r3, r0
     abe:	4618      	mov	r0, r3
     ac0:	f001 fcdc 	bl	247c <rt_dly_wait>
     ac4:	2340      	movs	r3, #64	@ 0x40
     ac6:	4618      	mov	r0, r3
     ac8:	3708      	adds	r7, #8
     aca:	46bd      	mov	sp, r7
     acc:	bd80      	pop	{r7, pc}
	...

00000ad0 <osDelay>:
     ad0:	b580      	push	{r7, lr}
     ad2:	b084      	sub	sp, #16
     ad4:	af00      	add	r7, sp, #0
     ad6:	6078      	str	r0, [r7, #4]
     ad8:	f3ef 8005 	mrs	r0, IPSR
     adc:	60f8      	str	r0, [r7, #12]
     ade:	68f8      	ldr	r0, [r7, #12]
     ae0:	2800      	cmp	r0, #0
     ae2:	d001      	beq.n	ae8 <osDelay+0x18>
     ae4:	2382      	movs	r3, #130	@ 0x82
     ae6:	e007      	b.n	af8 <osDelay+0x28>
     ae8:	6878      	ldr	r0, [r7, #4]
     aea:	60b8      	str	r0, [r7, #8]
     aec:	68b8      	ldr	r0, [r7, #8]
     aee:	f8df c010 	ldr.w	ip, [pc, #16]	@ b00 <osDelay+0x30>
     af2:	df00      	svc	0
     af4:	4603      	mov	r3, r0
     af6:	bf00      	nop
     af8:	4618      	mov	r0, r3
     afa:	3710      	adds	r7, #16
     afc:	46bd      	mov	sp, r7
     afe:	bd80      	pop	{r7, pc}
     b00:	00000aa5 	andeq	r0, r0, r5, lsr #21

00000b04 <rt_timer_insert>:
     b04:	b480      	push	{r7}
     b06:	b085      	sub	sp, #20
     b08:	af00      	add	r7, sp, #0
     b0a:	6078      	str	r0, [r7, #4]
     b0c:	6039      	str	r1, [r7, #0]
     b0e:	2300      	movs	r3, #0
     b10:	60bb      	str	r3, [r7, #8]
     b12:	4b1b      	ldr	r3, [pc, #108]	@ (b80 <rt_timer_insert+0x7c>)
     b14:	681b      	ldr	r3, [r3, #0]
     b16:	60fb      	str	r3, [r7, #12]
     b18:	e00e      	b.n	b38 <rt_timer_insert+0x34>
     b1a:	68fb      	ldr	r3, [r7, #12]
     b1c:	689b      	ldr	r3, [r3, #8]
     b1e:	683a      	ldr	r2, [r7, #0]
     b20:	429a      	cmp	r2, r3
     b22:	d30d      	bcc.n	b40 <rt_timer_insert+0x3c>
     b24:	68fb      	ldr	r3, [r7, #12]
     b26:	689b      	ldr	r3, [r3, #8]
     b28:	683a      	ldr	r2, [r7, #0]
     b2a:	1ad3      	subs	r3, r2, r3
     b2c:	603b      	str	r3, [r7, #0]
     b2e:	68fb      	ldr	r3, [r7, #12]
     b30:	60bb      	str	r3, [r7, #8]
     b32:	68fb      	ldr	r3, [r7, #12]
     b34:	681b      	ldr	r3, [r3, #0]
     b36:	60fb      	str	r3, [r7, #12]
     b38:	68fb      	ldr	r3, [r7, #12]
     b3a:	2b00      	cmp	r3, #0
     b3c:	d1ed      	bne.n	b1a <rt_timer_insert+0x16>
     b3e:	e000      	b.n	b42 <rt_timer_insert+0x3e>
     b40:	bf00      	nop
     b42:	687b      	ldr	r3, [r7, #4]
     b44:	68fa      	ldr	r2, [r7, #12]
     b46:	601a      	str	r2, [r3, #0]
     b48:	687b      	ldr	r3, [r7, #4]
     b4a:	683a      	ldr	r2, [r7, #0]
     b4c:	609a      	str	r2, [r3, #8]
     b4e:	68fb      	ldr	r3, [r7, #12]
     b50:	2b00      	cmp	r3, #0
     b52:	d006      	beq.n	b62 <rt_timer_insert+0x5e>
     b54:	68fb      	ldr	r3, [r7, #12]
     b56:	689a      	ldr	r2, [r3, #8]
     b58:	687b      	ldr	r3, [r7, #4]
     b5a:	689b      	ldr	r3, [r3, #8]
     b5c:	1ad2      	subs	r2, r2, r3
     b5e:	68fb      	ldr	r3, [r7, #12]
     b60:	609a      	str	r2, [r3, #8]
     b62:	68bb      	ldr	r3, [r7, #8]
     b64:	2b00      	cmp	r3, #0
     b66:	d003      	beq.n	b70 <rt_timer_insert+0x6c>
     b68:	68bb      	ldr	r3, [r7, #8]
     b6a:	687a      	ldr	r2, [r7, #4]
     b6c:	601a      	str	r2, [r3, #0]
     b6e:	e002      	b.n	b76 <rt_timer_insert+0x72>
     b70:	4a03      	ldr	r2, [pc, #12]	@ (b80 <rt_timer_insert+0x7c>)
     b72:	687b      	ldr	r3, [r7, #4]
     b74:	6013      	str	r3, [r2, #0]
     b76:	bf00      	nop
     b78:	3714      	adds	r7, #20
     b7a:	46bd      	mov	sp, r7
     b7c:	bc80      	pop	{r7}
     b7e:	4770      	bx	lr
     b80:	20000270 	andcs	r0, r0, r0, ror r2

00000b84 <svcTimerCall>:
     b84:	b580      	push	{r7, lr}
     b86:	b086      	sub	sp, #24
     b88:	af00      	add	r7, sp, #0
     b8a:	6078      	str	r0, [r7, #4]
     b8c:	6878      	ldr	r0, [r7, #4]
     b8e:	f7ff fd63 	bl	658 <rt_id2obj>
     b92:	6178      	str	r0, [r7, #20]
     b94:	697b      	ldr	r3, [r7, #20]
     b96:	2b00      	cmp	r3, #0
     b98:	d10e      	bne.n	bb8 <svcTimerCall+0x34>
     b9a:	2300      	movs	r3, #0
     b9c:	60fb      	str	r3, [r7, #12]
     b9e:	2300      	movs	r3, #0
     ba0:	613b      	str	r3, [r7, #16]
     ba2:	68fb      	ldr	r3, [r7, #12]
     ba4:	4618      	mov	r0, r3
     ba6:	693b      	ldr	r3, [r7, #16]
     ba8:	4619      	mov	r1, r3
     baa:	f04f 0200 	mov.w	r2, #0
     bae:	f04f 0300 	mov.w	r3, #0
     bb2:	4602      	mov	r2, r0
     bb4:	460b      	mov	r3, r1
     bb6:	e010      	b.n	bda <svcTimerCall+0x56>
     bb8:	697b      	ldr	r3, [r7, #20]
     bba:	695b      	ldr	r3, [r3, #20]
     bbc:	681b      	ldr	r3, [r3, #0]
     bbe:	60fb      	str	r3, [r7, #12]
     bc0:	697b      	ldr	r3, [r7, #20]
     bc2:	691b      	ldr	r3, [r3, #16]
     bc4:	613b      	str	r3, [r7, #16]
     bc6:	68fb      	ldr	r3, [r7, #12]
     bc8:	4618      	mov	r0, r3
     bca:	693b      	ldr	r3, [r7, #16]
     bcc:	4619      	mov	r1, r3
     bce:	f04f 0200 	mov.w	r2, #0
     bd2:	f04f 0300 	mov.w	r3, #0
     bd6:	4602      	mov	r2, r0
     bd8:	460b      	mov	r3, r1
     bda:	4610      	mov	r0, r2
     bdc:	4619      	mov	r1, r3
     bde:	3718      	adds	r7, #24
     be0:	46bd      	mov	sp, r7
     be2:	bd80      	pop	{r7, pc}

00000be4 <sysTimerTick>:
     be4:	b580      	push	{r7, lr}
     be6:	b084      	sub	sp, #16
     be8:	af00      	add	r7, sp, #0
     bea:	4b1e      	ldr	r3, [pc, #120]	@ (c64 <__HEAP_SIZE+0x64>)
     bec:	681b      	ldr	r3, [r3, #0]
     bee:	60fb      	str	r3, [r7, #12]
     bf0:	68fb      	ldr	r3, [r7, #12]
     bf2:	2b00      	cmp	r3, #0
     bf4:	d031      	beq.n	c5a <__HEAP_SIZE+0x5a>
     bf6:	68fb      	ldr	r3, [r7, #12]
     bf8:	689b      	ldr	r3, [r3, #8]
     bfa:	1e5a      	subs	r2, r3, #1
     bfc:	68fb      	ldr	r3, [r7, #12]
     bfe:	609a      	str	r2, [r3, #8]
     c00:	e023      	b.n	c4a <__HEAP_SIZE+0x4a>
     c02:	68fb      	ldr	r3, [r7, #12]
     c04:	60bb      	str	r3, [r7, #8]
     c06:	68fb      	ldr	r3, [r7, #12]
     c08:	681b      	ldr	r3, [r3, #0]
     c0a:	60fb      	str	r3, [r7, #12]
     c0c:	4a15      	ldr	r2, [pc, #84]	@ (c64 <__HEAP_SIZE+0x64>)
     c0e:	68fb      	ldr	r3, [r7, #12]
     c10:	6013      	str	r3, [r2, #0]
     c12:	4b15      	ldr	r3, [pc, #84]	@ (c68 <__HEAP_SIZE+0x68>)
     c14:	681b      	ldr	r3, [r3, #0]
     c16:	68b9      	ldr	r1, [r7, #8]
     c18:	2200      	movs	r2, #0
     c1a:	4618      	mov	r0, r3
     c1c:	f000 f8f8 	bl	e10 <isrMessagePut>
     c20:	6078      	str	r0, [r7, #4]
     c22:	687b      	ldr	r3, [r7, #4]
     c24:	2b00      	cmp	r3, #0
     c26:	d002      	beq.n	c2e <__HEAP_SIZE+0x2e>
     c28:	2004      	movs	r0, #4
     c2a:	f001 fc39 	bl	24a0 <os_error>
     c2e:	68bb      	ldr	r3, [r7, #8]
     c30:	795b      	ldrb	r3, [r3, #5]
     c32:	2b01      	cmp	r3, #1
     c34:	d106      	bne.n	c44 <__HEAP_SIZE+0x44>
     c36:	68bb      	ldr	r3, [r7, #8]
     c38:	68db      	ldr	r3, [r3, #12]
     c3a:	4619      	mov	r1, r3
     c3c:	68b8      	ldr	r0, [r7, #8]
     c3e:	f7ff ff61 	bl	b04 <rt_timer_insert>
     c42:	e002      	b.n	c4a <__HEAP_SIZE+0x4a>
     c44:	68bb      	ldr	r3, [r7, #8]
     c46:	2201      	movs	r2, #1
     c48:	711a      	strb	r2, [r3, #4]
     c4a:	68fb      	ldr	r3, [r7, #12]
     c4c:	2b00      	cmp	r3, #0
     c4e:	d005      	beq.n	c5c <__HEAP_SIZE+0x5c>
     c50:	68fb      	ldr	r3, [r7, #12]
     c52:	689b      	ldr	r3, [r3, #8]
     c54:	2b00      	cmp	r3, #0
     c56:	d0d4      	beq.n	c02 <__HEAP_SIZE+0x2>
     c58:	e000      	b.n	c5c <__HEAP_SIZE+0x5c>
     c5a:	bf00      	nop
     c5c:	3710      	adds	r7, #16
     c5e:	46bd      	mov	sp, r7
     c60:	bd80      	pop	{r7, pc}
     c62:	bf00      	nop
     c64:	20000270 	andcs	r0, r0, r0, ror r2
     c68:	20000ba4 	andcs	r0, r0, r4, lsr #23

00000c6c <osTimerCall>:
     c6c:	b580      	push	{r7, lr}
     c6e:	b086      	sub	sp, #24
     c70:	af00      	add	r7, sp, #0
     c72:	6078      	str	r0, [r7, #4]
     c74:	6039      	str	r1, [r7, #0]
     c76:	6838      	ldr	r0, [r7, #0]
     c78:	6178      	str	r0, [r7, #20]
     c7a:	6978      	ldr	r0, [r7, #20]
     c7c:	f8df c01c 	ldr.w	ip, [pc, #28]	@ c9c <osTimerCall+0x30>
     c80:	df00      	svc	0
     c82:	4602      	mov	r2, r0
     c84:	460b      	mov	r3, r1
     c86:	4619      	mov	r1, r3
     c88:	687b      	ldr	r3, [r7, #4]
     c8a:	601a      	str	r2, [r3, #0]
     c8c:	687b      	ldr	r3, [r7, #4]
     c8e:	6059      	str	r1, [r3, #4]
     c90:	bf00      	nop
     c92:	6878      	ldr	r0, [r7, #4]
     c94:	3718      	adds	r7, #24
     c96:	46bd      	mov	sp, r7
     c98:	bd80      	pop	{r7, pc}
     c9a:	0b850000 	bleq	fe140ca2 <__StackTop+0xde130ca2>
	...

00000ca0 <osTimerThread>:
     ca0:	b580      	push	{r7, lr}
     ca2:	b088      	sub	sp, #32
     ca4:	af00      	add	r7, sp, #0
     ca6:	6078      	str	r0, [r7, #4]
     ca8:	4b0d      	ldr	r3, [pc, #52]	@ (ce0 <osTimerThread+0x40>)
     caa:	6819      	ldr	r1, [r3, #0]
     cac:	f107 030c 	add.w	r3, r7, #12
     cb0:	f04f 32ff 	mov.w	r2, #4294967295	@ 0xffffffff
     cb4:	4618      	mov	r0, r3
     cb6:	f000 f91b 	bl	ef0 <osMessageGet>
     cba:	68fb      	ldr	r3, [r7, #12]
     cbc:	2b10      	cmp	r3, #16
     cbe:	d1f3      	bne.n	ca8 <osTimerThread+0x8>
     cc0:	693a      	ldr	r2, [r7, #16]
     cc2:	f107 0318 	add.w	r3, r7, #24
     cc6:	4611      	mov	r1, r2
     cc8:	4618      	mov	r0, r3
     cca:	f7ff ffcf 	bl	c6c <osTimerCall>
     cce:	69bb      	ldr	r3, [r7, #24]
     cd0:	2b00      	cmp	r3, #0
     cd2:	d0e9      	beq.n	ca8 <osTimerThread+0x8>
     cd4:	69bb      	ldr	r3, [r7, #24]
     cd6:	461a      	mov	r2, r3
     cd8:	69fb      	ldr	r3, [r7, #28]
     cda:	4618      	mov	r0, r3
     cdc:	4790      	blx	r2
     cde:	e7e3      	b.n	ca8 <osTimerThread+0x8>
     ce0:	20000ba4 	andcs	r0, r0, r4, lsr #23

00000ce4 <svcMessageCreate>:
     ce4:	b580      	push	{r7, lr}
     ce6:	b082      	sub	sp, #8
     ce8:	af00      	add	r7, sp, #0
     cea:	6078      	str	r0, [r7, #4]
     cec:	6039      	str	r1, [r7, #0]
     cee:	687b      	ldr	r3, [r7, #4]
     cf0:	2b00      	cmp	r3, #0
     cf2:	d007      	beq.n	d04 <svcMessageCreate+0x20>
     cf4:	687b      	ldr	r3, [r7, #4]
     cf6:	681b      	ldr	r3, [r3, #0]
     cf8:	2b00      	cmp	r3, #0
     cfa:	d003      	beq.n	d04 <svcMessageCreate+0x20>
     cfc:	687b      	ldr	r3, [r7, #4]
     cfe:	685b      	ldr	r3, [r3, #4]
     d00:	2b00      	cmp	r3, #0
     d02:	d104      	bne.n	d0e <svcMessageCreate+0x2a>
     d04:	2080      	movs	r0, #128	@ 0x80
     d06:	f7ff fdd3 	bl	8b0 <sysThreadError>
     d0a:	2300      	movs	r3, #0
     d0c:	e017      	b.n	d3e <svcMessageCreate+0x5a>
     d0e:	687b      	ldr	r3, [r7, #4]
     d10:	685b      	ldr	r3, [r3, #4]
     d12:	781b      	ldrb	r3, [r3, #0]
     d14:	2b00      	cmp	r3, #0
     d16:	d004      	beq.n	d22 <svcMessageCreate+0x3e>
     d18:	2080      	movs	r0, #128	@ 0x80
     d1a:	f7ff fdc9 	bl	8b0 <sysThreadError>
     d1e:	2300      	movs	r3, #0
     d20:	e00d      	b.n	d3e <svcMessageCreate+0x5a>
     d22:	687b      	ldr	r3, [r7, #4]
     d24:	685a      	ldr	r2, [r3, #4]
     d26:	687b      	ldr	r3, [r7, #4]
     d28:	681b      	ldr	r3, [r3, #0]
     d2a:	3304      	adds	r3, #4
     d2c:	b29b      	uxth	r3, r3
     d2e:	009b      	lsls	r3, r3, #2
     d30:	b29b      	uxth	r3, r3
     d32:	4619      	mov	r1, r3
     d34:	4610      	mov	r0, r2
     d36:	f000 fb95 	bl	1464 <rt_mbx_init>
     d3a:	687b      	ldr	r3, [r7, #4]
     d3c:	685b      	ldr	r3, [r3, #4]
     d3e:	4618      	mov	r0, r3
     d40:	3708      	adds	r7, #8
     d42:	46bd      	mov	sp, r7
     d44:	bd80      	pop	{r7, pc}

00000d46 <svcMessageGet>:
     d46:	e92d 4ff0 	stmdb	sp!, {r4, r5, r6, r7, r8, r9, sl, fp, lr}
     d4a:	b087      	sub	sp, #28
     d4c:	af00      	add	r7, sp, #0
     d4e:	6078      	str	r0, [r7, #4]
     d50:	6039      	str	r1, [r7, #0]
     d52:	687b      	ldr	r3, [r7, #4]
     d54:	2b00      	cmp	r3, #0
     d56:	d10c      	bne.n	d72 <svcMessageGet+0x2c>
     d58:	2380      	movs	r3, #128	@ 0x80
     d5a:	60bb      	str	r3, [r7, #8]
     d5c:	68bc      	ldr	r4, [r7, #8]
     d5e:	2000      	movs	r0, #0
     d60:	2100      	movs	r1, #0
     d62:	2200      	movs	r2, #0
     d64:	2300      	movs	r3, #0
     d66:	4620      	mov	r0, r4
     d68:	4680      	mov	r8, r0
     d6a:	4689      	mov	r9, r1
     d6c:	4692      	mov	sl, r2
     d6e:	469b      	mov	fp, r3
     d70:	e042      	b.n	df8 <svcMessageGet+0xb2>
     d72:	687b      	ldr	r3, [r7, #4]
     d74:	781b      	ldrb	r3, [r3, #0]
     d76:	2b01      	cmp	r3, #1
     d78:	d00c      	beq.n	d94 <svcMessageGet+0x4e>
     d7a:	2380      	movs	r3, #128	@ 0x80
     d7c:	60bb      	str	r3, [r7, #8]
     d7e:	68bc      	ldr	r4, [r7, #8]
     d80:	2000      	movs	r0, #0
     d82:	2100      	movs	r1, #0
     d84:	2200      	movs	r2, #0
     d86:	2300      	movs	r3, #0
     d88:	4620      	mov	r0, r4
     d8a:	4680      	mov	r8, r0
     d8c:	4689      	mov	r9, r1
     d8e:	4692      	mov	sl, r2
     d90:	469b      	mov	fp, r3
     d92:	e031      	b.n	df8 <svcMessageGet+0xb2>
     d94:	6838      	ldr	r0, [r7, #0]
     d96:	f7ff fc09 	bl	5ac <rt_ms2tick>
     d9a:	4603      	mov	r3, r0
     d9c:	461a      	mov	r2, r3
     d9e:	f107 0308 	add.w	r3, r7, #8
     da2:	3304      	adds	r3, #4
     da4:	4619      	mov	r1, r3
     da6:	6878      	ldr	r0, [r7, #4]
     da8:	f000 fb84 	bl	14b4 <rt_mbx_wait>
     dac:	6178      	str	r0, [r7, #20]
     dae:	697b      	ldr	r3, [r7, #20]
     db0:	2b01      	cmp	r3, #1
     db2:	d113      	bne.n	ddc <svcMessageGet+0x96>
     db4:	683b      	ldr	r3, [r7, #0]
     db6:	2b00      	cmp	r3, #0
     db8:	d001      	beq.n	dbe <svcMessageGet+0x78>
     dba:	2340      	movs	r3, #64	@ 0x40
     dbc:	e000      	b.n	dc0 <svcMessageGet+0x7a>
     dbe:	2300      	movs	r3, #0
     dc0:	60bb      	str	r3, [r7, #8]
     dc2:	68bd      	ldr	r5, [r7, #8]
     dc4:	68fc      	ldr	r4, [r7, #12]
     dc6:	2000      	movs	r0, #0
     dc8:	2100      	movs	r1, #0
     dca:	2200      	movs	r2, #0
     dcc:	2300      	movs	r3, #0
     dce:	4628      	mov	r0, r5
     dd0:	4621      	mov	r1, r4
     dd2:	4680      	mov	r8, r0
     dd4:	4689      	mov	r9, r1
     dd6:	4692      	mov	sl, r2
     dd8:	469b      	mov	fp, r3
     dda:	e00d      	b.n	df8 <svcMessageGet+0xb2>
     ddc:	2310      	movs	r3, #16
     dde:	60bb      	str	r3, [r7, #8]
     de0:	68bd      	ldr	r5, [r7, #8]
     de2:	68fc      	ldr	r4, [r7, #12]
     de4:	2000      	movs	r0, #0
     de6:	2100      	movs	r1, #0
     de8:	2200      	movs	r2, #0
     dea:	2300      	movs	r3, #0
     dec:	4628      	mov	r0, r5
     dee:	4621      	mov	r1, r4
     df0:	4680      	mov	r8, r0
     df2:	4689      	mov	r9, r1
     df4:	4692      	mov	sl, r2
     df6:	469b      	mov	fp, r3
     df8:	4643      	mov	r3, r8
     dfa:	464c      	mov	r4, r9
     dfc:	4655      	mov	r5, sl
     dfe:	465e      	mov	r6, fp
     e00:	4618      	mov	r0, r3
     e02:	4621      	mov	r1, r4
     e04:	462a      	mov	r2, r5
     e06:	4633      	mov	r3, r6
     e08:	371c      	adds	r7, #28
     e0a:	46bd      	mov	sp, r7
     e0c:	e8bd 8ff0 	ldmia.w	sp!, {r4, r5, r6, r7, r8, r9, sl, fp, pc}

00000e10 <isrMessagePut>:
     e10:	b580      	push	{r7, lr}
     e12:	b084      	sub	sp, #16
     e14:	af00      	add	r7, sp, #0
     e16:	60f8      	str	r0, [r7, #12]
     e18:	60b9      	str	r1, [r7, #8]
     e1a:	607a      	str	r2, [r7, #4]
     e1c:	68fb      	ldr	r3, [r7, #12]
     e1e:	2b00      	cmp	r3, #0
     e20:	d002      	beq.n	e28 <isrMessagePut+0x18>
     e22:	687b      	ldr	r3, [r7, #4]
     e24:	2b00      	cmp	r3, #0
     e26:	d001      	beq.n	e2c <isrMessagePut+0x1c>
     e28:	2380      	movs	r3, #128	@ 0x80
     e2a:	e013      	b.n	e54 <isrMessagePut+0x44>
     e2c:	68fb      	ldr	r3, [r7, #12]
     e2e:	781b      	ldrb	r3, [r3, #0]
     e30:	2b01      	cmp	r3, #1
     e32:	d001      	beq.n	e38 <isrMessagePut+0x28>
     e34:	2380      	movs	r3, #128	@ 0x80
     e36:	e00d      	b.n	e54 <isrMessagePut+0x44>
     e38:	68f8      	ldr	r0, [r7, #12]
     e3a:	f000 fbc9 	bl	15d0 <rt_mbx_check>
     e3e:	4603      	mov	r3, r0
     e40:	2b00      	cmp	r3, #0
     e42:	d101      	bne.n	e48 <isrMessagePut+0x38>
     e44:	2381      	movs	r3, #129	@ 0x81
     e46:	e005      	b.n	e54 <isrMessagePut+0x44>
     e48:	68bb      	ldr	r3, [r7, #8]
     e4a:	4619      	mov	r1, r3
     e4c:	68f8      	ldr	r0, [r7, #12]
     e4e:	f000 fbd0 	bl	15f2 <isr_mbx_send>
     e52:	2300      	movs	r3, #0
     e54:	4618      	mov	r0, r3
     e56:	3710      	adds	r7, #16
     e58:	46bd      	mov	sp, r7
     e5a:	bd80      	pop	{r7, pc}

00000e5c <isrMessageGet>:
     e5c:	b590      	push	{r4, r7, lr}
     e5e:	b089      	sub	sp, #36	@ 0x24
     e60:	af00      	add	r7, sp, #0
     e62:	60f8      	str	r0, [r7, #12]
     e64:	60b9      	str	r1, [r7, #8]
     e66:	607a      	str	r2, [r7, #4]
     e68:	68bb      	ldr	r3, [r7, #8]
     e6a:	2b00      	cmp	r3, #0
     e6c:	d002      	beq.n	e74 <isrMessageGet+0x18>
     e6e:	687b      	ldr	r3, [r7, #4]
     e70:	2b00      	cmp	r3, #0
     e72:	d00a      	beq.n	e8a <isrMessageGet+0x2e>
     e74:	2380      	movs	r3, #128	@ 0x80
     e76:	613b      	str	r3, [r7, #16]
     e78:	68fb      	ldr	r3, [r7, #12]
     e7a:	461c      	mov	r4, r3
     e7c:	f107 0310 	add.w	r3, r7, #16
     e80:	e893 0007 	ldmia.w	r3, {r0, r1, r2}
     e84:	e884 0007 	stmia.w	r4, {r0, r1, r2}
     e88:	e02e      	b.n	ee8 <isrMessageGet+0x8c>
     e8a:	68bb      	ldr	r3, [r7, #8]
     e8c:	781b      	ldrb	r3, [r3, #0]
     e8e:	2b01      	cmp	r3, #1
     e90:	d00a      	beq.n	ea8 <isrMessageGet+0x4c>
     e92:	2380      	movs	r3, #128	@ 0x80
     e94:	613b      	str	r3, [r7, #16]
     e96:	68fb      	ldr	r3, [r7, #12]
     e98:	461c      	mov	r4, r3
     e9a:	f107 0310 	add.w	r3, r7, #16
     e9e:	e893 0007 	ldmia.w	r3, {r0, r1, r2}
     ea2:	e884 0007 	stmia.w	r4, {r0, r1, r2}
     ea6:	e01f      	b.n	ee8 <isrMessageGet+0x8c>
     ea8:	f107 0310 	add.w	r3, r7, #16
     eac:	3304      	adds	r3, #4
     eae:	4619      	mov	r1, r3
     eb0:	68b8      	ldr	r0, [r7, #8]
     eb2:	f000 fbb0 	bl	1616 <isr_mbx_receive>
     eb6:	61f8      	str	r0, [r7, #28]
     eb8:	69fb      	ldr	r3, [r7, #28]
     eba:	2b04      	cmp	r3, #4
     ebc:	d00a      	beq.n	ed4 <isrMessageGet+0x78>
     ebe:	2300      	movs	r3, #0
     ec0:	613b      	str	r3, [r7, #16]
     ec2:	68fb      	ldr	r3, [r7, #12]
     ec4:	461c      	mov	r4, r3
     ec6:	f107 0310 	add.w	r3, r7, #16
     eca:	e893 0007 	ldmia.w	r3, {r0, r1, r2}
     ece:	e884 0007 	stmia.w	r4, {r0, r1, r2}
     ed2:	e009      	b.n	ee8 <isrMessageGet+0x8c>
     ed4:	2310      	movs	r3, #16
     ed6:	613b      	str	r3, [r7, #16]
     ed8:	68fb      	ldr	r3, [r7, #12]
     eda:	461c      	mov	r4, r3
     edc:	f107 0310 	add.w	r3, r7, #16
     ee0:	e893 0007 	ldmia.w	r3, {r0, r1, r2}
     ee4:	e884 0007 	stmia.w	r4, {r0, r1, r2}
     ee8:	68f8      	ldr	r0, [r7, #12]
     eea:	3724      	adds	r7, #36	@ 0x24
     eec:	46bd      	mov	sp, r7
     eee:	bd90      	pop	{r4, r7, pc}

00000ef0 <osMessageGet>:
     ef0:	b580      	push	{r7, lr}
     ef2:	b08a      	sub	sp, #40	@ 0x28
     ef4:	af00      	add	r7, sp, #0
     ef6:	60f8      	str	r0, [r7, #12]
     ef8:	60b9      	str	r1, [r7, #8]
     efa:	607a      	str	r2, [r7, #4]
     efc:	f3ef 8105 	mrs	r1, IPSR
     f00:	6279      	str	r1, [r7, #36]	@ 0x24
     f02:	6a79      	ldr	r1, [r7, #36]	@ 0x24
     f04:	2900      	cmp	r1, #0
     f06:	d006      	beq.n	f16 <osMessageGet+0x26>
     f08:	68fb      	ldr	r3, [r7, #12]
     f0a:	687a      	ldr	r2, [r7, #4]
     f0c:	68b9      	ldr	r1, [r7, #8]
     f0e:	4618      	mov	r0, r3
     f10:	f7ff ffa4 	bl	e5c <isrMessageGet>
     f14:	e013      	b.n	f3e <osMessageGet+0x4e>
     f16:	68b9      	ldr	r1, [r7, #8]
     f18:	6239      	str	r1, [r7, #32]
     f1a:	6879      	ldr	r1, [r7, #4]
     f1c:	61f9      	str	r1, [r7, #28]
     f1e:	6a38      	ldr	r0, [r7, #32]
     f20:	69f9      	ldr	r1, [r7, #28]
     f22:	f8df c024 	ldr.w	ip, [pc, #36]	@ f48 <osMessageGet+0x58>
     f26:	df00      	svc	0
     f28:	4603      	mov	r3, r0
     f2a:	4618      	mov	r0, r3
     f2c:	4613      	mov	r3, r2
     f2e:	461a      	mov	r2, r3
     f30:	68fb      	ldr	r3, [r7, #12]
     f32:	6018      	str	r0, [r3, #0]
     f34:	68fb      	ldr	r3, [r7, #12]
     f36:	6059      	str	r1, [r3, #4]
     f38:	68fb      	ldr	r3, [r7, #12]
     f3a:	609a      	str	r2, [r3, #8]
     f3c:	bf00      	nop
     f3e:	68f8      	ldr	r0, [r7, #12]
     f40:	3728      	adds	r7, #40	@ 0x28
     f42:	46bd      	mov	sp, r7
     f44:	bd80      	pop	{r7, pc}
     f46:	0d470000 	stcleq	0, cr0, [r7, #-0]
	...

00000f4c <rt_evt_psh>:
     f4c:	b580      	push	{r7, lr}
     f4e:	b084      	sub	sp, #16
     f50:	af00      	add	r7, sp, #0
     f52:	6078      	str	r0, [r7, #4]
     f54:	460b      	mov	r3, r1
     f56:	807b      	strh	r3, [r7, #2]
     f58:	687b      	ldr	r3, [r7, #4]
     f5a:	8b1a      	ldrh	r2, [r3, #24]
     f5c:	887b      	ldrh	r3, [r7, #2]
     f5e:	4313      	orrs	r3, r2
     f60:	b29a      	uxth	r2, r3
     f62:	687b      	ldr	r3, [r7, #4]
     f64:	831a      	strh	r2, [r3, #24]
     f66:	687b      	ldr	r3, [r7, #4]
     f68:	8b5b      	ldrh	r3, [r3, #26]
     f6a:	81fb      	strh	r3, [r7, #14]
     f6c:	687b      	ldr	r3, [r7, #4]
     f6e:	785b      	ldrb	r3, [r3, #1]
     f70:	2b06      	cmp	r3, #6
     f72:	d107      	bne.n	f84 <rt_evt_psh+0x38>
     f74:	687b      	ldr	r3, [r7, #4]
     f76:	8b1a      	ldrh	r2, [r3, #24]
     f78:	89fb      	ldrh	r3, [r7, #14]
     f7a:	4013      	ands	r3, r2
     f7c:	b29b      	uxth	r3, r3
     f7e:	89fa      	ldrh	r2, [r7, #14]
     f80:	429a      	cmp	r2, r3
     f82:	d013      	beq.n	fac <rt_evt_psh+0x60>
     f84:	687b      	ldr	r3, [r7, #4]
     f86:	785b      	ldrb	r3, [r3, #1]
     f88:	2b05      	cmp	r3, #5
     f8a:	d12d      	bne.n	fe8 <rt_evt_psh+0x9c>
     f8c:	687b      	ldr	r3, [r7, #4]
     f8e:	8b1a      	ldrh	r2, [r3, #24]
     f90:	89fb      	ldrh	r3, [r7, #14]
     f92:	4013      	ands	r3, r2
     f94:	b29b      	uxth	r3, r3
     f96:	2b00      	cmp	r3, #0
     f98:	d026      	beq.n	fe8 <rt_evt_psh+0x9c>
     f9a:	687b      	ldr	r3, [r7, #4]
     f9c:	8b5a      	ldrh	r2, [r3, #26]
     f9e:	687b      	ldr	r3, [r7, #4]
     fa0:	8b1b      	ldrh	r3, [r3, #24]
     fa2:	4013      	ands	r3, r2
     fa4:	b29a      	uxth	r2, r3
     fa6:	687b      	ldr	r3, [r7, #4]
     fa8:	835a      	strh	r2, [r3, #26]
     faa:	e000      	b.n	fae <rt_evt_psh+0x62>
     fac:	bf00      	nop
     fae:	687b      	ldr	r3, [r7, #4]
     fb0:	8b1b      	ldrh	r3, [r3, #24]
     fb2:	b21a      	sxth	r2, r3
     fb4:	f9b7 300e 	ldrsh.w	r3, [r7, #14]
     fb8:	43db      	mvns	r3, r3
     fba:	b21b      	sxth	r3, r3
     fbc:	4013      	ands	r3, r2
     fbe:	b21b      	sxth	r3, r3
     fc0:	b29a      	uxth	r2, r3
     fc2:	687b      	ldr	r3, [r7, #4]
     fc4:	831a      	strh	r2, [r3, #24]
     fc6:	6878      	ldr	r0, [r7, #4]
     fc8:	f000 f9f2 	bl	13b0 <rt_rmv_dly>
     fcc:	687b      	ldr	r3, [r7, #4]
     fce:	2201      	movs	r2, #1
     fd0:	705a      	strb	r2, [r3, #1]
     fd2:	687b      	ldr	r3, [r7, #4]
     fd4:	8b5b      	ldrh	r3, [r3, #26]
     fd6:	461a      	mov	r2, r3
     fd8:	2108      	movs	r1, #8
     fda:	6878      	ldr	r0, [r7, #4]
     fdc:	f7ff fad0 	bl	580 <rt_ret_val2>
     fe0:	6879      	ldr	r1, [r7, #4]
     fe2:	4803      	ldr	r0, [pc, #12]	@ (ff0 <rt_evt_psh+0xa4>)
     fe4:	f000 f835 	bl	1052 <rt_put_prio>
     fe8:	bf00      	nop
     fea:	3710      	adds	r7, #16
     fec:	46bd      	mov	sp, r7
     fee:	bd80      	pop	{r7, pc}
     ff0:	20000274 	andcs	r0, r0, r4, ror r2

00000ff4 <rt_inc_qi>:
     ff4:	b480      	push	{r7}
     ff6:	b089      	sub	sp, #36	@ 0x24
     ff8:	af00      	add	r7, sp, #0
     ffa:	60f8      	str	r0, [r7, #12]
     ffc:	60b9      	str	r1, [r7, #8]
     ffe:	607a      	str	r2, [r7, #4]
    1000:	f3ef 8310 	mrs	r3, PRIMASK
    1004:	617b      	str	r3, [r7, #20]
    1006:	b672      	cpsid	i
    1008:	68bb      	ldr	r3, [r7, #8]
    100a:	781b      	ldrb	r3, [r3, #0]
    100c:	61fb      	str	r3, [r7, #28]
    100e:	69fa      	ldr	r2, [r7, #28]
    1010:	68fb      	ldr	r3, [r7, #12]
    1012:	429a      	cmp	r2, r3
    1014:	d215      	bcs.n	1042 <rt_inc_qi+0x4e>
    1016:	69fb      	ldr	r3, [r7, #28]
    1018:	b2db      	uxtb	r3, r3
    101a:	3301      	adds	r3, #1
    101c:	b2da      	uxtb	r2, r3
    101e:	68bb      	ldr	r3, [r7, #8]
    1020:	701a      	strb	r2, [r3, #0]
    1022:	687b      	ldr	r3, [r7, #4]
    1024:	781b      	ldrb	r3, [r3, #0]
    1026:	61fb      	str	r3, [r7, #28]
    1028:	69fb      	ldr	r3, [r7, #28]
    102a:	3301      	adds	r3, #1
    102c:	61bb      	str	r3, [r7, #24]
    102e:	69ba      	ldr	r2, [r7, #24]
    1030:	68fb      	ldr	r3, [r7, #12]
    1032:	429a      	cmp	r2, r3
    1034:	d101      	bne.n	103a <rt_inc_qi+0x46>
    1036:	2300      	movs	r3, #0
    1038:	61bb      	str	r3, [r7, #24]
    103a:	69bb      	ldr	r3, [r7, #24]
    103c:	b2da      	uxtb	r2, r3
    103e:	687b      	ldr	r3, [r7, #4]
    1040:	701a      	strb	r2, [r3, #0]
    1042:	b662      	cpsie	i
    1044:	bf00      	nop
    1046:	69fb      	ldr	r3, [r7, #28]
    1048:	4618      	mov	r0, r3
    104a:	3724      	adds	r7, #36	@ 0x24
    104c:	46bd      	mov	sp, r7
    104e:	bc80      	pop	{r7}
    1050:	4770      	bx	lr

00001052 <rt_put_prio>:
    1052:	b480      	push	{r7}
    1054:	b087      	sub	sp, #28
    1056:	af00      	add	r7, sp, #0
    1058:	6078      	str	r0, [r7, #4]
    105a:	6039      	str	r1, [r7, #0]
    105c:	2300      	movs	r3, #0
    105e:	613b      	str	r3, [r7, #16]
    1060:	687b      	ldr	r3, [r7, #4]
    1062:	781b      	ldrb	r3, [r3, #0]
    1064:	2b02      	cmp	r3, #2
    1066:	d007      	beq.n	1078 <rt_put_prio+0x26>
    1068:	687b      	ldr	r3, [r7, #4]
    106a:	781b      	ldrb	r3, [r3, #0]
    106c:	2b01      	cmp	r3, #1
    106e:	d003      	beq.n	1078 <rt_put_prio+0x26>
    1070:	687b      	ldr	r3, [r7, #4]
    1072:	781b      	ldrb	r3, [r3, #0]
    1074:	2b03      	cmp	r3, #3
    1076:	d101      	bne.n	107c <rt_put_prio+0x2a>
    1078:	2301      	movs	r3, #1
    107a:	613b      	str	r3, [r7, #16]
    107c:	683b      	ldr	r3, [r7, #0]
    107e:	789b      	ldrb	r3, [r3, #2]
    1080:	60fb      	str	r3, [r7, #12]
    1082:	687b      	ldr	r3, [r7, #4]
    1084:	685b      	ldr	r3, [r3, #4]
    1086:	617b      	str	r3, [r7, #20]
    1088:	e004      	b.n	1094 <rt_put_prio+0x42>
    108a:	697b      	ldr	r3, [r7, #20]
    108c:	607b      	str	r3, [r7, #4]
    108e:	697b      	ldr	r3, [r7, #20]
    1090:	685b      	ldr	r3, [r3, #4]
    1092:	617b      	str	r3, [r7, #20]
    1094:	697b      	ldr	r3, [r7, #20]
    1096:	2b00      	cmp	r3, #0
    1098:	d005      	beq.n	10a6 <rt_put_prio+0x54>
    109a:	697b      	ldr	r3, [r7, #20]
    109c:	789b      	ldrb	r3, [r3, #2]
    109e:	461a      	mov	r2, r3
    10a0:	68fb      	ldr	r3, [r7, #12]
    10a2:	4293      	cmp	r3, r2
    10a4:	d9f1      	bls.n	108a <rt_put_prio+0x38>
    10a6:	683b      	ldr	r3, [r7, #0]
    10a8:	697a      	ldr	r2, [r7, #20]
    10aa:	605a      	str	r2, [r3, #4]
    10ac:	687b      	ldr	r3, [r7, #4]
    10ae:	683a      	ldr	r2, [r7, #0]
    10b0:	605a      	str	r2, [r3, #4]
    10b2:	693b      	ldr	r3, [r7, #16]
    10b4:	2b00      	cmp	r3, #0
    10b6:	d009      	beq.n	10cc <rt_put_prio+0x7a>
    10b8:	697b      	ldr	r3, [r7, #20]
    10ba:	2b00      	cmp	r3, #0
    10bc:	d002      	beq.n	10c4 <rt_put_prio+0x72>
    10be:	697b      	ldr	r3, [r7, #20]
    10c0:	683a      	ldr	r2, [r7, #0]
    10c2:	609a      	str	r2, [r3, #8]
    10c4:	683b      	ldr	r3, [r7, #0]
    10c6:	687a      	ldr	r2, [r7, #4]
    10c8:	609a      	str	r2, [r3, #8]
    10ca:	e002      	b.n	10d2 <rt_put_prio+0x80>
    10cc:	683b      	ldr	r3, [r7, #0]
    10ce:	2200      	movs	r2, #0
    10d0:	609a      	str	r2, [r3, #8]
    10d2:	bf00      	nop
    10d4:	371c      	adds	r7, #28
    10d6:	46bd      	mov	sp, r7
    10d8:	bc80      	pop	{r7}
    10da:	4770      	bx	lr

000010dc <rt_get_first>:
    10dc:	b480      	push	{r7}
    10de:	b085      	sub	sp, #20
    10e0:	af00      	add	r7, sp, #0
    10e2:	6078      	str	r0, [r7, #4]
    10e4:	687b      	ldr	r3, [r7, #4]
    10e6:	685b      	ldr	r3, [r3, #4]
    10e8:	60fb      	str	r3, [r7, #12]
    10ea:	68fb      	ldr	r3, [r7, #12]
    10ec:	685a      	ldr	r2, [r3, #4]
    10ee:	687b      	ldr	r3, [r7, #4]
    10f0:	605a      	str	r2, [r3, #4]
    10f2:	687b      	ldr	r3, [r7, #4]
    10f4:	781b      	ldrb	r3, [r3, #0]
    10f6:	2b02      	cmp	r3, #2
    10f8:	d007      	beq.n	110a <rt_get_first+0x2e>
    10fa:	687b      	ldr	r3, [r7, #4]
    10fc:	781b      	ldrb	r3, [r3, #0]
    10fe:	2b01      	cmp	r3, #1
    1100:	d003      	beq.n	110a <rt_get_first+0x2e>
    1102:	687b      	ldr	r3, [r7, #4]
    1104:	781b      	ldrb	r3, [r3, #0]
    1106:	2b03      	cmp	r3, #3
    1108:	d10e      	bne.n	1128 <rt_get_first+0x4c>
    110a:	68fb      	ldr	r3, [r7, #12]
    110c:	685b      	ldr	r3, [r3, #4]
    110e:	2b00      	cmp	r3, #0
    1110:	d006      	beq.n	1120 <rt_get_first+0x44>
    1112:	68fb      	ldr	r3, [r7, #12]
    1114:	685b      	ldr	r3, [r3, #4]
    1116:	687a      	ldr	r2, [r7, #4]
    1118:	609a      	str	r2, [r3, #8]
    111a:	68fb      	ldr	r3, [r7, #12]
    111c:	2200      	movs	r2, #0
    111e:	605a      	str	r2, [r3, #4]
    1120:	68fb      	ldr	r3, [r7, #12]
    1122:	2200      	movs	r2, #0
    1124:	609a      	str	r2, [r3, #8]
    1126:	e002      	b.n	112e <rt_get_first+0x52>
    1128:	68fb      	ldr	r3, [r7, #12]
    112a:	2200      	movs	r2, #0
    112c:	605a      	str	r2, [r3, #4]
    112e:	68fb      	ldr	r3, [r7, #12]
    1130:	4618      	mov	r0, r3
    1132:	3714      	adds	r7, #20
    1134:	46bd      	mov	sp, r7
    1136:	bc80      	pop	{r7}
    1138:	4770      	bx	lr
	...

0000113c <rt_put_rdy_first>:
    113c:	b480      	push	{r7}
    113e:	b083      	sub	sp, #12
    1140:	af00      	add	r7, sp, #0
    1142:	6078      	str	r0, [r7, #4]
    1144:	4b07      	ldr	r3, [pc, #28]	@ (1164 <rt_put_rdy_first+0x28>)
    1146:	685a      	ldr	r2, [r3, #4]
    1148:	687b      	ldr	r3, [r7, #4]
    114a:	605a      	str	r2, [r3, #4]
    114c:	687b      	ldr	r3, [r7, #4]
    114e:	2200      	movs	r2, #0
    1150:	609a      	str	r2, [r3, #8]
    1152:	4a04      	ldr	r2, [pc, #16]	@ (1164 <rt_put_rdy_first+0x28>)
    1154:	687b      	ldr	r3, [r7, #4]
    1156:	6053      	str	r3, [r2, #4]
    1158:	bf00      	nop
    115a:	370c      	adds	r7, #12
    115c:	46bd      	mov	sp, r7
    115e:	bc80      	pop	{r7}
    1160:	4770      	bx	lr
    1162:	bf00      	nop
    1164:	20000274 	andcs	r0, r0, r4, ror r2

00001168 <rt_resort_prio>:
    1168:	b580      	push	{r7, lr}
    116a:	b084      	sub	sp, #16
    116c:	af00      	add	r7, sp, #0
    116e:	6078      	str	r0, [r7, #4]
    1170:	687b      	ldr	r3, [r7, #4]
    1172:	689b      	ldr	r3, [r3, #8]
    1174:	2b00      	cmp	r3, #0
    1176:	d106      	bne.n	1186 <rt_resort_prio+0x1e>
    1178:	687b      	ldr	r3, [r7, #4]
    117a:	785b      	ldrb	r3, [r3, #1]
    117c:	2b01      	cmp	r3, #1
    117e:	d115      	bne.n	11ac <rt_resort_prio+0x44>
    1180:	4b0c      	ldr	r3, [pc, #48]	@ (11b4 <rt_resort_prio+0x4c>)
    1182:	60fb      	str	r3, [r7, #12]
    1184:	e00b      	b.n	119e <rt_resort_prio+0x36>
    1186:	687b      	ldr	r3, [r7, #4]
    1188:	689b      	ldr	r3, [r3, #8]
    118a:	60fb      	str	r3, [r7, #12]
    118c:	e002      	b.n	1194 <rt_resort_prio+0x2c>
    118e:	68fb      	ldr	r3, [r7, #12]
    1190:	689b      	ldr	r3, [r3, #8]
    1192:	60fb      	str	r3, [r7, #12]
    1194:	68fb      	ldr	r3, [r7, #12]
    1196:	781b      	ldrb	r3, [r3, #0]
    1198:	2b00      	cmp	r3, #0
    119a:	d0f8      	beq.n	118e <rt_resort_prio+0x26>
    119c:	bf00      	nop
    119e:	6878      	ldr	r0, [r7, #4]
    11a0:	f000 f8d4 	bl	134c <rt_rmv_list>
    11a4:	6879      	ldr	r1, [r7, #4]
    11a6:	68f8      	ldr	r0, [r7, #12]
    11a8:	f7ff ff53 	bl	1052 <rt_put_prio>
    11ac:	bf00      	nop
    11ae:	3710      	adds	r7, #16
    11b0:	46bd      	mov	sp, r7
    11b2:	bd80      	pop	{r7, pc}
    11b4:	20000274 	andcs	r0, r0, r4, ror r2

000011b8 <rt_put_dly>:
    11b8:	b480      	push	{r7}
    11ba:	b087      	sub	sp, #28
    11bc:	af00      	add	r7, sp, #0
    11be:	6078      	str	r0, [r7, #4]
    11c0:	460b      	mov	r3, r1
    11c2:	807b      	strh	r3, [r7, #2]
    11c4:	887b      	ldrh	r3, [r7, #2]
    11c6:	60fb      	str	r3, [r7, #12]
    11c8:	4b2c      	ldr	r3, [pc, #176]	@ (127c <rt_put_dly+0xc4>)
    11ca:	617b      	str	r3, [r7, #20]
    11cc:	697b      	ldr	r3, [r7, #20]
    11ce:	68db      	ldr	r3, [r3, #12]
    11d0:	2b00      	cmp	r3, #0
    11d2:	d102      	bne.n	11da <rt_put_dly+0x22>
    11d4:	2300      	movs	r3, #0
    11d6:	613b      	str	r3, [r7, #16]
    11d8:	e008      	b.n	11ec <rt_put_dly+0x34>
    11da:	4b28      	ldr	r3, [pc, #160]	@ (127c <rt_put_dly+0xc4>)
    11dc:	8a9b      	ldrh	r3, [r3, #20]
    11de:	613b      	str	r3, [r7, #16]
    11e0:	e022      	b.n	1228 <rt_put_dly+0x70>
    11e2:	697b      	ldr	r3, [r7, #20]
    11e4:	68db      	ldr	r3, [r3, #12]
    11e6:	2b00      	cmp	r3, #0
    11e8:	d115      	bne.n	1216 <rt_put_dly+0x5e>
    11ea:	bf00      	nop
    11ec:	687b      	ldr	r3, [r7, #4]
    11ee:	2200      	movs	r2, #0
    11f0:	60da      	str	r2, [r3, #12]
    11f2:	697b      	ldr	r3, [r7, #20]
    11f4:	687a      	ldr	r2, [r7, #4]
    11f6:	60da      	str	r2, [r3, #12]
    11f8:	687b      	ldr	r3, [r7, #4]
    11fa:	697a      	ldr	r2, [r7, #20]
    11fc:	611a      	str	r2, [r3, #16]
    11fe:	68fb      	ldr	r3, [r7, #12]
    1200:	b29a      	uxth	r2, r3
    1202:	693b      	ldr	r3, [r7, #16]
    1204:	b29b      	uxth	r3, r3
    1206:	1ad3      	subs	r3, r2, r3
    1208:	b29a      	uxth	r2, r3
    120a:	697b      	ldr	r3, [r7, #20]
    120c:	829a      	strh	r2, [r3, #20]
    120e:	687b      	ldr	r3, [r7, #4]
    1210:	2200      	movs	r2, #0
    1212:	829a      	strh	r2, [r3, #20]
    1214:	e02e      	b.n	1274 <rt_put_dly+0xbc>
    1216:	697b      	ldr	r3, [r7, #20]
    1218:	68db      	ldr	r3, [r3, #12]
    121a:	617b      	str	r3, [r7, #20]
    121c:	697b      	ldr	r3, [r7, #20]
    121e:	8a9b      	ldrh	r3, [r3, #20]
    1220:	461a      	mov	r2, r3
    1222:	693b      	ldr	r3, [r7, #16]
    1224:	4413      	add	r3, r2
    1226:	613b      	str	r3, [r7, #16]
    1228:	693a      	ldr	r2, [r7, #16]
    122a:	68fb      	ldr	r3, [r7, #12]
    122c:	429a      	cmp	r2, r3
    122e:	d3d8      	bcc.n	11e2 <rt_put_dly+0x2a>
    1230:	697b      	ldr	r3, [r7, #20]
    1232:	68da      	ldr	r2, [r3, #12]
    1234:	687b      	ldr	r3, [r7, #4]
    1236:	60da      	str	r2, [r3, #12]
    1238:	697b      	ldr	r3, [r7, #20]
    123a:	687a      	ldr	r2, [r7, #4]
    123c:	60da      	str	r2, [r3, #12]
    123e:	687b      	ldr	r3, [r7, #4]
    1240:	697a      	ldr	r2, [r7, #20]
    1242:	611a      	str	r2, [r3, #16]
    1244:	687b      	ldr	r3, [r7, #4]
    1246:	68db      	ldr	r3, [r3, #12]
    1248:	2b00      	cmp	r3, #0
    124a:	d003      	beq.n	1254 <rt_put_dly+0x9c>
    124c:	687b      	ldr	r3, [r7, #4]
    124e:	68db      	ldr	r3, [r3, #12]
    1250:	687a      	ldr	r2, [r7, #4]
    1252:	611a      	str	r2, [r3, #16]
    1254:	693b      	ldr	r3, [r7, #16]
    1256:	b29a      	uxth	r2, r3
    1258:	68fb      	ldr	r3, [r7, #12]
    125a:	b29b      	uxth	r3, r3
    125c:	1ad3      	subs	r3, r2, r3
    125e:	b29a      	uxth	r2, r3
    1260:	687b      	ldr	r3, [r7, #4]
    1262:	829a      	strh	r2, [r3, #20]
    1264:	697b      	ldr	r3, [r7, #20]
    1266:	8a9a      	ldrh	r2, [r3, #20]
    1268:	687b      	ldr	r3, [r7, #4]
    126a:	8a9b      	ldrh	r3, [r3, #20]
    126c:	1ad3      	subs	r3, r2, r3
    126e:	b29a      	uxth	r2, r3
    1270:	697b      	ldr	r3, [r7, #20]
    1272:	829a      	strh	r2, [r3, #20]
    1274:	371c      	adds	r7, #28
    1276:	46bd      	mov	sp, r7
    1278:	bc80      	pop	{r7}
    127a:	4770      	bx	lr
    127c:	2000028c 	andcs	r0, r0, ip, lsl #5

00001280 <rt_dec_dly>:
    1280:	b580      	push	{r7, lr}
    1282:	b082      	sub	sp, #8
    1284:	af00      	add	r7, sp, #0
    1286:	4b2e      	ldr	r3, [pc, #184]	@ (1340 <rt_dec_dly+0xc0>)
    1288:	68db      	ldr	r3, [r3, #12]
    128a:	2b00      	cmp	r3, #0
    128c:	d054      	beq.n	1338 <rt_dec_dly+0xb8>
    128e:	4b2c      	ldr	r3, [pc, #176]	@ (1340 <rt_dec_dly+0xc0>)
    1290:	8a9b      	ldrh	r3, [r3, #20]
    1292:	3b01      	subs	r3, #1
    1294:	b29a      	uxth	r2, r3
    1296:	4b2a      	ldr	r3, [pc, #168]	@ (1340 <rt_dec_dly+0xc0>)
    1298:	829a      	strh	r2, [r3, #20]
    129a:	e044      	b.n	1326 <rt_dec_dly+0xa6>
    129c:	4b28      	ldr	r3, [pc, #160]	@ (1340 <rt_dec_dly+0xc0>)
    129e:	68db      	ldr	r3, [r3, #12]
    12a0:	607b      	str	r3, [r7, #4]
    12a2:	687b      	ldr	r3, [r7, #4]
    12a4:	689b      	ldr	r3, [r3, #8]
    12a6:	2b00      	cmp	r3, #0
    12a8:	d013      	beq.n	12d2 <rt_dec_dly+0x52>
    12aa:	687b      	ldr	r3, [r7, #4]
    12ac:	689b      	ldr	r3, [r3, #8]
    12ae:	687a      	ldr	r2, [r7, #4]
    12b0:	6852      	ldr	r2, [r2, #4]
    12b2:	605a      	str	r2, [r3, #4]
    12b4:	687b      	ldr	r3, [r7, #4]
    12b6:	685b      	ldr	r3, [r3, #4]
    12b8:	2b00      	cmp	r3, #0
    12ba:	d007      	beq.n	12cc <rt_dec_dly+0x4c>
    12bc:	687b      	ldr	r3, [r7, #4]
    12be:	685b      	ldr	r3, [r3, #4]
    12c0:	687a      	ldr	r2, [r7, #4]
    12c2:	6892      	ldr	r2, [r2, #8]
    12c4:	609a      	str	r2, [r3, #8]
    12c6:	687b      	ldr	r3, [r7, #4]
    12c8:	2200      	movs	r2, #0
    12ca:	605a      	str	r2, [r3, #4]
    12cc:	687b      	ldr	r3, [r7, #4]
    12ce:	2200      	movs	r2, #0
    12d0:	609a      	str	r2, [r3, #8]
    12d2:	6879      	ldr	r1, [r7, #4]
    12d4:	481b      	ldr	r0, [pc, #108]	@ (1344 <rt_dec_dly+0xc4>)
    12d6:	f7ff febc 	bl	1052 <rt_put_prio>
    12da:	687b      	ldr	r3, [r7, #4]
    12dc:	8a9a      	ldrh	r2, [r3, #20]
    12de:	4b18      	ldr	r3, [pc, #96]	@ (1340 <rt_dec_dly+0xc0>)
    12e0:	829a      	strh	r2, [r3, #20]
    12e2:	687b      	ldr	r3, [r7, #4]
    12e4:	785b      	ldrb	r3, [r3, #1]
    12e6:	2b04      	cmp	r3, #4
    12e8:	d108      	bne.n	12fc <rt_dec_dly+0x7c>
    12ea:	687b      	ldr	r3, [r7, #4]
    12ec:	8ada      	ldrh	r2, [r3, #22]
    12ee:	4b16      	ldr	r3, [pc, #88]	@ (1348 <rt_dec_dly+0xc8>)
    12f0:	681b      	ldr	r3, [r3, #0]
    12f2:	b29b      	uxth	r3, r3
    12f4:	4413      	add	r3, r2
    12f6:	b29a      	uxth	r2, r3
    12f8:	687b      	ldr	r3, [r7, #4]
    12fa:	829a      	strh	r2, [r3, #20]
    12fc:	687b      	ldr	r3, [r7, #4]
    12fe:	2201      	movs	r2, #1
    1300:	705a      	strb	r2, [r3, #1]
    1302:	687b      	ldr	r3, [r7, #4]
    1304:	68db      	ldr	r3, [r3, #12]
    1306:	4a0e      	ldr	r2, [pc, #56]	@ (1340 <rt_dec_dly+0xc0>)
    1308:	60d3      	str	r3, [r2, #12]
    130a:	687b      	ldr	r3, [r7, #4]
    130c:	68db      	ldr	r3, [r3, #12]
    130e:	2b00      	cmp	r3, #0
    1310:	d006      	beq.n	1320 <rt_dec_dly+0xa0>
    1312:	687b      	ldr	r3, [r7, #4]
    1314:	68db      	ldr	r3, [r3, #12]
    1316:	4a0a      	ldr	r2, [pc, #40]	@ (1340 <rt_dec_dly+0xc0>)
    1318:	611a      	str	r2, [r3, #16]
    131a:	687b      	ldr	r3, [r7, #4]
    131c:	2200      	movs	r2, #0
    131e:	60da      	str	r2, [r3, #12]
    1320:	687b      	ldr	r3, [r7, #4]
    1322:	2200      	movs	r2, #0
    1324:	611a      	str	r2, [r3, #16]
    1326:	4b06      	ldr	r3, [pc, #24]	@ (1340 <rt_dec_dly+0xc0>)
    1328:	8a9b      	ldrh	r3, [r3, #20]
    132a:	2b00      	cmp	r3, #0
    132c:	d105      	bne.n	133a <rt_dec_dly+0xba>
    132e:	4b04      	ldr	r3, [pc, #16]	@ (1340 <rt_dec_dly+0xc0>)
    1330:	68db      	ldr	r3, [r3, #12]
    1332:	2b00      	cmp	r3, #0
    1334:	d1b2      	bne.n	129c <rt_dec_dly+0x1c>
    1336:	e000      	b.n	133a <rt_dec_dly+0xba>
    1338:	bf00      	nop
    133a:	3708      	adds	r7, #8
    133c:	46bd      	mov	sp, r7
    133e:	bd80      	pop	{r7, pc}
    1340:	2000028c 	andcs	r0, r0, ip, lsl #5
    1344:	20000274 	andcs	r0, r0, r4, ror r2
    1348:	200002f0 	strdcs	r0, [r0], -r0	@ <UNPREDICTABLE>

0000134c <rt_rmv_list>:
    134c:	b480      	push	{r7}
    134e:	b085      	sub	sp, #20
    1350:	af00      	add	r7, sp, #0
    1352:	6078      	str	r0, [r7, #4]
    1354:	687b      	ldr	r3, [r7, #4]
    1356:	689b      	ldr	r3, [r3, #8]
    1358:	2b00      	cmp	r3, #0
    135a:	d00e      	beq.n	137a <rt_rmv_list+0x2e>
    135c:	687b      	ldr	r3, [r7, #4]
    135e:	689b      	ldr	r3, [r3, #8]
    1360:	687a      	ldr	r2, [r7, #4]
    1362:	6852      	ldr	r2, [r2, #4]
    1364:	605a      	str	r2, [r3, #4]
    1366:	687b      	ldr	r3, [r7, #4]
    1368:	685b      	ldr	r3, [r3, #4]
    136a:	2b00      	cmp	r3, #0
    136c:	d019      	beq.n	13a2 <rt_rmv_list+0x56>
    136e:	687b      	ldr	r3, [r7, #4]
    1370:	685b      	ldr	r3, [r3, #4]
    1372:	687a      	ldr	r2, [r7, #4]
    1374:	6892      	ldr	r2, [r2, #8]
    1376:	609a      	str	r2, [r3, #8]
    1378:	e013      	b.n	13a2 <rt_rmv_list+0x56>
    137a:	4b0c      	ldr	r3, [pc, #48]	@ (13ac <rt_rmv_list+0x60>)
    137c:	60fb      	str	r3, [r7, #12]
    137e:	e00c      	b.n	139a <rt_rmv_list+0x4e>
    1380:	68fb      	ldr	r3, [r7, #12]
    1382:	685b      	ldr	r3, [r3, #4]
    1384:	687a      	ldr	r2, [r7, #4]
    1386:	429a      	cmp	r2, r3
    1388:	d104      	bne.n	1394 <rt_rmv_list+0x48>
    138a:	687b      	ldr	r3, [r7, #4]
    138c:	685a      	ldr	r2, [r3, #4]
    138e:	68fb      	ldr	r3, [r7, #12]
    1390:	605a      	str	r2, [r3, #4]
    1392:	e007      	b.n	13a4 <rt_rmv_list+0x58>
    1394:	68fb      	ldr	r3, [r7, #12]
    1396:	685b      	ldr	r3, [r3, #4]
    1398:	60fb      	str	r3, [r7, #12]
    139a:	68fb      	ldr	r3, [r7, #12]
    139c:	2b00      	cmp	r3, #0
    139e:	d1ef      	bne.n	1380 <rt_rmv_list+0x34>
    13a0:	e000      	b.n	13a4 <rt_rmv_list+0x58>
    13a2:	bf00      	nop
    13a4:	3714      	adds	r7, #20
    13a6:	46bd      	mov	sp, r7
    13a8:	bc80      	pop	{r7}
    13aa:	4770      	bx	lr
    13ac:	20000274 	andcs	r0, r0, r4, ror r2

000013b0 <rt_rmv_dly>:
    13b0:	b480      	push	{r7}
    13b2:	b085      	sub	sp, #20
    13b4:	af00      	add	r7, sp, #0
    13b6:	6078      	str	r0, [r7, #4]
    13b8:	687b      	ldr	r3, [r7, #4]
    13ba:	691b      	ldr	r3, [r3, #16]
    13bc:	60fb      	str	r3, [r7, #12]
    13be:	68fb      	ldr	r3, [r7, #12]
    13c0:	2b00      	cmp	r3, #0
    13c2:	d01d      	beq.n	1400 <rt_rmv_dly+0x50>
    13c4:	687b      	ldr	r3, [r7, #4]
    13c6:	68da      	ldr	r2, [r3, #12]
    13c8:	68fb      	ldr	r3, [r7, #12]
    13ca:	60da      	str	r2, [r3, #12]
    13cc:	687b      	ldr	r3, [r7, #4]
    13ce:	68db      	ldr	r3, [r3, #12]
    13d0:	2b00      	cmp	r3, #0
    13d2:	d00f      	beq.n	13f4 <rt_rmv_dly+0x44>
    13d4:	68fb      	ldr	r3, [r7, #12]
    13d6:	8a9a      	ldrh	r2, [r3, #20]
    13d8:	687b      	ldr	r3, [r7, #4]
    13da:	8a9b      	ldrh	r3, [r3, #20]
    13dc:	4413      	add	r3, r2
    13de:	b29a      	uxth	r2, r3
    13e0:	68fb      	ldr	r3, [r7, #12]
    13e2:	829a      	strh	r2, [r3, #20]
    13e4:	687b      	ldr	r3, [r7, #4]
    13e6:	68db      	ldr	r3, [r3, #12]
    13e8:	68fa      	ldr	r2, [r7, #12]
    13ea:	611a      	str	r2, [r3, #16]
    13ec:	687b      	ldr	r3, [r7, #4]
    13ee:	2200      	movs	r2, #0
    13f0:	60da      	str	r2, [r3, #12]
    13f2:	e002      	b.n	13fa <rt_rmv_dly+0x4a>
    13f4:	68fb      	ldr	r3, [r7, #12]
    13f6:	2200      	movs	r2, #0
    13f8:	829a      	strh	r2, [r3, #20]
    13fa:	687b      	ldr	r3, [r7, #4]
    13fc:	2200      	movs	r2, #0
    13fe:	611a      	str	r2, [r3, #16]
    1400:	bf00      	nop
    1402:	3714      	adds	r7, #20
    1404:	46bd      	mov	sp, r7
    1406:	bc80      	pop	{r7}
    1408:	4770      	bx	lr
	...

0000140c <rt_psq_enq>:
    140c:	b580      	push	{r7, lr}
    140e:	b084      	sub	sp, #16
    1410:	af00      	add	r7, sp, #0
    1412:	6078      	str	r0, [r7, #4]
    1414:	6039      	str	r1, [r7, #0]
    1416:	4b11      	ldr	r3, [pc, #68]	@ (145c <rt_psq_enq+0x50>)
    1418:	78db      	ldrb	r3, [r3, #3]
    141a:	4618      	mov	r0, r3
    141c:	4b10      	ldr	r3, [pc, #64]	@ (1460 <rt_psq_enq+0x54>)
    141e:	4a0f      	ldr	r2, [pc, #60]	@ (145c <rt_psq_enq+0x50>)
    1420:	4619      	mov	r1, r3
    1422:	f7ff fde7 	bl	ff4 <rt_inc_qi>
    1426:	60f8      	str	r0, [r7, #12]
    1428:	4b0c      	ldr	r3, [pc, #48]	@ (145c <rt_psq_enq+0x50>)
    142a:	78db      	ldrb	r3, [r3, #3]
    142c:	461a      	mov	r2, r3
    142e:	68fb      	ldr	r3, [r7, #12]
    1430:	4293      	cmp	r3, r2
    1432:	d20c      	bcs.n	144e <rt_psq_enq+0x42>
    1434:	4a09      	ldr	r2, [pc, #36]	@ (145c <rt_psq_enq+0x50>)
    1436:	68fb      	ldr	r3, [r7, #12]
    1438:	00db      	lsls	r3, r3, #3
    143a:	4413      	add	r3, r2
    143c:	687a      	ldr	r2, [r7, #4]
    143e:	605a      	str	r2, [r3, #4]
    1440:	4a06      	ldr	r2, [pc, #24]	@ (145c <rt_psq_enq+0x50>)
    1442:	68fb      	ldr	r3, [r7, #12]
    1444:	00db      	lsls	r3, r3, #3
    1446:	4413      	add	r3, r2
    1448:	683a      	ldr	r2, [r7, #0]
    144a:	609a      	str	r2, [r3, #8]
    144c:	e002      	b.n	1454 <rt_psq_enq+0x48>
    144e:	2002      	movs	r0, #2
    1450:	f001 f826 	bl	24a0 <os_error>
    1454:	bf00      	nop
    1456:	3710      	adds	r7, #16
    1458:	46bd      	mov	sp, r7
    145a:	bd80      	pop	{r7, pc}
    145c:	20000ae0 	andcs	r0, r0, r0, ror #21
    1460:	20000ae2 	andcs	r0, r0, r2, ror #21

00001464 <rt_mbx_init>:
    1464:	b480      	push	{r7}
    1466:	b085      	sub	sp, #20
    1468:	af00      	add	r7, sp, #0
    146a:	6078      	str	r0, [r7, #4]
    146c:	460b      	mov	r3, r1
    146e:	807b      	strh	r3, [r7, #2]
    1470:	687b      	ldr	r3, [r7, #4]
    1472:	60fb      	str	r3, [r7, #12]
    1474:	68fb      	ldr	r3, [r7, #12]
    1476:	2201      	movs	r2, #1
    1478:	701a      	strb	r2, [r3, #0]
    147a:	68fb      	ldr	r3, [r7, #12]
    147c:	2200      	movs	r2, #0
    147e:	705a      	strb	r2, [r3, #1]
    1480:	68fb      	ldr	r3, [r7, #12]
    1482:	2200      	movs	r2, #0
    1484:	709a      	strb	r2, [r3, #2]
    1486:	68fb      	ldr	r3, [r7, #12]
    1488:	2200      	movs	r2, #0
    148a:	605a      	str	r2, [r3, #4]
    148c:	68fb      	ldr	r3, [r7, #12]
    148e:	2200      	movs	r2, #0
    1490:	811a      	strh	r2, [r3, #8]
    1492:	68fb      	ldr	r3, [r7, #12]
    1494:	2200      	movs	r2, #0
    1496:	815a      	strh	r2, [r3, #10]
    1498:	68fb      	ldr	r3, [r7, #12]
    149a:	2200      	movs	r2, #0
    149c:	819a      	strh	r2, [r3, #12]
    149e:	887b      	ldrh	r3, [r7, #2]
    14a0:	3b10      	subs	r3, #16
    14a2:	089b      	lsrs	r3, r3, #2
    14a4:	b29a      	uxth	r2, r3
    14a6:	68fb      	ldr	r3, [r7, #12]
    14a8:	81da      	strh	r2, [r3, #14]
    14aa:	bf00      	nop
    14ac:	3714      	adds	r7, #20
    14ae:	46bd      	mov	sp, r7
    14b0:	bc80      	pop	{r7}
    14b2:	4770      	bx	lr

000014b4 <rt_mbx_wait>:
    14b4:	b580      	push	{r7, lr}
    14b6:	b088      	sub	sp, #32
    14b8:	af00      	add	r7, sp, #0
    14ba:	60f8      	str	r0, [r7, #12]
    14bc:	60b9      	str	r1, [r7, #8]
    14be:	4613      	mov	r3, r2
    14c0:	80fb      	strh	r3, [r7, #6]
    14c2:	68fb      	ldr	r3, [r7, #12]
    14c4:	61fb      	str	r3, [r7, #28]
    14c6:	69fb      	ldr	r3, [r7, #28]
    14c8:	899b      	ldrh	r3, [r3, #12]
    14ca:	2b00      	cmp	r3, #0
    14cc:	d054      	beq.n	1578 <rt_mbx_wait+0xc4>
    14ce:	69fb      	ldr	r3, [r7, #28]
    14d0:	895b      	ldrh	r3, [r3, #10]
    14d2:	461a      	mov	r2, r3
    14d4:	69fb      	ldr	r3, [r7, #28]
    14d6:	3204      	adds	r2, #4
    14d8:	f853 2022 	ldr.w	r2, [r3, r2, lsl #2]
    14dc:	68bb      	ldr	r3, [r7, #8]
    14de:	601a      	str	r2, [r3, #0]
    14e0:	69fb      	ldr	r3, [r7, #28]
    14e2:	895b      	ldrh	r3, [r3, #10]
    14e4:	3301      	adds	r3, #1
    14e6:	b29a      	uxth	r2, r3
    14e8:	69fb      	ldr	r3, [r7, #28]
    14ea:	815a      	strh	r2, [r3, #10]
    14ec:	69fb      	ldr	r3, [r7, #28]
    14ee:	895a      	ldrh	r2, [r3, #10]
    14f0:	69fb      	ldr	r3, [r7, #28]
    14f2:	89db      	ldrh	r3, [r3, #14]
    14f4:	429a      	cmp	r2, r3
    14f6:	d102      	bne.n	14fe <rt_mbx_wait+0x4a>
    14f8:	69fb      	ldr	r3, [r7, #28]
    14fa:	2200      	movs	r2, #0
    14fc:	815a      	strh	r2, [r3, #10]
    14fe:	69fb      	ldr	r3, [r7, #28]
    1500:	685b      	ldr	r3, [r3, #4]
    1502:	2b00      	cmp	r3, #0
    1504:	d02a      	beq.n	155c <rt_mbx_wait+0xa8>
    1506:	69fb      	ldr	r3, [r7, #28]
    1508:	785b      	ldrb	r3, [r3, #1]
    150a:	2b02      	cmp	r3, #2
    150c:	d126      	bne.n	155c <rt_mbx_wait+0xa8>
    150e:	69f8      	ldr	r0, [r7, #28]
    1510:	f7ff fde4 	bl	10dc <rt_get_first>
    1514:	61b8      	str	r0, [r7, #24]
    1516:	2100      	movs	r1, #0
    1518:	69b8      	ldr	r0, [r7, #24]
    151a:	f7ff f821 	bl	560 <rt_ret_val>
    151e:	69fb      	ldr	r3, [r7, #28]
    1520:	891b      	ldrh	r3, [r3, #8]
    1522:	461a      	mov	r2, r3
    1524:	69bb      	ldr	r3, [r7, #24]
    1526:	69d9      	ldr	r1, [r3, #28]
    1528:	69fb      	ldr	r3, [r7, #28]
    152a:	3204      	adds	r2, #4
    152c:	f843 1022 	str.w	r1, [r3, r2, lsl #2]
    1530:	69fb      	ldr	r3, [r7, #28]
    1532:	891b      	ldrh	r3, [r3, #8]
    1534:	3301      	adds	r3, #1
    1536:	b29a      	uxth	r2, r3
    1538:	69fb      	ldr	r3, [r7, #28]
    153a:	811a      	strh	r2, [r3, #8]
    153c:	69fb      	ldr	r3, [r7, #28]
    153e:	891a      	ldrh	r2, [r3, #8]
    1540:	69fb      	ldr	r3, [r7, #28]
    1542:	89db      	ldrh	r3, [r3, #14]
    1544:	429a      	cmp	r2, r3
    1546:	d102      	bne.n	154e <rt_mbx_wait+0x9a>
    1548:	69fb      	ldr	r3, [r7, #28]
    154a:	2200      	movs	r2, #0
    154c:	811a      	strh	r2, [r3, #8]
    154e:	69b8      	ldr	r0, [r7, #24]
    1550:	f7ff ff2e 	bl	13b0 <rt_rmv_dly>
    1554:	69b8      	ldr	r0, [r7, #24]
    1556:	f000 fcbb 	bl	1ed0 <rt_dispatch>
    155a:	e00b      	b.n	1574 <rt_mbx_wait+0xc0>
    155c:	f3ef 8310 	mrs	r3, PRIMASK
    1560:	617b      	str	r3, [r7, #20]
    1562:	b672      	cpsid	i
    1564:	69fb      	ldr	r3, [r7, #28]
    1566:	899b      	ldrh	r3, [r3, #12]
    1568:	3b01      	subs	r3, #1
    156a:	b29a      	uxth	r2, r3
    156c:	69fb      	ldr	r3, [r7, #28]
    156e:	819a      	strh	r2, [r3, #12]
    1570:	b662      	cpsie	i
    1572:	bf00      	nop
    1574:	2300      	movs	r3, #0
    1576:	e024      	b.n	15c2 <rt_mbx_wait+0x10e>
    1578:	88fb      	ldrh	r3, [r7, #6]
    157a:	2b00      	cmp	r3, #0
    157c:	d101      	bne.n	1582 <rt_mbx_wait+0xce>
    157e:	2301      	movs	r3, #1
    1580:	e01f      	b.n	15c2 <rt_mbx_wait+0x10e>
    1582:	69fb      	ldr	r3, [r7, #28]
    1584:	685b      	ldr	r3, [r3, #4]
    1586:	2b00      	cmp	r3, #0
    1588:	d006      	beq.n	1598 <rt_mbx_wait+0xe4>
    158a:	4b10      	ldr	r3, [pc, #64]	@ (15cc <rt_mbx_wait+0x118>)
    158c:	681b      	ldr	r3, [r3, #0]
    158e:	4619      	mov	r1, r3
    1590:	69f8      	ldr	r0, [r7, #28]
    1592:	f7ff fd5e 	bl	1052 <rt_put_prio>
    1596:	e00e      	b.n	15b6 <rt_mbx_wait+0x102>
    1598:	4b0c      	ldr	r3, [pc, #48]	@ (15cc <rt_mbx_wait+0x118>)
    159a:	681a      	ldr	r2, [r3, #0]
    159c:	69fb      	ldr	r3, [r7, #28]
    159e:	605a      	str	r2, [r3, #4]
    15a0:	4b0a      	ldr	r3, [pc, #40]	@ (15cc <rt_mbx_wait+0x118>)
    15a2:	681b      	ldr	r3, [r3, #0]
    15a4:	2200      	movs	r2, #0
    15a6:	605a      	str	r2, [r3, #4]
    15a8:	4b08      	ldr	r3, [pc, #32]	@ (15cc <rt_mbx_wait+0x118>)
    15aa:	681b      	ldr	r3, [r3, #0]
    15ac:	69fa      	ldr	r2, [r7, #28]
    15ae:	609a      	str	r2, [r3, #8]
    15b0:	69fb      	ldr	r3, [r7, #28]
    15b2:	2201      	movs	r2, #1
    15b4:	705a      	strb	r2, [r3, #1]
    15b6:	88fb      	ldrh	r3, [r7, #6]
    15b8:	2108      	movs	r1, #8
    15ba:	4618      	mov	r0, r3
    15bc:	f000 fcba 	bl	1f34 <rt_block>
    15c0:	2301      	movs	r3, #1
    15c2:	4618      	mov	r0, r3
    15c4:	3720      	adds	r7, #32
    15c6:	46bd      	mov	sp, r7
    15c8:	bd80      	pop	{r7, pc}
    15ca:	bf00      	nop
    15cc:	200002b4 			@ <UNDEFINED> instruction: 0x200002b4

000015d0 <rt_mbx_check>:
    15d0:	b480      	push	{r7}
    15d2:	b085      	sub	sp, #20
    15d4:	af00      	add	r7, sp, #0
    15d6:	6078      	str	r0, [r7, #4]
    15d8:	687b      	ldr	r3, [r7, #4]
    15da:	60fb      	str	r3, [r7, #12]
    15dc:	68fb      	ldr	r3, [r7, #12]
    15de:	89db      	ldrh	r3, [r3, #14]
    15e0:	461a      	mov	r2, r3
    15e2:	68fb      	ldr	r3, [r7, #12]
    15e4:	899b      	ldrh	r3, [r3, #12]
    15e6:	1ad3      	subs	r3, r2, r3
    15e8:	4618      	mov	r0, r3
    15ea:	3714      	adds	r7, #20
    15ec:	46bd      	mov	sp, r7
    15ee:	bc80      	pop	{r7}
    15f0:	4770      	bx	lr

000015f2 <isr_mbx_send>:
    15f2:	b580      	push	{r7, lr}
    15f4:	b084      	sub	sp, #16
    15f6:	af00      	add	r7, sp, #0
    15f8:	6078      	str	r0, [r7, #4]
    15fa:	6039      	str	r1, [r7, #0]
    15fc:	687b      	ldr	r3, [r7, #4]
    15fe:	60fb      	str	r3, [r7, #12]
    1600:	683b      	ldr	r3, [r7, #0]
    1602:	4619      	mov	r1, r3
    1604:	68f8      	ldr	r0, [r7, #12]
    1606:	f7ff ff01 	bl	140c <rt_psq_enq>
    160a:	f000 fad5 	bl	1bb8 <rt_psh_req>
    160e:	bf00      	nop
    1610:	3710      	adds	r7, #16
    1612:	46bd      	mov	sp, r7
    1614:	bd80      	pop	{r7, pc}

00001616 <isr_mbx_receive>:
    1616:	b580      	push	{r7, lr}
    1618:	b084      	sub	sp, #16
    161a:	af00      	add	r7, sp, #0
    161c:	6078      	str	r0, [r7, #4]
    161e:	6039      	str	r1, [r7, #0]
    1620:	687b      	ldr	r3, [r7, #4]
    1622:	60fb      	str	r3, [r7, #12]
    1624:	68fb      	ldr	r3, [r7, #12]
    1626:	899b      	ldrh	r3, [r3, #12]
    1628:	2b00      	cmp	r3, #0
    162a:	d033      	beq.n	1694 <isr_mbx_receive+0x7e>
    162c:	68fb      	ldr	r3, [r7, #12]
    162e:	895b      	ldrh	r3, [r3, #10]
    1630:	461a      	mov	r2, r3
    1632:	68fb      	ldr	r3, [r7, #12]
    1634:	3204      	adds	r2, #4
    1636:	f853 2022 	ldr.w	r2, [r3, r2, lsl #2]
    163a:	683b      	ldr	r3, [r7, #0]
    163c:	601a      	str	r2, [r3, #0]
    163e:	68fb      	ldr	r3, [r7, #12]
    1640:	685b      	ldr	r3, [r3, #4]
    1642:	2b00      	cmp	r3, #0
    1644:	d009      	beq.n	165a <isr_mbx_receive+0x44>
    1646:	68fb      	ldr	r3, [r7, #12]
    1648:	785b      	ldrb	r3, [r3, #1]
    164a:	2b02      	cmp	r3, #2
    164c:	d105      	bne.n	165a <isr_mbx_receive+0x44>
    164e:	2100      	movs	r1, #0
    1650:	68f8      	ldr	r0, [r7, #12]
    1652:	f7ff fedb 	bl	140c <rt_psq_enq>
    1656:	f000 faaf 	bl	1bb8 <rt_psh_req>
    165a:	f3ef 8310 	mrs	r3, PRIMASK
    165e:	60bb      	str	r3, [r7, #8]
    1660:	b672      	cpsid	i
    1662:	68fb      	ldr	r3, [r7, #12]
    1664:	899b      	ldrh	r3, [r3, #12]
    1666:	3b01      	subs	r3, #1
    1668:	b29a      	uxth	r2, r3
    166a:	68fb      	ldr	r3, [r7, #12]
    166c:	819a      	strh	r2, [r3, #12]
    166e:	b662      	cpsie	i
    1670:	bf00      	nop
    1672:	68fb      	ldr	r3, [r7, #12]
    1674:	895b      	ldrh	r3, [r3, #10]
    1676:	3301      	adds	r3, #1
    1678:	b29a      	uxth	r2, r3
    167a:	68fb      	ldr	r3, [r7, #12]
    167c:	815a      	strh	r2, [r3, #10]
    167e:	68fb      	ldr	r3, [r7, #12]
    1680:	895a      	ldrh	r2, [r3, #10]
    1682:	68fb      	ldr	r3, [r7, #12]
    1684:	89db      	ldrh	r3, [r3, #14]
    1686:	429a      	cmp	r2, r3
    1688:	d102      	bne.n	1690 <isr_mbx_receive+0x7a>
    168a:	68fb      	ldr	r3, [r7, #12]
    168c:	2200      	movs	r2, #0
    168e:	815a      	strh	r2, [r3, #10]
    1690:	2304      	movs	r3, #4
    1692:	e000      	b.n	1696 <isr_mbx_receive+0x80>
    1694:	2300      	movs	r3, #0
    1696:	4618      	mov	r0, r3
    1698:	3710      	adds	r7, #16
    169a:	46bd      	mov	sp, r7
    169c:	bd80      	pop	{r7, pc}
	...

000016a0 <rt_mbx_psh>:
    16a0:	b580      	push	{r7, lr}
    16a2:	b086      	sub	sp, #24
    16a4:	af00      	add	r7, sp, #0
    16a6:	6078      	str	r0, [r7, #4]
    16a8:	6039      	str	r1, [r7, #0]
    16aa:	687b      	ldr	r3, [r7, #4]
    16ac:	685b      	ldr	r3, [r3, #4]
    16ae:	2b00      	cmp	r3, #0
    16b0:	d073      	beq.n	179a <rt_mbx_psh+0xfa>
    16b2:	687b      	ldr	r3, [r7, #4]
    16b4:	785b      	ldrb	r3, [r3, #1]
    16b6:	2b03      	cmp	r3, #3
    16b8:	d007      	beq.n	16ca <rt_mbx_psh+0x2a>
    16ba:	2b03      	cmp	r3, #3
    16bc:	f300 809b 	bgt.w	17f6 <rt_mbx_psh+0x156>
    16c0:	2b01      	cmp	r3, #1
    16c2:	d055      	beq.n	1770 <rt_mbx_psh+0xd0>
    16c4:	2b02      	cmp	r3, #2
    16c6:	d01c      	beq.n	1702 <rt_mbx_psh+0x62>
    16c8:	e095      	b.n	17f6 <rt_mbx_psh+0x156>
    16ca:	6838      	ldr	r0, [r7, #0]
    16cc:	f000 f8f1 	bl	18b2 <rt_alloc_box>
    16d0:	6178      	str	r0, [r7, #20]
    16d2:	697b      	ldr	r3, [r7, #20]
    16d4:	2b00      	cmp	r3, #0
    16d6:	f000 8090 	beq.w	17fa <rt_mbx_psh+0x15a>
    16da:	6878      	ldr	r0, [r7, #4]
    16dc:	f7ff fcfe 	bl	10dc <rt_get_first>
    16e0:	6138      	str	r0, [r7, #16]
    16e2:	697b      	ldr	r3, [r7, #20]
    16e4:	4619      	mov	r1, r3
    16e6:	6938      	ldr	r0, [r7, #16]
    16e8:	f7fe ff3a 	bl	560 <rt_ret_val>
    16ec:	693b      	ldr	r3, [r7, #16]
    16ee:	2201      	movs	r2, #1
    16f0:	705a      	strb	r2, [r3, #1]
    16f2:	6938      	ldr	r0, [r7, #16]
    16f4:	f7ff fe5c 	bl	13b0 <rt_rmv_dly>
    16f8:	6939      	ldr	r1, [r7, #16]
    16fa:	4842      	ldr	r0, [pc, #264]	@ (1804 <rt_mbx_psh+0x164>)
    16fc:	f7ff fca9 	bl	1052 <rt_put_prio>
    1700:	e07c      	b.n	17fc <rt_mbx_psh+0x15c>
    1702:	6878      	ldr	r0, [r7, #4]
    1704:	f7ff fcea 	bl	10dc <rt_get_first>
    1708:	6138      	str	r0, [r7, #16]
    170a:	2100      	movs	r1, #0
    170c:	6938      	ldr	r0, [r7, #16]
    170e:	f7fe ff27 	bl	560 <rt_ret_val>
    1712:	687b      	ldr	r3, [r7, #4]
    1714:	891b      	ldrh	r3, [r3, #8]
    1716:	461a      	mov	r2, r3
    1718:	693b      	ldr	r3, [r7, #16]
    171a:	69d9      	ldr	r1, [r3, #28]
    171c:	687b      	ldr	r3, [r7, #4]
    171e:	3204      	adds	r2, #4
    1720:	f843 1022 	str.w	r1, [r3, r2, lsl #2]
    1724:	f3ef 8310 	mrs	r3, PRIMASK
    1728:	60fb      	str	r3, [r7, #12]
    172a:	b672      	cpsid	i
    172c:	687b      	ldr	r3, [r7, #4]
    172e:	899b      	ldrh	r3, [r3, #12]
    1730:	3301      	adds	r3, #1
    1732:	b29a      	uxth	r2, r3
    1734:	687b      	ldr	r3, [r7, #4]
    1736:	819a      	strh	r2, [r3, #12]
    1738:	b662      	cpsie	i
    173a:	bf00      	nop
    173c:	687b      	ldr	r3, [r7, #4]
    173e:	891b      	ldrh	r3, [r3, #8]
    1740:	3301      	adds	r3, #1
    1742:	b29a      	uxth	r2, r3
    1744:	687b      	ldr	r3, [r7, #4]
    1746:	811a      	strh	r2, [r3, #8]
    1748:	687b      	ldr	r3, [r7, #4]
    174a:	891a      	ldrh	r2, [r3, #8]
    174c:	687b      	ldr	r3, [r7, #4]
    174e:	89db      	ldrh	r3, [r3, #14]
    1750:	429a      	cmp	r2, r3
    1752:	d102      	bne.n	175a <rt_mbx_psh+0xba>
    1754:	687b      	ldr	r3, [r7, #4]
    1756:	2200      	movs	r2, #0
    1758:	811a      	strh	r2, [r3, #8]
    175a:	693b      	ldr	r3, [r7, #16]
    175c:	2201      	movs	r2, #1
    175e:	705a      	strb	r2, [r3, #1]
    1760:	6938      	ldr	r0, [r7, #16]
    1762:	f7ff fe25 	bl	13b0 <rt_rmv_dly>
    1766:	6939      	ldr	r1, [r7, #16]
    1768:	4826      	ldr	r0, [pc, #152]	@ (1804 <rt_mbx_psh+0x164>)
    176a:	f7ff fc72 	bl	1052 <rt_put_prio>
    176e:	e045      	b.n	17fc <rt_mbx_psh+0x15c>
    1770:	6878      	ldr	r0, [r7, #4]
    1772:	f7ff fcb3 	bl	10dc <rt_get_first>
    1776:	6138      	str	r0, [r7, #16]
    1778:	683b      	ldr	r3, [r7, #0]
    177a:	461a      	mov	r2, r3
    177c:	2110      	movs	r1, #16
    177e:	6938      	ldr	r0, [r7, #16]
    1780:	f7fe fefe 	bl	580 <rt_ret_val2>
    1784:	693b      	ldr	r3, [r7, #16]
    1786:	2201      	movs	r2, #1
    1788:	705a      	strb	r2, [r3, #1]
    178a:	6938      	ldr	r0, [r7, #16]
    178c:	f7ff fe10 	bl	13b0 <rt_rmv_dly>
    1790:	6939      	ldr	r1, [r7, #16]
    1792:	481c      	ldr	r0, [pc, #112]	@ (1804 <rt_mbx_psh+0x164>)
    1794:	f7ff fc5d 	bl	1052 <rt_put_prio>
    1798:	e030      	b.n	17fc <rt_mbx_psh+0x15c>
    179a:	687b      	ldr	r3, [r7, #4]
    179c:	899a      	ldrh	r2, [r3, #12]
    179e:	687b      	ldr	r3, [r7, #4]
    17a0:	89db      	ldrh	r3, [r3, #14]
    17a2:	429a      	cmp	r2, r3
    17a4:	d223      	bcs.n	17ee <rt_mbx_psh+0x14e>
    17a6:	687b      	ldr	r3, [r7, #4]
    17a8:	891b      	ldrh	r3, [r3, #8]
    17aa:	461a      	mov	r2, r3
    17ac:	687b      	ldr	r3, [r7, #4]
    17ae:	3204      	adds	r2, #4
    17b0:	6839      	ldr	r1, [r7, #0]
    17b2:	f843 1022 	str.w	r1, [r3, r2, lsl #2]
    17b6:	f3ef 8310 	mrs	r3, PRIMASK
    17ba:	60bb      	str	r3, [r7, #8]
    17bc:	b672      	cpsid	i
    17be:	687b      	ldr	r3, [r7, #4]
    17c0:	899b      	ldrh	r3, [r3, #12]
    17c2:	3301      	adds	r3, #1
    17c4:	b29a      	uxth	r2, r3
    17c6:	687b      	ldr	r3, [r7, #4]
    17c8:	819a      	strh	r2, [r3, #12]
    17ca:	b662      	cpsie	i
    17cc:	bf00      	nop
    17ce:	687b      	ldr	r3, [r7, #4]
    17d0:	891b      	ldrh	r3, [r3, #8]
    17d2:	3301      	adds	r3, #1
    17d4:	b29a      	uxth	r2, r3
    17d6:	687b      	ldr	r3, [r7, #4]
    17d8:	811a      	strh	r2, [r3, #8]
    17da:	687b      	ldr	r3, [r7, #4]
    17dc:	891a      	ldrh	r2, [r3, #8]
    17de:	687b      	ldr	r3, [r7, #4]
    17e0:	89db      	ldrh	r3, [r3, #14]
    17e2:	429a      	cmp	r2, r3
    17e4:	d10a      	bne.n	17fc <rt_mbx_psh+0x15c>
    17e6:	687b      	ldr	r3, [r7, #4]
    17e8:	2200      	movs	r2, #0
    17ea:	811a      	strh	r2, [r3, #8]
    17ec:	e006      	b.n	17fc <rt_mbx_psh+0x15c>
    17ee:	2003      	movs	r0, #3
    17f0:	f000 fe56 	bl	24a0 <os_error>
    17f4:	e002      	b.n	17fc <rt_mbx_psh+0x15c>
    17f6:	bf00      	nop
    17f8:	e000      	b.n	17fc <rt_mbx_psh+0x15c>
    17fa:	bf00      	nop
    17fc:	bf00      	nop
    17fe:	3718      	adds	r7, #24
    1800:	46bd      	mov	sp, r7
    1802:	bd80      	pop	{r7, pc}
    1804:	20000274 	andcs	r0, r0, r4, ror r2

00001808 <_init_box>:
    1808:	b480      	push	{r7}
    180a:	b089      	sub	sp, #36	@ 0x24
    180c:	af00      	add	r7, sp, #0
    180e:	60f8      	str	r0, [r7, #12]
    1810:	60b9      	str	r1, [r7, #8]
    1812:	607a      	str	r2, [r7, #4]
    1814:	687b      	ldr	r3, [r7, #4]
    1816:	2b00      	cmp	r3, #0
    1818:	da09      	bge.n	182e <_init_box+0x26>
    181a:	687b      	ldr	r3, [r7, #4]
    181c:	f023 4300 	bic.w	r3, r3, #2147483648	@ 0x80000000
    1820:	3307      	adds	r3, #7
    1822:	f023 0307 	bic.w	r3, r3, #7
    1826:	607b      	str	r3, [r7, #4]
    1828:	2310      	movs	r3, #16
    182a:	61bb      	str	r3, [r7, #24]
    182c:	e006      	b.n	183c <_init_box+0x34>
    182e:	687b      	ldr	r3, [r7, #4]
    1830:	3303      	adds	r3, #3
    1832:	f023 0303 	bic.w	r3, r3, #3
    1836:	607b      	str	r3, [r7, #4]
    1838:	230c      	movs	r3, #12
    183a:	61bb      	str	r3, [r7, #24]
    183c:	687b      	ldr	r3, [r7, #4]
    183e:	2b00      	cmp	r3, #0
    1840:	d101      	bne.n	1846 <_init_box+0x3e>
    1842:	2301      	movs	r3, #1
    1844:	e030      	b.n	18a8 <_init_box+0xa0>
    1846:	687a      	ldr	r2, [r7, #4]
    1848:	69bb      	ldr	r3, [r7, #24]
    184a:	4413      	add	r3, r2
    184c:	68ba      	ldr	r2, [r7, #8]
    184e:	429a      	cmp	r2, r3
    1850:	d201      	bcs.n	1856 <_init_box+0x4e>
    1852:	2301      	movs	r3, #1
    1854:	e028      	b.n	18a8 <_init_box+0xa0>
    1856:	68fa      	ldr	r2, [r7, #12]
    1858:	69bb      	ldr	r3, [r7, #24]
    185a:	4413      	add	r3, r2
    185c:	61fb      	str	r3, [r7, #28]
    185e:	68fb      	ldr	r3, [r7, #12]
    1860:	69fa      	ldr	r2, [r7, #28]
    1862:	601a      	str	r2, [r3, #0]
    1864:	68fa      	ldr	r2, [r7, #12]
    1866:	68bb      	ldr	r3, [r7, #8]
    1868:	4413      	add	r3, r2
    186a:	617b      	str	r3, [r7, #20]
    186c:	68fb      	ldr	r3, [r7, #12]
    186e:	697a      	ldr	r2, [r7, #20]
    1870:	605a      	str	r2, [r3, #4]
    1872:	68fb      	ldr	r3, [r7, #12]
    1874:	687a      	ldr	r2, [r7, #4]
    1876:	609a      	str	r2, [r3, #8]
    1878:	687b      	ldr	r3, [r7, #4]
    187a:	425b      	negs	r3, r3
    187c:	697a      	ldr	r2, [r7, #20]
    187e:	4413      	add	r3, r2
    1880:	617b      	str	r3, [r7, #20]
    1882:	69fa      	ldr	r2, [r7, #28]
    1884:	687b      	ldr	r3, [r7, #4]
    1886:	4413      	add	r3, r2
    1888:	613b      	str	r3, [r7, #16]
    188a:	693a      	ldr	r2, [r7, #16]
    188c:	697b      	ldr	r3, [r7, #20]
    188e:	429a      	cmp	r2, r3
    1890:	d805      	bhi.n	189e <_init_box+0x96>
    1892:	69fb      	ldr	r3, [r7, #28]
    1894:	693a      	ldr	r2, [r7, #16]
    1896:	601a      	str	r2, [r3, #0]
    1898:	693b      	ldr	r3, [r7, #16]
    189a:	61fb      	str	r3, [r7, #28]
    189c:	e7f1      	b.n	1882 <_init_box+0x7a>
    189e:	bf00      	nop
    18a0:	69fb      	ldr	r3, [r7, #28]
    18a2:	2200      	movs	r2, #0
    18a4:	601a      	str	r2, [r3, #0]
    18a6:	2300      	movs	r3, #0
    18a8:	4618      	mov	r0, r3
    18aa:	3724      	adds	r7, #36	@ 0x24
    18ac:	46bd      	mov	sp, r7
    18ae:	bc80      	pop	{r7}
    18b0:	4770      	bx	lr

000018b2 <rt_alloc_box>:
    18b2:	b480      	push	{r7}
    18b4:	b087      	sub	sp, #28
    18b6:	af00      	add	r7, sp, #0
    18b8:	6078      	str	r0, [r7, #4]
    18ba:	f3ef 8310 	mrs	r3, PRIMASK
    18be:	60fb      	str	r3, [r7, #12]
    18c0:	b672      	cpsid	i
    18c2:	68fb      	ldr	r3, [r7, #12]
    18c4:	f003 0301 	and.w	r3, r3, #1
    18c8:	617b      	str	r3, [r7, #20]
    18ca:	687b      	ldr	r3, [r7, #4]
    18cc:	681b      	ldr	r3, [r3, #0]
    18ce:	613b      	str	r3, [r7, #16]
    18d0:	693b      	ldr	r3, [r7, #16]
    18d2:	2b00      	cmp	r3, #0
    18d4:	d003      	beq.n	18de <rt_alloc_box+0x2c>
    18d6:	693b      	ldr	r3, [r7, #16]
    18d8:	681a      	ldr	r2, [r3, #0]
    18da:	687b      	ldr	r3, [r7, #4]
    18dc:	601a      	str	r2, [r3, #0]
    18de:	697b      	ldr	r3, [r7, #20]
    18e0:	2b00      	cmp	r3, #0
    18e2:	d101      	bne.n	18e8 <rt_alloc_box+0x36>
    18e4:	b662      	cpsie	i
    18e6:	bf00      	nop
    18e8:	693b      	ldr	r3, [r7, #16]
    18ea:	4618      	mov	r0, r3
    18ec:	371c      	adds	r7, #28
    18ee:	46bd      	mov	sp, r7
    18f0:	bc80      	pop	{r7}
    18f2:	4770      	bx	lr

000018f4 <rt_free_box>:
    18f4:	b480      	push	{r7}
    18f6:	b085      	sub	sp, #20
    18f8:	af00      	add	r7, sp, #0
    18fa:	6078      	str	r0, [r7, #4]
    18fc:	6039      	str	r1, [r7, #0]
    18fe:	683a      	ldr	r2, [r7, #0]
    1900:	687b      	ldr	r3, [r7, #4]
    1902:	429a      	cmp	r2, r3
    1904:	d304      	bcc.n	1910 <rt_free_box+0x1c>
    1906:	687b      	ldr	r3, [r7, #4]
    1908:	685b      	ldr	r3, [r3, #4]
    190a:	683a      	ldr	r2, [r7, #0]
    190c:	429a      	cmp	r2, r3
    190e:	d301      	bcc.n	1914 <rt_free_box+0x20>
    1910:	2301      	movs	r3, #1
    1912:	e014      	b.n	193e <rt_free_box+0x4a>
    1914:	f3ef 8310 	mrs	r3, PRIMASK
    1918:	60bb      	str	r3, [r7, #8]
    191a:	b672      	cpsid	i
    191c:	68bb      	ldr	r3, [r7, #8]
    191e:	f003 0301 	and.w	r3, r3, #1
    1922:	60fb      	str	r3, [r7, #12]
    1924:	687b      	ldr	r3, [r7, #4]
    1926:	681a      	ldr	r2, [r3, #0]
    1928:	683b      	ldr	r3, [r7, #0]
    192a:	601a      	str	r2, [r3, #0]
    192c:	687b      	ldr	r3, [r7, #4]
    192e:	683a      	ldr	r2, [r7, #0]
    1930:	601a      	str	r2, [r3, #0]
    1932:	68fb      	ldr	r3, [r7, #12]
    1934:	2b00      	cmp	r3, #0
    1936:	d101      	bne.n	193c <rt_free_box+0x48>
    1938:	b662      	cpsie	i
    193a:	bf00      	nop
    193c:	2300      	movs	r3, #0
    193e:	4618      	mov	r0, r3
    1940:	3714      	adds	r7, #20
    1942:	46bd      	mov	sp, r7
    1944:	bc80      	pop	{r7}
    1946:	4770      	bx	lr

00001948 <rt_init_mem>:
    1948:	b480      	push	{r7}
    194a:	b085      	sub	sp, #20
    194c:	af00      	add	r7, sp, #0
    194e:	6078      	str	r0, [r7, #4]
    1950:	6039      	str	r1, [r7, #0]
    1952:	687b      	ldr	r3, [r7, #4]
    1954:	2b00      	cmp	r3, #0
    1956:	d002      	beq.n	195e <rt_init_mem+0x16>
    1958:	683b      	ldr	r3, [r7, #0]
    195a:	2b07      	cmp	r3, #7
    195c:	d801      	bhi.n	1962 <rt_init_mem+0x1a>
    195e:	2301      	movs	r3, #1
    1960:	e010      	b.n	1984 <rt_init_mem+0x3c>
    1962:	687b      	ldr	r3, [r7, #4]
    1964:	60fb      	str	r3, [r7, #12]
    1966:	687a      	ldr	r2, [r7, #4]
    1968:	683b      	ldr	r3, [r7, #0]
    196a:	4413      	add	r3, r2
    196c:	3b04      	subs	r3, #4
    196e:	461a      	mov	r2, r3
    1970:	68fb      	ldr	r3, [r7, #12]
    1972:	601a      	str	r2, [r3, #0]
    1974:	68fb      	ldr	r3, [r7, #12]
    1976:	681b      	ldr	r3, [r3, #0]
    1978:	2200      	movs	r2, #0
    197a:	601a      	str	r2, [r3, #0]
    197c:	68fb      	ldr	r3, [r7, #12]
    197e:	2200      	movs	r2, #0
    1980:	605a      	str	r2, [r3, #4]
    1982:	2300      	movs	r3, #0
    1984:	4618      	mov	r0, r3
    1986:	3714      	adds	r7, #20
    1988:	46bd      	mov	sp, r7
    198a:	bc80      	pop	{r7}
    198c:	4770      	bx	lr

0000198e <rt_alloc_mem>:
    198e:	b480      	push	{r7}
    1990:	b087      	sub	sp, #28
    1992:	af00      	add	r7, sp, #0
    1994:	6078      	str	r0, [r7, #4]
    1996:	6039      	str	r1, [r7, #0]
    1998:	687b      	ldr	r3, [r7, #4]
    199a:	2b00      	cmp	r3, #0
    199c:	d002      	beq.n	19a4 <rt_alloc_mem+0x16>
    199e:	683b      	ldr	r3, [r7, #0]
    19a0:	2b00      	cmp	r3, #0
    19a2:	d101      	bne.n	19a8 <rt_alloc_mem+0x1a>
    19a4:	2300      	movs	r3, #0
    19a6:	e040      	b.n	1a2a <rt_alloc_mem+0x9c>
    19a8:	683b      	ldr	r3, [r7, #0]
    19aa:	3308      	adds	r3, #8
    19ac:	603b      	str	r3, [r7, #0]
    19ae:	683b      	ldr	r3, [r7, #0]
    19b0:	3303      	adds	r3, #3
    19b2:	f023 0303 	bic.w	r3, r3, #3
    19b6:	603b      	str	r3, [r7, #0]
    19b8:	687b      	ldr	r3, [r7, #4]
    19ba:	613b      	str	r3, [r7, #16]
    19bc:	693b      	ldr	r3, [r7, #16]
    19be:	681b      	ldr	r3, [r3, #0]
    19c0:	461a      	mov	r2, r3
    19c2:	693b      	ldr	r3, [r7, #16]
    19c4:	1ad3      	subs	r3, r2, r3
    19c6:	60fb      	str	r3, [r7, #12]
    19c8:	693b      	ldr	r3, [r7, #16]
    19ca:	685b      	ldr	r3, [r3, #4]
    19cc:	68fa      	ldr	r2, [r7, #12]
    19ce:	1ad3      	subs	r3, r2, r3
    19d0:	60fb      	str	r3, [r7, #12]
    19d2:	68fa      	ldr	r2, [r7, #12]
    19d4:	683b      	ldr	r3, [r7, #0]
    19d6:	429a      	cmp	r2, r3
    19d8:	d208      	bcs.n	19ec <rt_alloc_mem+0x5e>
    19da:	693b      	ldr	r3, [r7, #16]
    19dc:	681b      	ldr	r3, [r3, #0]
    19de:	613b      	str	r3, [r7, #16]
    19e0:	693b      	ldr	r3, [r7, #16]
    19e2:	681b      	ldr	r3, [r3, #0]
    19e4:	2b00      	cmp	r3, #0
    19e6:	d1e9      	bne.n	19bc <rt_alloc_mem+0x2e>
    19e8:	2300      	movs	r3, #0
    19ea:	e01e      	b.n	1a2a <rt_alloc_mem+0x9c>
    19ec:	bf00      	nop
    19ee:	693b      	ldr	r3, [r7, #16]
    19f0:	685b      	ldr	r3, [r3, #4]
    19f2:	2b00      	cmp	r3, #0
    19f4:	d106      	bne.n	1a04 <rt_alloc_mem+0x76>
    19f6:	693b      	ldr	r3, [r7, #16]
    19f8:	683a      	ldr	r2, [r7, #0]
    19fa:	605a      	str	r2, [r3, #4]
    19fc:	693b      	ldr	r3, [r7, #16]
    19fe:	3308      	adds	r3, #8
    1a00:	617b      	str	r3, [r7, #20]
    1a02:	e011      	b.n	1a28 <rt_alloc_mem+0x9a>
    1a04:	693b      	ldr	r3, [r7, #16]
    1a06:	685a      	ldr	r2, [r3, #4]
    1a08:	693b      	ldr	r3, [r7, #16]
    1a0a:	4413      	add	r3, r2
    1a0c:	60bb      	str	r3, [r7, #8]
    1a0e:	693b      	ldr	r3, [r7, #16]
    1a10:	681a      	ldr	r2, [r3, #0]
    1a12:	68bb      	ldr	r3, [r7, #8]
    1a14:	601a      	str	r2, [r3, #0]
    1a16:	68bb      	ldr	r3, [r7, #8]
    1a18:	683a      	ldr	r2, [r7, #0]
    1a1a:	605a      	str	r2, [r3, #4]
    1a1c:	693b      	ldr	r3, [r7, #16]
    1a1e:	68ba      	ldr	r2, [r7, #8]
    1a20:	601a      	str	r2, [r3, #0]
    1a22:	68bb      	ldr	r3, [r7, #8]
    1a24:	3308      	adds	r3, #8
    1a26:	617b      	str	r3, [r7, #20]
    1a28:	697b      	ldr	r3, [r7, #20]
    1a2a:	4618      	mov	r0, r3
    1a2c:	371c      	adds	r7, #28
    1a2e:	46bd      	mov	sp, r7
    1a30:	bc80      	pop	{r7}
    1a32:	4770      	bx	lr

00001a34 <rt_free_mem>:
    1a34:	b480      	push	{r7}
    1a36:	b087      	sub	sp, #28
    1a38:	af00      	add	r7, sp, #0
    1a3a:	6078      	str	r0, [r7, #4]
    1a3c:	6039      	str	r1, [r7, #0]
    1a3e:	687b      	ldr	r3, [r7, #4]
    1a40:	2b00      	cmp	r3, #0
    1a42:	d002      	beq.n	1a4a <rt_free_mem+0x16>
    1a44:	683b      	ldr	r3, [r7, #0]
    1a46:	2b00      	cmp	r3, #0
    1a48:	d101      	bne.n	1a4e <rt_free_mem+0x1a>
    1a4a:	2301      	movs	r3, #1
    1a4c:	e021      	b.n	1a92 <rt_free_mem+0x5e>
    1a4e:	683b      	ldr	r3, [r7, #0]
    1a50:	3b08      	subs	r3, #8
    1a52:	60fb      	str	r3, [r7, #12]
    1a54:	2300      	movs	r3, #0
    1a56:	613b      	str	r3, [r7, #16]
    1a58:	687b      	ldr	r3, [r7, #4]
    1a5a:	617b      	str	r3, [r7, #20]
    1a5c:	e009      	b.n	1a72 <rt_free_mem+0x3e>
    1a5e:	697b      	ldr	r3, [r7, #20]
    1a60:	613b      	str	r3, [r7, #16]
    1a62:	697b      	ldr	r3, [r7, #20]
    1a64:	681b      	ldr	r3, [r3, #0]
    1a66:	617b      	str	r3, [r7, #20]
    1a68:	697b      	ldr	r3, [r7, #20]
    1a6a:	2b00      	cmp	r3, #0
    1a6c:	d101      	bne.n	1a72 <rt_free_mem+0x3e>
    1a6e:	2301      	movs	r3, #1
    1a70:	e00f      	b.n	1a92 <rt_free_mem+0x5e>
    1a72:	697a      	ldr	r2, [r7, #20]
    1a74:	68fb      	ldr	r3, [r7, #12]
    1a76:	429a      	cmp	r2, r3
    1a78:	d1f1      	bne.n	1a5e <rt_free_mem+0x2a>
    1a7a:	693b      	ldr	r3, [r7, #16]
    1a7c:	2b00      	cmp	r3, #0
    1a7e:	d103      	bne.n	1a88 <rt_free_mem+0x54>
    1a80:	697b      	ldr	r3, [r7, #20]
    1a82:	2200      	movs	r2, #0
    1a84:	605a      	str	r2, [r3, #4]
    1a86:	e003      	b.n	1a90 <rt_free_mem+0x5c>
    1a88:	697b      	ldr	r3, [r7, #20]
    1a8a:	681a      	ldr	r2, [r3, #0]
    1a8c:	693b      	ldr	r3, [r7, #16]
    1a8e:	601a      	str	r2, [r3, #0]
    1a90:	2300      	movs	r3, #0
    1a92:	4618      	mov	r0, r3
    1a94:	371c      	adds	r7, #28
    1a96:	46bd      	mov	sp, r7
    1a98:	bc80      	pop	{r7}
    1a9a:	4770      	bx	lr

00001a9c <rt_init_robin>:
    1a9c:	b480      	push	{r7}
    1a9e:	af00      	add	r7, sp, #0
    1aa0:	4b05      	ldr	r3, [pc, #20]	@ (1ab8 <rt_init_robin+0x1c>)
    1aa2:	2200      	movs	r2, #0
    1aa4:	601a      	str	r2, [r3, #0]
    1aa6:	4b05      	ldr	r3, [pc, #20]	@ (1abc <rt_init_robin+0x20>)
    1aa8:	681b      	ldr	r3, [r3, #0]
    1aaa:	b29a      	uxth	r2, r3
    1aac:	4b02      	ldr	r3, [pc, #8]	@ (1ab8 <rt_init_robin+0x1c>)
    1aae:	80da      	strh	r2, [r3, #6]
    1ab0:	bf00      	nop
    1ab2:	46bd      	mov	sp, r7
    1ab4:	bc80      	pop	{r7}
    1ab6:	4770      	bx	lr
    1ab8:	200002a4 	andcs	r0, r0, r4, lsr #5
    1abc:	00004af8 	strdeq	r4, [r0], -r8

00001ac0 <rt_chk_robin>:
    1ac0:	b580      	push	{r7, lr}
    1ac2:	b082      	sub	sp, #8
    1ac4:	af00      	add	r7, sp, #0
    1ac6:	4b15      	ldr	r3, [pc, #84]	@ (1b1c <rt_chk_robin+0x5c>)
    1ac8:	681a      	ldr	r2, [r3, #0]
    1aca:	4b15      	ldr	r3, [pc, #84]	@ (1b20 <rt_chk_robin+0x60>)
    1acc:	685b      	ldr	r3, [r3, #4]
    1ace:	429a      	cmp	r2, r3
    1ad0:	d00e      	beq.n	1af0 <rt_chk_robin+0x30>
    1ad2:	4b13      	ldr	r3, [pc, #76]	@ (1b20 <rt_chk_robin+0x60>)
    1ad4:	685b      	ldr	r3, [r3, #4]
    1ad6:	4a11      	ldr	r2, [pc, #68]	@ (1b1c <rt_chk_robin+0x5c>)
    1ad8:	6013      	str	r3, [r2, #0]
    1ada:	4b12      	ldr	r3, [pc, #72]	@ (1b24 <rt_chk_robin+0x64>)
    1adc:	681b      	ldr	r3, [r3, #0]
    1ade:	b29a      	uxth	r2, r3
    1ae0:	4b0e      	ldr	r3, [pc, #56]	@ (1b1c <rt_chk_robin+0x5c>)
    1ae2:	88db      	ldrh	r3, [r3, #6]
    1ae4:	4413      	add	r3, r2
    1ae6:	b29b      	uxth	r3, r3
    1ae8:	3b01      	subs	r3, #1
    1aea:	b29a      	uxth	r2, r3
    1aec:	4b0b      	ldr	r3, [pc, #44]	@ (1b1c <rt_chk_robin+0x5c>)
    1aee:	809a      	strh	r2, [r3, #4]
    1af0:	4b0a      	ldr	r3, [pc, #40]	@ (1b1c <rt_chk_robin+0x5c>)
    1af2:	889a      	ldrh	r2, [r3, #4]
    1af4:	4b0b      	ldr	r3, [pc, #44]	@ (1b24 <rt_chk_robin+0x64>)
    1af6:	681b      	ldr	r3, [r3, #0]
    1af8:	b29b      	uxth	r3, r3
    1afa:	429a      	cmp	r2, r3
    1afc:	d10a      	bne.n	1b14 <rt_chk_robin+0x54>
    1afe:	4b07      	ldr	r3, [pc, #28]	@ (1b1c <rt_chk_robin+0x5c>)
    1b00:	2200      	movs	r2, #0
    1b02:	601a      	str	r2, [r3, #0]
    1b04:	4806      	ldr	r0, [pc, #24]	@ (1b20 <rt_chk_robin+0x60>)
    1b06:	f7ff fae9 	bl	10dc <rt_get_first>
    1b0a:	6078      	str	r0, [r7, #4]
    1b0c:	6879      	ldr	r1, [r7, #4]
    1b0e:	4804      	ldr	r0, [pc, #16]	@ (1b20 <rt_chk_robin+0x60>)
    1b10:	f7ff fa9f 	bl	1052 <rt_put_prio>
    1b14:	bf00      	nop
    1b16:	3708      	adds	r7, #8
    1b18:	46bd      	mov	sp, r7
    1b1a:	bd80      	pop	{r7, pc}
    1b1c:	200002a4 	andcs	r0, r0, r4, lsr #5
    1b20:	20000274 	andcs	r0, r0, r4, ror r2
    1b24:	200002f0 	strdcs	r0, [r0], -r0	@ <UNPREDICTABLE>

00001b28 <rt_sem_psh>:
    1b28:	b580      	push	{r7, lr}
    1b2a:	b084      	sub	sp, #16
    1b2c:	af00      	add	r7, sp, #0
    1b2e:	6078      	str	r0, [r7, #4]
    1b30:	687b      	ldr	r3, [r7, #4]
    1b32:	685b      	ldr	r3, [r3, #4]
    1b34:	2b00      	cmp	r3, #0
    1b36:	d012      	beq.n	1b5e <rt_sem_psh+0x36>
    1b38:	6878      	ldr	r0, [r7, #4]
    1b3a:	f7ff facf 	bl	10dc <rt_get_first>
    1b3e:	60f8      	str	r0, [r7, #12]
    1b40:	68f8      	ldr	r0, [r7, #12]
    1b42:	f7ff fc35 	bl	13b0 <rt_rmv_dly>
    1b46:	68fb      	ldr	r3, [r7, #12]
    1b48:	2201      	movs	r2, #1
    1b4a:	705a      	strb	r2, [r3, #1]
    1b4c:	2101      	movs	r1, #1
    1b4e:	68f8      	ldr	r0, [r7, #12]
    1b50:	f7fe fd06 	bl	560 <rt_ret_val>
    1b54:	68f9      	ldr	r1, [r7, #12]
    1b56:	4807      	ldr	r0, [pc, #28]	@ (1b74 <rt_sem_psh+0x4c>)
    1b58:	f7ff fa7b 	bl	1052 <rt_put_prio>
    1b5c:	e005      	b.n	1b6a <rt_sem_psh+0x42>
    1b5e:	687b      	ldr	r3, [r7, #4]
    1b60:	885b      	ldrh	r3, [r3, #2]
    1b62:	3301      	adds	r3, #1
    1b64:	b29a      	uxth	r2, r3
    1b66:	687b      	ldr	r3, [r7, #4]
    1b68:	805a      	strh	r2, [r3, #2]
    1b6a:	bf00      	nop
    1b6c:	3710      	adds	r7, #16
    1b6e:	46bd      	mov	sp, r7
    1b70:	bd80      	pop	{r7, pc}
    1b72:	bf00      	nop
    1b74:	20000274 	andcs	r0, r0, r4, ror r2

00001b78 <rt_systick_init>:
    1b78:	b480      	push	{r7}
    1b7a:	af00      	add	r7, sp, #0
    1b7c:	4a09      	ldr	r2, [pc, #36]	@ (1ba4 <rt_systick_init+0x2c>)
    1b7e:	4b0a      	ldr	r3, [pc, #40]	@ (1ba8 <rt_systick_init+0x30>)
    1b80:	681b      	ldr	r3, [r3, #0]
    1b82:	6013      	str	r3, [r2, #0]
    1b84:	4b09      	ldr	r3, [pc, #36]	@ (1bac <rt_systick_init+0x34>)
    1b86:	2200      	movs	r2, #0
    1b88:	601a      	str	r2, [r3, #0]
    1b8a:	4b09      	ldr	r3, [pc, #36]	@ (1bb0 <rt_systick_init+0x38>)
    1b8c:	2207      	movs	r2, #7
    1b8e:	601a      	str	r2, [r3, #0]
    1b90:	4b08      	ldr	r3, [pc, #32]	@ (1bb4 <rt_systick_init+0x3c>)
    1b92:	681b      	ldr	r3, [r3, #0]
    1b94:	4a07      	ldr	r2, [pc, #28]	@ (1bb4 <rt_systick_init+0x3c>)
    1b96:	f043 437f 	orr.w	r3, r3, #4278190080	@ 0xff000000
    1b9a:	6013      	str	r3, [r2, #0]
    1b9c:	bf00      	nop
    1b9e:	46bd      	mov	sp, r7
    1ba0:	bc80      	pop	{r7}
    1ba2:	4770      	bx	lr
    1ba4:	e000e014 	and	lr, r0, r4, lsl r0
    1ba8:	00004afc 	strdeq	r4, [r0], -ip
    1bac:	e000e018 	and	lr, r0, r8, lsl r0
    1bb0:	e000e010 	and	lr, r0, r0, lsl r0
    1bb4:	e000ed20 	and	lr, r0, r0, lsr #26

00001bb8 <rt_psh_req>:
    1bb8:	b480      	push	{r7}
    1bba:	af00      	add	r7, sp, #0
    1bbc:	4b08      	ldr	r3, [pc, #32]	@ (1be0 <rt_psh_req+0x28>)
    1bbe:	781b      	ldrb	r3, [r3, #0]
    1bc0:	b2db      	uxtb	r3, r3
    1bc2:	2b00      	cmp	r3, #0
    1bc4:	d104      	bne.n	1bd0 <rt_psh_req+0x18>
    1bc6:	4b07      	ldr	r3, [pc, #28]	@ (1be4 <rt_psh_req+0x2c>)
    1bc8:	f04f 5280 	mov.w	r2, #268435456	@ 0x10000000
    1bcc:	601a      	str	r2, [r3, #0]
    1bce:	e002      	b.n	1bd6 <rt_psh_req+0x1e>
    1bd0:	4b05      	ldr	r3, [pc, #20]	@ (1be8 <rt_psh_req+0x30>)
    1bd2:	2201      	movs	r2, #1
    1bd4:	701a      	strb	r2, [r3, #0]
    1bd6:	bf00      	nop
    1bd8:	46bd      	mov	sp, r7
    1bda:	bc80      	pop	{r7}
    1bdc:	4770      	bx	lr
    1bde:	bf00      	nop
    1be0:	200002b0 			@ <UNDEFINED> instruction: 0x200002b0
    1be4:	e000ed04 	and	lr, r0, r4, lsl #26
    1be8:	200002b1 			@ <UNDEFINED> instruction: 0x200002b1

00001bec <rt_pop_req>:
    1bec:	b580      	push	{r7, lr}
    1bee:	b084      	sub	sp, #16
    1bf0:	af00      	add	r7, sp, #0
    1bf2:	4b2e      	ldr	r3, [pc, #184]	@ (1cac <rt_pop_req+0xc0>)
    1bf4:	681b      	ldr	r3, [r3, #0]
    1bf6:	2201      	movs	r2, #1
    1bf8:	705a      	strb	r2, [r3, #1]
    1bfa:	4b2c      	ldr	r3, [pc, #176]	@ (1cac <rt_pop_req+0xc0>)
    1bfc:	681b      	ldr	r3, [r3, #0]
    1bfe:	4618      	mov	r0, r3
    1c00:	f7ff fa9c 	bl	113c <rt_put_rdy_first>
    1c04:	4b2a      	ldr	r3, [pc, #168]	@ (1cb0 <rt_pop_req+0xc4>)
    1c06:	785b      	ldrb	r3, [r3, #1]
    1c08:	60fb      	str	r3, [r7, #12]
    1c0a:	e03b      	b.n	1c84 <rt_pop_req+0x98>
    1c0c:	4a28      	ldr	r2, [pc, #160]	@ (1cb0 <rt_pop_req+0xc4>)
    1c0e:	68fb      	ldr	r3, [r7, #12]
    1c10:	00db      	lsls	r3, r3, #3
    1c12:	4413      	add	r3, r2
    1c14:	685b      	ldr	r3, [r3, #4]
    1c16:	607b      	str	r3, [r7, #4]
    1c18:	687b      	ldr	r3, [r7, #4]
    1c1a:	781b      	ldrb	r3, [r3, #0]
    1c1c:	2b00      	cmp	r3, #0
    1c1e:	d10a      	bne.n	1c36 <rt_pop_req+0x4a>
    1c20:	4a23      	ldr	r2, [pc, #140]	@ (1cb0 <rt_pop_req+0xc4>)
    1c22:	68fb      	ldr	r3, [r7, #12]
    1c24:	00db      	lsls	r3, r3, #3
    1c26:	4413      	add	r3, r2
    1c28:	689b      	ldr	r3, [r3, #8]
    1c2a:	b29b      	uxth	r3, r3
    1c2c:	4619      	mov	r1, r3
    1c2e:	6878      	ldr	r0, [r7, #4]
    1c30:	f7ff f98c 	bl	f4c <rt_evt_psh>
    1c34:	e010      	b.n	1c58 <rt_pop_req+0x6c>
    1c36:	687b      	ldr	r3, [r7, #4]
    1c38:	781b      	ldrb	r3, [r3, #0]
    1c3a:	2b01      	cmp	r3, #1
    1c3c:	d109      	bne.n	1c52 <rt_pop_req+0x66>
    1c3e:	4a1c      	ldr	r2, [pc, #112]	@ (1cb0 <rt_pop_req+0xc4>)
    1c40:	68fb      	ldr	r3, [r7, #12]
    1c42:	00db      	lsls	r3, r3, #3
    1c44:	4413      	add	r3, r2
    1c46:	689b      	ldr	r3, [r3, #8]
    1c48:	4619      	mov	r1, r3
    1c4a:	6878      	ldr	r0, [r7, #4]
    1c4c:	f7ff fd28 	bl	16a0 <rt_mbx_psh>
    1c50:	e002      	b.n	1c58 <rt_pop_req+0x6c>
    1c52:	6878      	ldr	r0, [r7, #4]
    1c54:	f7ff ff68 	bl	1b28 <rt_sem_psh>
    1c58:	68fb      	ldr	r3, [r7, #12]
    1c5a:	3301      	adds	r3, #1
    1c5c:	60fb      	str	r3, [r7, #12]
    1c5e:	4b14      	ldr	r3, [pc, #80]	@ (1cb0 <rt_pop_req+0xc4>)
    1c60:	78db      	ldrb	r3, [r3, #3]
    1c62:	461a      	mov	r2, r3
    1c64:	68fb      	ldr	r3, [r7, #12]
    1c66:	4293      	cmp	r3, r2
    1c68:	d101      	bne.n	1c6e <rt_pop_req+0x82>
    1c6a:	2300      	movs	r3, #0
    1c6c:	60fb      	str	r3, [r7, #12]
    1c6e:	f3ef 8310 	mrs	r3, PRIMASK
    1c72:	603b      	str	r3, [r7, #0]
    1c74:	b672      	cpsid	i
    1c76:	4b0f      	ldr	r3, [pc, #60]	@ (1cb4 <rt_pop_req+0xc8>)
    1c78:	781a      	ldrb	r2, [r3, #0]
    1c7a:	3a01      	subs	r2, #1
    1c7c:	b2d2      	uxtb	r2, r2
    1c7e:	701a      	strb	r2, [r3, #0]
    1c80:	b662      	cpsie	i
    1c82:	bf00      	nop
    1c84:	4b0a      	ldr	r3, [pc, #40]	@ (1cb0 <rt_pop_req+0xc4>)
    1c86:	789b      	ldrb	r3, [r3, #2]
    1c88:	2b00      	cmp	r3, #0
    1c8a:	d1bf      	bne.n	1c0c <rt_pop_req+0x20>
    1c8c:	4b08      	ldr	r3, [pc, #32]	@ (1cb0 <rt_pop_req+0xc4>)
    1c8e:	68fa      	ldr	r2, [r7, #12]
    1c90:	b2d2      	uxtb	r2, r2
    1c92:	705a      	strb	r2, [r3, #1]
    1c94:	4808      	ldr	r0, [pc, #32]	@ (1cb8 <rt_pop_req+0xcc>)
    1c96:	f7ff fa21 	bl	10dc <rt_get_first>
    1c9a:	60b8      	str	r0, [r7, #8]
    1c9c:	68b8      	ldr	r0, [r7, #8]
    1c9e:	f000 f905 	bl	1eac <rt_switch_req>
    1ca2:	bf00      	nop
    1ca4:	3710      	adds	r7, #16
    1ca6:	46bd      	mov	sp, r7
    1ca8:	bd80      	pop	{r7, pc}
    1caa:	bf00      	nop
    1cac:	200002b4 			@ <UNDEFINED> instruction: 0x200002b4
    1cb0:	20000ae0 	andcs	r0, r0, r0, ror #21
    1cb4:	20000ae2 	andcs	r0, r0, r2, ror #21
    1cb8:	20000274 	andcs	r0, r0, r4, ror r2

00001cbc <os_tick_init>:
    1cbc:	b580      	push	{r7, lr}
    1cbe:	af00      	add	r7, sp, #0
    1cc0:	f7ff ff5a 	bl	1b78 <rt_systick_init>
    1cc4:	f04f 33ff 	mov.w	r3, #4294967295	@ 0xffffffff
    1cc8:	4618      	mov	r0, r3
    1cca:	bd80      	pop	{r7, pc}

00001ccc <os_tick_irqack>:
    1ccc:	b480      	push	{r7}
    1cce:	af00      	add	r7, sp, #0
    1cd0:	bf00      	nop
    1cd2:	46bd      	mov	sp, r7
    1cd4:	bc80      	pop	{r7}
    1cd6:	4770      	bx	lr

00001cd8 <rt_systick>:
    1cd8:	b580      	push	{r7, lr}
    1cda:	b082      	sub	sp, #8
    1cdc:	af00      	add	r7, sp, #0
    1cde:	4b0f      	ldr	r3, [pc, #60]	@ (1d1c <rt_systick+0x44>)
    1ce0:	681b      	ldr	r3, [r3, #0]
    1ce2:	2201      	movs	r2, #1
    1ce4:	705a      	strb	r2, [r3, #1]
    1ce6:	4b0d      	ldr	r3, [pc, #52]	@ (1d1c <rt_systick+0x44>)
    1ce8:	681b      	ldr	r3, [r3, #0]
    1cea:	4618      	mov	r0, r3
    1cec:	f7ff fa26 	bl	113c <rt_put_rdy_first>
    1cf0:	f7ff fee6 	bl	1ac0 <rt_chk_robin>
    1cf4:	4b0a      	ldr	r3, [pc, #40]	@ (1d20 <rt_systick+0x48>)
    1cf6:	681b      	ldr	r3, [r3, #0]
    1cf8:	3301      	adds	r3, #1
    1cfa:	4a09      	ldr	r2, [pc, #36]	@ (1d20 <rt_systick+0x48>)
    1cfc:	6013      	str	r3, [r2, #0]
    1cfe:	f7ff fabf 	bl	1280 <rt_dec_dly>
    1d02:	f7fe ff6f 	bl	be4 <sysTimerTick>
    1d06:	4807      	ldr	r0, [pc, #28]	@ (1d24 <rt_systick+0x4c>)
    1d08:	f7ff f9e8 	bl	10dc <rt_get_first>
    1d0c:	6078      	str	r0, [r7, #4]
    1d0e:	6878      	ldr	r0, [r7, #4]
    1d10:	f000 f8cc 	bl	1eac <rt_switch_req>
    1d14:	bf00      	nop
    1d16:	3708      	adds	r7, #8
    1d18:	46bd      	mov	sp, r7
    1d1a:	bd80      	pop	{r7, pc}
    1d1c:	200002b4 			@ <UNDEFINED> instruction: 0x200002b4
    1d20:	200002f0 	strdcs	r0, [r0], -r0	@ <UNPREDICTABLE>
    1d24:	20000274 	andcs	r0, r0, r4, ror r2

00001d28 <rt_stk_check>:
    1d28:	b580      	push	{r7, lr}
    1d2a:	af00      	add	r7, sp, #0
    1d2c:	4b09      	ldr	r3, [pc, #36]	@ (1d54 <rt_stk_check+0x2c>)
    1d2e:	681b      	ldr	r3, [r3, #0]
    1d30:	6a9b      	ldr	r3, [r3, #40]	@ 0x28
    1d32:	4a08      	ldr	r2, [pc, #32]	@ (1d54 <rt_stk_check+0x2c>)
    1d34:	6812      	ldr	r2, [r2, #0]
    1d36:	6ad2      	ldr	r2, [r2, #44]	@ 0x2c
    1d38:	4293      	cmp	r3, r2
    1d3a:	d306      	bcc.n	1d4a <rt_stk_check+0x22>
    1d3c:	4b05      	ldr	r3, [pc, #20]	@ (1d54 <rt_stk_check+0x2c>)
    1d3e:	681b      	ldr	r3, [r3, #0]
    1d40:	6adb      	ldr	r3, [r3, #44]	@ 0x2c
    1d42:	681b      	ldr	r3, [r3, #0]
    1d44:	4a04      	ldr	r2, [pc, #16]	@ (1d58 <rt_stk_check+0x30>)
    1d46:	4293      	cmp	r3, r2
    1d48:	d002      	beq.n	1d50 <rt_stk_check+0x28>
    1d4a:	2001      	movs	r0, #1
    1d4c:	f000 fba8 	bl	24a0 <os_error>
    1d50:	bf00      	nop
    1d52:	bd80      	pop	{r7, pc}
    1d54:	200002b4 			@ <UNDEFINED> instruction: 0x200002b4
    1d58:	e25a2ea5 	subs	r2, sl, #2640	@ 0xa50

00001d5c <rt_svc_init>:
    1d5c:	b480      	push	{r7}
    1d5e:	b085      	sub	sp, #20
    1d60:	af00      	add	r7, sp, #0
    1d62:	4b1a      	ldr	r3, [pc, #104]	@ (1dcc <rt_svc_init+0x70>)
    1d64:	681b      	ldr	r3, [r3, #0]
    1d66:	4a19      	ldr	r2, [pc, #100]	@ (1dcc <rt_svc_init+0x70>)
    1d68:	f443 037f 	orr.w	r3, r3, #16711680	@ 0xff0000
    1d6c:	6013      	str	r3, [r2, #0]
    1d6e:	4b17      	ldr	r3, [pc, #92]	@ (1dcc <rt_svc_init+0x70>)
    1d70:	681b      	ldr	r3, [r3, #0]
    1d72:	021b      	lsls	r3, r3, #8
    1d74:	f003 437f 	and.w	r3, r3, #4278190080	@ 0xff000000
    1d78:	43db      	mvns	r3, r3
    1d7a:	607b      	str	r3, [r7, #4]
    1d7c:	687b      	ldr	r3, [r7, #4]
    1d7e:	fab3 f383 	clz	r3, r3
    1d82:	70fb      	strb	r3, [r7, #3]
    1d84:	78fb      	ldrb	r3, [r7, #3]
    1d86:	f1c3 0308 	rsb	r3, r3, #8
    1d8a:	60fb      	str	r3, [r7, #12]
    1d8c:	4b10      	ldr	r3, [pc, #64]	@ (1dd0 <rt_svc_init+0x74>)
    1d8e:	681b      	ldr	r3, [r3, #0]
    1d90:	0a1b      	lsrs	r3, r3, #8
    1d92:	f003 0307 	and.w	r3, r3, #7
    1d96:	60bb      	str	r3, [r7, #8]
    1d98:	68ba      	ldr	r2, [r7, #8]
    1d9a:	68fb      	ldr	r3, [r7, #12]
    1d9c:	429a      	cmp	r2, r3
    1d9e:	d302      	bcc.n	1da6 <rt_svc_init+0x4a>
    1da0:	68bb      	ldr	r3, [r7, #8]
    1da2:	3301      	adds	r3, #1
    1da4:	60fb      	str	r3, [r7, #12]
    1da6:	f06f 7280 	mvn.w	r2, #16777216	@ 0x1000000
    1daa:	68fb      	ldr	r3, [r7, #12]
    1dac:	fa02 f303 	lsl.w	r3, r2, r3
    1db0:	f003 427f 	and.w	r2, r3, #4278190080	@ 0xff000000
    1db4:	4b07      	ldr	r3, [pc, #28]	@ (1dd4 <rt_svc_init+0x78>)
    1db6:	681b      	ldr	r3, [r3, #0]
    1db8:	f023 437f 	bic.w	r3, r3, #4278190080	@ 0xff000000
    1dbc:	4905      	ldr	r1, [pc, #20]	@ (1dd4 <rt_svc_init+0x78>)
    1dbe:	4313      	orrs	r3, r2
    1dc0:	600b      	str	r3, [r1, #0]
    1dc2:	bf00      	nop
    1dc4:	3714      	adds	r7, #20
    1dc6:	46bd      	mov	sp, r7
    1dc8:	bc80      	pop	{r7}
    1dca:	4770      	bx	lr
    1dcc:	e000ed20 	and	lr, r0, r0, lsr #26
    1dd0:	e000ed0c 	and	lr, r0, ip, lsl #26
    1dd4:	e000ed1c 	and	lr, r0, ip, lsl sp

00001dd8 <rt_get_TID>:
    1dd8:	b480      	push	{r7}
    1dda:	b083      	sub	sp, #12
    1ddc:	af00      	add	r7, sp, #0
    1dde:	2301      	movs	r3, #1
    1de0:	607b      	str	r3, [r7, #4]
    1de2:	e00b      	b.n	1dfc <rt_get_TID+0x24>
    1de4:	687b      	ldr	r3, [r7, #4]
    1de6:	3b01      	subs	r3, #1
    1de8:	4a0a      	ldr	r2, [pc, #40]	@ (1e14 <rt_get_TID+0x3c>)
    1dea:	f852 3023 	ldr.w	r3, [r2, r3, lsl #2]
    1dee:	2b00      	cmp	r3, #0
    1df0:	d101      	bne.n	1df6 <rt_get_TID+0x1e>
    1df2:	687b      	ldr	r3, [r7, #4]
    1df4:	e009      	b.n	1e0a <rt_get_TID+0x32>
    1df6:	687b      	ldr	r3, [r7, #4]
    1df8:	3301      	adds	r3, #1
    1dfa:	607b      	str	r3, [r7, #4]
    1dfc:	4b06      	ldr	r3, [pc, #24]	@ (1e18 <rt_get_TID+0x40>)
    1dfe:	881b      	ldrh	r3, [r3, #0]
    1e00:	461a      	mov	r2, r3
    1e02:	687b      	ldr	r3, [r7, #4]
    1e04:	4293      	cmp	r3, r2
    1e06:	d9ed      	bls.n	1de4 <rt_get_TID+0xc>
    1e08:	2300      	movs	r3, #0
    1e0a:	4618      	mov	r0, r3
    1e0c:	370c      	adds	r7, #12
    1e0e:	46bd      	mov	sp, r7
    1e10:	bc80      	pop	{r7}
    1e12:	4770      	bx	lr
    1e14:	20000b64 	andcs	r0, r0, r4, ror #22
    1e18:	00004af0 	strdeq	r4, [r0], -r0

00001e1c <rt_init_context>:
    1e1c:	b580      	push	{r7, lr}
    1e1e:	b084      	sub	sp, #16
    1e20:	af00      	add	r7, sp, #0
    1e22:	60f8      	str	r0, [r7, #12]
    1e24:	460b      	mov	r3, r1
    1e26:	607a      	str	r2, [r7, #4]
    1e28:	72fb      	strb	r3, [r7, #11]
    1e2a:	68fb      	ldr	r3, [r7, #12]
    1e2c:	2200      	movs	r2, #0
    1e2e:	701a      	strb	r2, [r3, #0]
    1e30:	68fb      	ldr	r3, [r7, #12]
    1e32:	2201      	movs	r2, #1
    1e34:	705a      	strb	r2, [r3, #1]
    1e36:	68fb      	ldr	r3, [r7, #12]
    1e38:	7afa      	ldrb	r2, [r7, #11]
    1e3a:	709a      	strb	r2, [r3, #2]
    1e3c:	68fb      	ldr	r3, [r7, #12]
    1e3e:	7afa      	ldrb	r2, [r7, #11]
    1e40:	f883 2024 	strb.w	r2, [r3, #36]	@ 0x24
    1e44:	68fb      	ldr	r3, [r7, #12]
    1e46:	2200      	movs	r2, #0
    1e48:	605a      	str	r2, [r3, #4]
    1e4a:	68fb      	ldr	r3, [r7, #12]
    1e4c:	2200      	movs	r2, #0
    1e4e:	609a      	str	r2, [r3, #8]
    1e50:	68fb      	ldr	r3, [r7, #12]
    1e52:	2200      	movs	r2, #0
    1e54:	60da      	str	r2, [r3, #12]
    1e56:	68fb      	ldr	r3, [r7, #12]
    1e58:	2200      	movs	r2, #0
    1e5a:	611a      	str	r2, [r3, #16]
    1e5c:	68fb      	ldr	r3, [r7, #12]
    1e5e:	2200      	movs	r2, #0
    1e60:	621a      	str	r2, [r3, #32]
    1e62:	68fb      	ldr	r3, [r7, #12]
    1e64:	2200      	movs	r2, #0
    1e66:	829a      	strh	r2, [r3, #20]
    1e68:	68fb      	ldr	r3, [r7, #12]
    1e6a:	2200      	movs	r2, #0
    1e6c:	82da      	strh	r2, [r3, #22]
    1e6e:	68fb      	ldr	r3, [r7, #12]
    1e70:	2200      	movs	r2, #0
    1e72:	831a      	strh	r2, [r3, #24]
    1e74:	68fb      	ldr	r3, [r7, #12]
    1e76:	2200      	movs	r2, #0
    1e78:	835a      	strh	r2, [r3, #26]
    1e7a:	68fb      	ldr	r3, [r7, #12]
    1e7c:	2200      	movs	r2, #0
    1e7e:	f883 2025 	strb.w	r2, [r3, #37]	@ 0x25
    1e82:	68fb      	ldr	r3, [r7, #12]
    1e84:	8cdb      	ldrh	r3, [r3, #38]	@ 0x26
    1e86:	2b00      	cmp	r3, #0
    1e88:	d105      	bne.n	1e96 <rt_init_context+0x7a>
    1e8a:	4807      	ldr	r0, [pc, #28]	@ (1ea8 <rt_init_context+0x8c>)
    1e8c:	f7ff fd11 	bl	18b2 <rt_alloc_box>
    1e90:	4602      	mov	r2, r0
    1e92:	68fb      	ldr	r3, [r7, #12]
    1e94:	62da      	str	r2, [r3, #44]	@ 0x2c
    1e96:	6879      	ldr	r1, [r7, #4]
    1e98:	68f8      	ldr	r0, [r7, #12]
    1e9a:	f7fe fad3 	bl	444 <rt_init_stack>
    1e9e:	bf00      	nop
    1ea0:	3710      	adds	r7, #16
    1ea2:	46bd      	mov	sp, r7
    1ea4:	bd80      	pop	{r7, pc}
    1ea6:	bf00      	nop
    1ea8:	20000470 	andcs	r0, r0, r0, ror r4

00001eac <rt_switch_req>:
    1eac:	b480      	push	{r7}
    1eae:	b083      	sub	sp, #12
    1eb0:	af00      	add	r7, sp, #0
    1eb2:	6078      	str	r0, [r7, #4]
    1eb4:	4a05      	ldr	r2, [pc, #20]	@ (1ecc <rt_switch_req+0x20>)
    1eb6:	687b      	ldr	r3, [r7, #4]
    1eb8:	6053      	str	r3, [r2, #4]
    1eba:	687b      	ldr	r3, [r7, #4]
    1ebc:	2202      	movs	r2, #2
    1ebe:	705a      	strb	r2, [r3, #1]
    1ec0:	bf00      	nop
    1ec2:	370c      	adds	r7, #12
    1ec4:	46bd      	mov	sp, r7
    1ec6:	bc80      	pop	{r7}
    1ec8:	4770      	bx	lr
    1eca:	bf00      	nop
    1ecc:	200002b4 			@ <UNDEFINED> instruction: 0x200002b4

00001ed0 <rt_dispatch>:
    1ed0:	b580      	push	{r7, lr}
    1ed2:	b082      	sub	sp, #8
    1ed4:	af00      	add	r7, sp, #0
    1ed6:	6078      	str	r0, [r7, #4]
    1ed8:	687b      	ldr	r3, [r7, #4]
    1eda:	2b00      	cmp	r3, #0
    1edc:	d107      	bne.n	1eee <rt_dispatch+0x1e>
    1ede:	4813      	ldr	r0, [pc, #76]	@ (1f2c <rt_dispatch+0x5c>)
    1ee0:	f7ff f8fc 	bl	10dc <rt_get_first>
    1ee4:	6078      	str	r0, [r7, #4]
    1ee6:	6878      	ldr	r0, [r7, #4]
    1ee8:	f7ff ffe0 	bl	1eac <rt_switch_req>
    1eec:	e01a      	b.n	1f24 <rt_dispatch+0x54>
    1eee:	687b      	ldr	r3, [r7, #4]
    1ef0:	789a      	ldrb	r2, [r3, #2]
    1ef2:	4b0f      	ldr	r3, [pc, #60]	@ (1f30 <rt_dispatch+0x60>)
    1ef4:	681b      	ldr	r3, [r3, #0]
    1ef6:	789b      	ldrb	r3, [r3, #2]
    1ef8:	429a      	cmp	r2, r3
    1efa:	d90c      	bls.n	1f16 <rt_dispatch+0x46>
    1efc:	4b0c      	ldr	r3, [pc, #48]	@ (1f30 <rt_dispatch+0x60>)
    1efe:	681b      	ldr	r3, [r3, #0]
    1f00:	4618      	mov	r0, r3
    1f02:	f7ff f91b 	bl	113c <rt_put_rdy_first>
    1f06:	4b0a      	ldr	r3, [pc, #40]	@ (1f30 <rt_dispatch+0x60>)
    1f08:	681b      	ldr	r3, [r3, #0]
    1f0a:	2201      	movs	r2, #1
    1f0c:	705a      	strb	r2, [r3, #1]
    1f0e:	6878      	ldr	r0, [r7, #4]
    1f10:	f7ff ffcc 	bl	1eac <rt_switch_req>
    1f14:	e006      	b.n	1f24 <rt_dispatch+0x54>
    1f16:	687b      	ldr	r3, [r7, #4]
    1f18:	2201      	movs	r2, #1
    1f1a:	705a      	strb	r2, [r3, #1]
    1f1c:	6879      	ldr	r1, [r7, #4]
    1f1e:	4803      	ldr	r0, [pc, #12]	@ (1f2c <rt_dispatch+0x5c>)
    1f20:	f7ff f897 	bl	1052 <rt_put_prio>
    1f24:	bf00      	nop
    1f26:	3708      	adds	r7, #8
    1f28:	46bd      	mov	sp, r7
    1f2a:	bd80      	pop	{r7, pc}
    1f2c:	20000274 	andcs	r0, r0, r4, ror r2
    1f30:	200002b4 			@ <UNDEFINED> instruction: 0x200002b4

00001f34 <rt_block>:
    1f34:	b580      	push	{r7, lr}
    1f36:	b084      	sub	sp, #16
    1f38:	af00      	add	r7, sp, #0
    1f3a:	4603      	mov	r3, r0
    1f3c:	460a      	mov	r2, r1
    1f3e:	80fb      	strh	r3, [r7, #6]
    1f40:	4613      	mov	r3, r2
    1f42:	717b      	strb	r3, [r7, #5]
    1f44:	88fb      	ldrh	r3, [r7, #6]
    1f46:	2b00      	cmp	r3, #0
    1f48:	d016      	beq.n	1f78 <rt_block+0x44>
    1f4a:	88fb      	ldrh	r3, [r7, #6]
    1f4c:	f64f 72ff 	movw	r2, #65535	@ 0xffff
    1f50:	4293      	cmp	r3, r2
    1f52:	d006      	beq.n	1f62 <rt_block+0x2e>
    1f54:	4b0a      	ldr	r3, [pc, #40]	@ (1f80 <rt_block+0x4c>)
    1f56:	681b      	ldr	r3, [r3, #0]
    1f58:	88fa      	ldrh	r2, [r7, #6]
    1f5a:	4611      	mov	r1, r2
    1f5c:	4618      	mov	r0, r3
    1f5e:	f7ff f92b 	bl	11b8 <rt_put_dly>
    1f62:	4b07      	ldr	r3, [pc, #28]	@ (1f80 <rt_block+0x4c>)
    1f64:	681b      	ldr	r3, [r3, #0]
    1f66:	797a      	ldrb	r2, [r7, #5]
    1f68:	705a      	strb	r2, [r3, #1]
    1f6a:	4806      	ldr	r0, [pc, #24]	@ (1f84 <rt_block+0x50>)
    1f6c:	f7ff f8b6 	bl	10dc <rt_get_first>
    1f70:	60f8      	str	r0, [r7, #12]
    1f72:	68f8      	ldr	r0, [r7, #12]
    1f74:	f7ff ff9a 	bl	1eac <rt_switch_req>
    1f78:	bf00      	nop
    1f7a:	3710      	adds	r7, #16
    1f7c:	46bd      	mov	sp, r7
    1f7e:	bd80      	pop	{r7, pc}
    1f80:	200002b4 			@ <UNDEFINED> instruction: 0x200002b4
    1f84:	20000274 	andcs	r0, r0, r4, ror r2

00001f88 <rt_tsk_self>:
    1f88:	b480      	push	{r7}
    1f8a:	af00      	add	r7, sp, #0
    1f8c:	4b06      	ldr	r3, [pc, #24]	@ (1fa8 <rt_tsk_self+0x20>)
    1f8e:	681b      	ldr	r3, [r3, #0]
    1f90:	2b00      	cmp	r3, #0
    1f92:	d101      	bne.n	1f98 <rt_tsk_self+0x10>
    1f94:	2300      	movs	r3, #0
    1f96:	e002      	b.n	1f9e <rt_tsk_self+0x16>
    1f98:	4b03      	ldr	r3, [pc, #12]	@ (1fa8 <rt_tsk_self+0x20>)
    1f9a:	681b      	ldr	r3, [r3, #0]
    1f9c:	78db      	ldrb	r3, [r3, #3]
    1f9e:	4618      	mov	r0, r3
    1fa0:	46bd      	mov	sp, r7
    1fa2:	bc80      	pop	{r7}
    1fa4:	4770      	bx	lr
    1fa6:	bf00      	nop
    1fa8:	200002b4 			@ <UNDEFINED> instruction: 0x200002b4

00001fac <rt_tsk_prio>:
    1fac:	b580      	push	{r7, lr}
    1fae:	b084      	sub	sp, #16
    1fb0:	af00      	add	r7, sp, #0
    1fb2:	6078      	str	r0, [r7, #4]
    1fb4:	460b      	mov	r3, r1
    1fb6:	70fb      	strb	r3, [r7, #3]
    1fb8:	687b      	ldr	r3, [r7, #4]
    1fba:	2b00      	cmp	r3, #0
    1fbc:	d11f      	bne.n	1ffe <rt_tsk_prio+0x52>
    1fbe:	4b2a      	ldr	r3, [pc, #168]	@ (2068 <rt_tsk_prio+0xbc>)
    1fc0:	681b      	ldr	r3, [r3, #0]
    1fc2:	78fa      	ldrb	r2, [r7, #3]
    1fc4:	709a      	strb	r2, [r3, #2]
    1fc6:	4b28      	ldr	r3, [pc, #160]	@ (2068 <rt_tsk_prio+0xbc>)
    1fc8:	681b      	ldr	r3, [r3, #0]
    1fca:	78fa      	ldrb	r2, [r7, #3]
    1fcc:	f883 2024 	strb.w	r2, [r3, #36]	@ 0x24
    1fd0:	e000      	b.n	1fd4 <rt_tsk_prio+0x28>
    1fd2:	bf00      	nop
    1fd4:	4b25      	ldr	r3, [pc, #148]	@ (206c <rt_tsk_prio+0xc0>)
    1fd6:	685b      	ldr	r3, [r3, #4]
    1fd8:	789b      	ldrb	r3, [r3, #2]
    1fda:	78fa      	ldrb	r2, [r7, #3]
    1fdc:	429a      	cmp	r2, r3
    1fde:	d20c      	bcs.n	1ffa <rt_tsk_prio+0x4e>
    1fe0:	4b21      	ldr	r3, [pc, #132]	@ (2068 <rt_tsk_prio+0xbc>)
    1fe2:	681b      	ldr	r3, [r3, #0]
    1fe4:	4619      	mov	r1, r3
    1fe6:	4821      	ldr	r0, [pc, #132]	@ (206c <rt_tsk_prio+0xc0>)
    1fe8:	f7ff f833 	bl	1052 <rt_put_prio>
    1fec:	4b1e      	ldr	r3, [pc, #120]	@ (2068 <rt_tsk_prio+0xbc>)
    1fee:	681b      	ldr	r3, [r3, #0]
    1ff0:	2201      	movs	r2, #1
    1ff2:	705a      	strb	r2, [r3, #1]
    1ff4:	2000      	movs	r0, #0
    1ff6:	f7ff ff6b 	bl	1ed0 <rt_dispatch>
    1ffa:	2300      	movs	r3, #0
    1ffc:	e02f      	b.n	205e <rt_tsk_prio+0xb2>
    1ffe:	4b1c      	ldr	r3, [pc, #112]	@ (2070 <rt_tsk_prio+0xc4>)
    2000:	881b      	ldrh	r3, [r3, #0]
    2002:	461a      	mov	r2, r3
    2004:	687b      	ldr	r3, [r7, #4]
    2006:	4293      	cmp	r3, r2
    2008:	d806      	bhi.n	2018 <rt_tsk_prio+0x6c>
    200a:	687b      	ldr	r3, [r7, #4]
    200c:	3b01      	subs	r3, #1
    200e:	4a19      	ldr	r2, [pc, #100]	@ (2074 <rt_tsk_prio+0xc8>)
    2010:	f852 3023 	ldr.w	r3, [r2, r3, lsl #2]
    2014:	2b00      	cmp	r3, #0
    2016:	d101      	bne.n	201c <rt_tsk_prio+0x70>
    2018:	23ff      	movs	r3, #255	@ 0xff
    201a:	e020      	b.n	205e <rt_tsk_prio+0xb2>
    201c:	687b      	ldr	r3, [r7, #4]
    201e:	3b01      	subs	r3, #1
    2020:	4a14      	ldr	r2, [pc, #80]	@ (2074 <rt_tsk_prio+0xc8>)
    2022:	f852 3023 	ldr.w	r3, [r2, r3, lsl #2]
    2026:	60fb      	str	r3, [r7, #12]
    2028:	68fb      	ldr	r3, [r7, #12]
    202a:	78fa      	ldrb	r2, [r7, #3]
    202c:	709a      	strb	r2, [r3, #2]
    202e:	68fb      	ldr	r3, [r7, #12]
    2030:	78fa      	ldrb	r2, [r7, #3]
    2032:	f883 2024 	strb.w	r2, [r3, #36]	@ 0x24
    2036:	4b0c      	ldr	r3, [pc, #48]	@ (2068 <rt_tsk_prio+0xbc>)
    2038:	681b      	ldr	r3, [r3, #0]
    203a:	68fa      	ldr	r2, [r7, #12]
    203c:	429a      	cmp	r2, r3
    203e:	d0c8      	beq.n	1fd2 <rt_tsk_prio+0x26>
    2040:	68f8      	ldr	r0, [r7, #12]
    2042:	f7ff f891 	bl	1168 <rt_resort_prio>
    2046:	68fb      	ldr	r3, [r7, #12]
    2048:	785b      	ldrb	r3, [r3, #1]
    204a:	2b01      	cmp	r3, #1
    204c:	d106      	bne.n	205c <rt_tsk_prio+0xb0>
    204e:	4807      	ldr	r0, [pc, #28]	@ (206c <rt_tsk_prio+0xc0>)
    2050:	f7ff f844 	bl	10dc <rt_get_first>
    2054:	60f8      	str	r0, [r7, #12]
    2056:	68f8      	ldr	r0, [r7, #12]
    2058:	f7ff ff3a 	bl	1ed0 <rt_dispatch>
    205c:	2300      	movs	r3, #0
    205e:	4618      	mov	r0, r3
    2060:	3710      	adds	r7, #16
    2062:	46bd      	mov	sp, r7
    2064:	bd80      	pop	{r7, pc}
    2066:	bf00      	nop
    2068:	200002b4 			@ <UNDEFINED> instruction: 0x200002b4
    206c:	20000274 	andcs	r0, r0, r4, ror r2
    2070:	00004af0 	strdeq	r4, [r0], -r0
    2074:	20000b64 	andcs	r0, r0, r4, ror #22

00002078 <rt_tsk_create>:
    2078:	b580      	push	{r7, lr}
    207a:	b086      	sub	sp, #24
    207c:	af00      	add	r7, sp, #0
    207e:	60f8      	str	r0, [r7, #12]
    2080:	60b9      	str	r1, [r7, #8]
    2082:	607a      	str	r2, [r7, #4]
    2084:	603b      	str	r3, [r7, #0]
    2086:	68bb      	ldr	r3, [r7, #8]
    2088:	b2db      	uxtb	r3, r3
    208a:	2b00      	cmp	r3, #0
    208c:	d102      	bne.n	2094 <rt_tsk_create+0x1c>
    208e:	68bb      	ldr	r3, [r7, #8]
    2090:	3301      	adds	r3, #1
    2092:	60bb      	str	r3, [r7, #8]
    2094:	481a      	ldr	r0, [pc, #104]	@ (2100 <rt_tsk_create+0x88>)
    2096:	f7ff fc0c 	bl	18b2 <rt_alloc_box>
    209a:	6178      	str	r0, [r7, #20]
    209c:	697b      	ldr	r3, [r7, #20]
    209e:	2b00      	cmp	r3, #0
    20a0:	d101      	bne.n	20a6 <rt_tsk_create+0x2e>
    20a2:	2300      	movs	r3, #0
    20a4:	e027      	b.n	20f6 <rt_tsk_create+0x7e>
    20a6:	697b      	ldr	r3, [r7, #20]
    20a8:	687a      	ldr	r2, [r7, #4]
    20aa:	62da      	str	r2, [r3, #44]	@ 0x2c
    20ac:	68bb      	ldr	r3, [r7, #8]
    20ae:	0a1b      	lsrs	r3, r3, #8
    20b0:	b29a      	uxth	r2, r3
    20b2:	697b      	ldr	r3, [r7, #20]
    20b4:	84da      	strh	r2, [r3, #38]	@ 0x26
    20b6:	697b      	ldr	r3, [r7, #20]
    20b8:	683a      	ldr	r2, [r7, #0]
    20ba:	61da      	str	r2, [r3, #28]
    20bc:	68bb      	ldr	r3, [r7, #8]
    20be:	b2db      	uxtb	r3, r3
    20c0:	68fa      	ldr	r2, [r7, #12]
    20c2:	4619      	mov	r1, r3
    20c4:	6978      	ldr	r0, [r7, #20]
    20c6:	f7ff fea9 	bl	1e1c <rt_init_context>
    20ca:	f7ff fe85 	bl	1dd8 <rt_get_TID>
    20ce:	6138      	str	r0, [r7, #16]
    20d0:	693b      	ldr	r3, [r7, #16]
    20d2:	2b00      	cmp	r3, #0
    20d4:	d101      	bne.n	20da <rt_tsk_create+0x62>
    20d6:	2300      	movs	r3, #0
    20d8:	e00d      	b.n	20f6 <rt_tsk_create+0x7e>
    20da:	693b      	ldr	r3, [r7, #16]
    20dc:	3b01      	subs	r3, #1
    20de:	4909      	ldr	r1, [pc, #36]	@ (2104 <rt_tsk_create+0x8c>)
    20e0:	697a      	ldr	r2, [r7, #20]
    20e2:	f841 2023 	str.w	r2, [r1, r3, lsl #2]
    20e6:	693b      	ldr	r3, [r7, #16]
    20e8:	b2da      	uxtb	r2, r3
    20ea:	697b      	ldr	r3, [r7, #20]
    20ec:	70da      	strb	r2, [r3, #3]
    20ee:	6978      	ldr	r0, [r7, #20]
    20f0:	f7ff feee 	bl	1ed0 <rt_dispatch>
    20f4:	693b      	ldr	r3, [r7, #16]
    20f6:	4618      	mov	r0, r3
    20f8:	3718      	adds	r7, #24
    20fa:	46bd      	mov	sp, r7
    20fc:	bd80      	pop	{r7, pc}
    20fe:	bf00      	nop
    2100:	200002f4 	strdcs	r0, [r0], -r4
    2104:	20000b64 	andcs	r0, r0, r4, ror #22

00002108 <rt_tsk_delete>:
    2108:	b590      	push	{r4, r7, lr}
    210a:	b087      	sub	sp, #28
    210c:	af00      	add	r7, sp, #0
    210e:	6078      	str	r0, [r7, #4]
    2110:	687b      	ldr	r3, [r7, #4]
    2112:	2b00      	cmp	r3, #0
    2114:	d006      	beq.n	2124 <rt_tsk_delete+0x1c>
    2116:	4b7c      	ldr	r3, [pc, #496]	@ (2308 <rt_tsk_delete+0x200>)
    2118:	681b      	ldr	r3, [r3, #0]
    211a:	78db      	ldrb	r3, [r3, #3]
    211c:	461a      	mov	r2, r3
    211e:	687b      	ldr	r3, [r7, #4]
    2120:	4293      	cmp	r3, r2
    2122:	d16a      	bne.n	21fa <rt_tsk_delete+0xf2>
    2124:	4b78      	ldr	r3, [pc, #480]	@ (2308 <rt_tsk_delete+0x200>)
    2126:	681b      	ldr	r3, [r3, #0]
    2128:	2200      	movs	r2, #0
    212a:	705a      	strb	r2, [r3, #1]
    212c:	4b76      	ldr	r3, [pc, #472]	@ (2308 <rt_tsk_delete+0x200>)
    212e:	681c      	ldr	r4, [r3, #0]
    2130:	f000 fa1b 	bl	256a <rt_get_PSP>
    2134:	4603      	mov	r3, r0
    2136:	62a3      	str	r3, [r4, #40]	@ 0x28
    2138:	f7ff fdf6 	bl	1d28 <rt_stk_check>
    213c:	4b72      	ldr	r3, [pc, #456]	@ (2308 <rt_tsk_delete+0x200>)
    213e:	681b      	ldr	r3, [r3, #0]
    2140:	6a1b      	ldr	r3, [r3, #32]
    2142:	617b      	str	r3, [r7, #20]
    2144:	e036      	b.n	21b4 <rt_tsk_delete+0xac>
    2146:	697b      	ldr	r3, [r7, #20]
    2148:	685b      	ldr	r3, [r3, #4]
    214a:	2b00      	cmp	r3, #0
    214c:	d024      	beq.n	2198 <rt_tsk_delete+0x90>
    214e:	6978      	ldr	r0, [r7, #20]
    2150:	f7fe ffc4 	bl	10dc <rt_get_first>
    2154:	60b8      	str	r0, [r7, #8]
    2156:	2100      	movs	r1, #0
    2158:	68b8      	ldr	r0, [r7, #8]
    215a:	f7fe fa01 	bl	560 <rt_ret_val>
    215e:	68b8      	ldr	r0, [r7, #8]
    2160:	f7ff f926 	bl	13b0 <rt_rmv_dly>
    2164:	68bb      	ldr	r3, [r7, #8]
    2166:	2201      	movs	r2, #1
    2168:	705a      	strb	r2, [r3, #1]
    216a:	68b9      	ldr	r1, [r7, #8]
    216c:	4867      	ldr	r0, [pc, #412]	@ (230c <rt_tsk_delete+0x204>)
    216e:	f7fe ff70 	bl	1052 <rt_put_prio>
    2172:	697b      	ldr	r3, [r7, #20]
    2174:	68db      	ldr	r3, [r3, #12]
    2176:	60fb      	str	r3, [r7, #12]
    2178:	697b      	ldr	r3, [r7, #20]
    217a:	2201      	movs	r2, #1
    217c:	805a      	strh	r2, [r3, #2]
    217e:	697b      	ldr	r3, [r7, #20]
    2180:	68ba      	ldr	r2, [r7, #8]
    2182:	609a      	str	r2, [r3, #8]
    2184:	68bb      	ldr	r3, [r7, #8]
    2186:	6a1a      	ldr	r2, [r3, #32]
    2188:	697b      	ldr	r3, [r7, #20]
    218a:	60da      	str	r2, [r3, #12]
    218c:	68bb      	ldr	r3, [r7, #8]
    218e:	697a      	ldr	r2, [r7, #20]
    2190:	621a      	str	r2, [r3, #32]
    2192:	68fb      	ldr	r3, [r7, #12]
    2194:	617b      	str	r3, [r7, #20]
    2196:	e00d      	b.n	21b4 <rt_tsk_delete+0xac>
    2198:	697b      	ldr	r3, [r7, #20]
    219a:	68db      	ldr	r3, [r3, #12]
    219c:	60fb      	str	r3, [r7, #12]
    219e:	697b      	ldr	r3, [r7, #20]
    21a0:	2200      	movs	r2, #0
    21a2:	805a      	strh	r2, [r3, #2]
    21a4:	697b      	ldr	r3, [r7, #20]
    21a6:	2200      	movs	r2, #0
    21a8:	609a      	str	r2, [r3, #8]
    21aa:	697b      	ldr	r3, [r7, #20]
    21ac:	2200      	movs	r2, #0
    21ae:	60da      	str	r2, [r3, #12]
    21b0:	68fb      	ldr	r3, [r7, #12]
    21b2:	617b      	str	r3, [r7, #20]
    21b4:	697b      	ldr	r3, [r7, #20]
    21b6:	2b00      	cmp	r3, #0
    21b8:	d1c5      	bne.n	2146 <rt_tsk_delete+0x3e>
    21ba:	4b53      	ldr	r3, [pc, #332]	@ (2308 <rt_tsk_delete+0x200>)
    21bc:	681b      	ldr	r3, [r3, #0]
    21be:	78db      	ldrb	r3, [r3, #3]
    21c0:	3b01      	subs	r3, #1
    21c2:	4a53      	ldr	r2, [pc, #332]	@ (2310 <rt_tsk_delete+0x208>)
    21c4:	2100      	movs	r1, #0
    21c6:	f842 1023 	str.w	r1, [r2, r3, lsl #2]
    21ca:	4b4f      	ldr	r3, [pc, #316]	@ (2308 <rt_tsk_delete+0x200>)
    21cc:	681b      	ldr	r3, [r3, #0]
    21ce:	6adb      	ldr	r3, [r3, #44]	@ 0x2c
    21d0:	4619      	mov	r1, r3
    21d2:	4850      	ldr	r0, [pc, #320]	@ (2314 <rt_tsk_delete+0x20c>)
    21d4:	f7ff fb8e 	bl	18f4 <rt_free_box>
    21d8:	4b4b      	ldr	r3, [pc, #300]	@ (2308 <rt_tsk_delete+0x200>)
    21da:	681b      	ldr	r3, [r3, #0]
    21dc:	2200      	movs	r2, #0
    21de:	62da      	str	r2, [r3, #44]	@ 0x2c
    21e0:	4b49      	ldr	r3, [pc, #292]	@ (2308 <rt_tsk_delete+0x200>)
    21e2:	681b      	ldr	r3, [r3, #0]
    21e4:	4619      	mov	r1, r3
    21e6:	484c      	ldr	r0, [pc, #304]	@ (2318 <rt_tsk_delete+0x210>)
    21e8:	f7ff fb84 	bl	18f4 <rt_free_box>
    21ec:	4b46      	ldr	r3, [pc, #280]	@ (2308 <rt_tsk_delete+0x200>)
    21ee:	2200      	movs	r2, #0
    21f0:	601a      	str	r2, [r3, #0]
    21f2:	2000      	movs	r0, #0
    21f4:	f7ff fe6c 	bl	1ed0 <rt_dispatch>
    21f8:	e080      	b.n	22fc <rt_tsk_delete+0x1f4>
    21fa:	4b48      	ldr	r3, [pc, #288]	@ (231c <rt_tsk_delete+0x214>)
    21fc:	881b      	ldrh	r3, [r3, #0]
    21fe:	461a      	mov	r2, r3
    2200:	687b      	ldr	r3, [r7, #4]
    2202:	4293      	cmp	r3, r2
    2204:	d806      	bhi.n	2214 <rt_tsk_delete+0x10c>
    2206:	687b      	ldr	r3, [r7, #4]
    2208:	3b01      	subs	r3, #1
    220a:	4a41      	ldr	r2, [pc, #260]	@ (2310 <rt_tsk_delete+0x208>)
    220c:	f852 3023 	ldr.w	r3, [r2, r3, lsl #2]
    2210:	2b00      	cmp	r3, #0
    2212:	d101      	bne.n	2218 <rt_tsk_delete+0x110>
    2214:	23ff      	movs	r3, #255	@ 0xff
    2216:	e072      	b.n	22fe <rt_tsk_delete+0x1f6>
    2218:	687b      	ldr	r3, [r7, #4]
    221a:	3b01      	subs	r3, #1
    221c:	4a3c      	ldr	r2, [pc, #240]	@ (2310 <rt_tsk_delete+0x208>)
    221e:	f852 3023 	ldr.w	r3, [r2, r3, lsl #2]
    2222:	613b      	str	r3, [r7, #16]
    2224:	6938      	ldr	r0, [r7, #16]
    2226:	f7ff f891 	bl	134c <rt_rmv_list>
    222a:	6938      	ldr	r0, [r7, #16]
    222c:	f7ff f8c0 	bl	13b0 <rt_rmv_dly>
    2230:	693b      	ldr	r3, [r7, #16]
    2232:	6a1b      	ldr	r3, [r3, #32]
    2234:	617b      	str	r3, [r7, #20]
    2236:	e036      	b.n	22a6 <rt_tsk_delete+0x19e>
    2238:	697b      	ldr	r3, [r7, #20]
    223a:	685b      	ldr	r3, [r3, #4]
    223c:	2b00      	cmp	r3, #0
    223e:	d024      	beq.n	228a <rt_tsk_delete+0x182>
    2240:	6978      	ldr	r0, [r7, #20]
    2242:	f7fe ff4b 	bl	10dc <rt_get_first>
    2246:	60b8      	str	r0, [r7, #8]
    2248:	2100      	movs	r1, #0
    224a:	68b8      	ldr	r0, [r7, #8]
    224c:	f7fe f988 	bl	560 <rt_ret_val>
    2250:	68b8      	ldr	r0, [r7, #8]
    2252:	f7ff f8ad 	bl	13b0 <rt_rmv_dly>
    2256:	68bb      	ldr	r3, [r7, #8]
    2258:	2201      	movs	r2, #1
    225a:	705a      	strb	r2, [r3, #1]
    225c:	68b9      	ldr	r1, [r7, #8]
    225e:	482b      	ldr	r0, [pc, #172]	@ (230c <rt_tsk_delete+0x204>)
    2260:	f7fe fef7 	bl	1052 <rt_put_prio>
    2264:	697b      	ldr	r3, [r7, #20]
    2266:	68db      	ldr	r3, [r3, #12]
    2268:	60fb      	str	r3, [r7, #12]
    226a:	697b      	ldr	r3, [r7, #20]
    226c:	2201      	movs	r2, #1
    226e:	805a      	strh	r2, [r3, #2]
    2270:	697b      	ldr	r3, [r7, #20]
    2272:	68ba      	ldr	r2, [r7, #8]
    2274:	609a      	str	r2, [r3, #8]
    2276:	68bb      	ldr	r3, [r7, #8]
    2278:	6a1a      	ldr	r2, [r3, #32]
    227a:	697b      	ldr	r3, [r7, #20]
    227c:	60da      	str	r2, [r3, #12]
    227e:	68bb      	ldr	r3, [r7, #8]
    2280:	697a      	ldr	r2, [r7, #20]
    2282:	621a      	str	r2, [r3, #32]
    2284:	68fb      	ldr	r3, [r7, #12]
    2286:	617b      	str	r3, [r7, #20]
    2288:	e00d      	b.n	22a6 <rt_tsk_delete+0x19e>
    228a:	697b      	ldr	r3, [r7, #20]
    228c:	68db      	ldr	r3, [r3, #12]
    228e:	60fb      	str	r3, [r7, #12]
    2290:	697b      	ldr	r3, [r7, #20]
    2292:	2200      	movs	r2, #0
    2294:	805a      	strh	r2, [r3, #2]
    2296:	697b      	ldr	r3, [r7, #20]
    2298:	2200      	movs	r2, #0
    229a:	609a      	str	r2, [r3, #8]
    229c:	697b      	ldr	r3, [r7, #20]
    229e:	2200      	movs	r2, #0
    22a0:	60da      	str	r2, [r3, #12]
    22a2:	68fb      	ldr	r3, [r7, #12]
    22a4:	617b      	str	r3, [r7, #20]
    22a6:	697b      	ldr	r3, [r7, #20]
    22a8:	2b00      	cmp	r3, #0
    22aa:	d1c5      	bne.n	2238 <rt_tsk_delete+0x130>
    22ac:	687b      	ldr	r3, [r7, #4]
    22ae:	3b01      	subs	r3, #1
    22b0:	4a17      	ldr	r2, [pc, #92]	@ (2310 <rt_tsk_delete+0x208>)
    22b2:	2100      	movs	r1, #0
    22b4:	f842 1023 	str.w	r1, [r2, r3, lsl #2]
    22b8:	693b      	ldr	r3, [r7, #16]
    22ba:	6adb      	ldr	r3, [r3, #44]	@ 0x2c
    22bc:	4619      	mov	r1, r3
    22be:	4815      	ldr	r0, [pc, #84]	@ (2314 <rt_tsk_delete+0x20c>)
    22c0:	f7ff fb18 	bl	18f4 <rt_free_box>
    22c4:	693b      	ldr	r3, [r7, #16]
    22c6:	2200      	movs	r2, #0
    22c8:	62da      	str	r2, [r3, #44]	@ 0x2c
    22ca:	6939      	ldr	r1, [r7, #16]
    22cc:	4812      	ldr	r0, [pc, #72]	@ (2318 <rt_tsk_delete+0x210>)
    22ce:	f7ff fb11 	bl	18f4 <rt_free_box>
    22d2:	4b0e      	ldr	r3, [pc, #56]	@ (230c <rt_tsk_delete+0x204>)
    22d4:	685b      	ldr	r3, [r3, #4]
    22d6:	789a      	ldrb	r2, [r3, #2]
    22d8:	4b0b      	ldr	r3, [pc, #44]	@ (2308 <rt_tsk_delete+0x200>)
    22da:	681b      	ldr	r3, [r3, #0]
    22dc:	789b      	ldrb	r3, [r3, #2]
    22de:	429a      	cmp	r2, r3
    22e0:	d90c      	bls.n	22fc <rt_tsk_delete+0x1f4>
    22e2:	4b09      	ldr	r3, [pc, #36]	@ (2308 <rt_tsk_delete+0x200>)
    22e4:	681b      	ldr	r3, [r3, #0]
    22e6:	2201      	movs	r2, #1
    22e8:	705a      	strb	r2, [r3, #1]
    22ea:	4b07      	ldr	r3, [pc, #28]	@ (2308 <rt_tsk_delete+0x200>)
    22ec:	681b      	ldr	r3, [r3, #0]
    22ee:	4619      	mov	r1, r3
    22f0:	4806      	ldr	r0, [pc, #24]	@ (230c <rt_tsk_delete+0x204>)
    22f2:	f7fe feae 	bl	1052 <rt_put_prio>
    22f6:	2000      	movs	r0, #0
    22f8:	f7ff fdea 	bl	1ed0 <rt_dispatch>
    22fc:	2300      	movs	r3, #0
    22fe:	4618      	mov	r0, r3
    2300:	371c      	adds	r7, #28
    2302:	46bd      	mov	sp, r7
    2304:	bd90      	pop	{r4, r7, pc}
    2306:	bf00      	nop
    2308:	200002b4 			@ <UNDEFINED> instruction: 0x200002b4
    230c:	20000274 	andcs	r0, r0, r4, ror r2
    2310:	20000b64 	andcs	r0, r0, r4, ror #22
    2314:	20000470 	andcs	r0, r0, r0, ror r4
    2318:	200002f4 	strdcs	r0, [r0], -r4
    231c:	00004af0 	strdeq	r4, [r0], -r0

00002320 <rt_sys_init>:
    2320:	b580      	push	{r7, lr}
    2322:	b082      	sub	sp, #8
    2324:	af00      	add	r7, sp, #0
    2326:	2300      	movs	r3, #0
    2328:	607b      	str	r3, [r7, #4]
    232a:	e007      	b.n	233c <rt_sys_init+0x1c>
    232c:	4a2e      	ldr	r2, [pc, #184]	@ (23e8 <rt_sys_init+0xc8>)
    232e:	687b      	ldr	r3, [r7, #4]
    2330:	2100      	movs	r1, #0
    2332:	f842 1023 	str.w	r1, [r2, r3, lsl #2]
    2336:	687b      	ldr	r3, [r7, #4]
    2338:	3301      	adds	r3, #1
    233a:	607b      	str	r3, [r7, #4]
    233c:	4b2b      	ldr	r3, [pc, #172]	@ (23ec <rt_sys_init+0xcc>)
    233e:	881b      	ldrh	r3, [r3, #0]
    2340:	461a      	mov	r2, r3
    2342:	687b      	ldr	r3, [r7, #4]
    2344:	4293      	cmp	r3, r2
    2346:	d3f1      	bcc.n	232c <rt_sys_init+0xc>
    2348:	4b29      	ldr	r3, [pc, #164]	@ (23f0 <rt_sys_init+0xd0>)
    234a:	881b      	ldrh	r3, [r3, #0]
    234c:	2234      	movs	r2, #52	@ 0x34
    234e:	4619      	mov	r1, r3
    2350:	4828      	ldr	r0, [pc, #160]	@ (23f4 <rt_sys_init+0xd4>)
    2352:	f7ff fa59 	bl	1808 <_init_box>
    2356:	4b28      	ldr	r3, [pc, #160]	@ (23f8 <rt_sys_init+0xd8>)
    2358:	681b      	ldr	r3, [r3, #0]
    235a:	4a28      	ldr	r2, [pc, #160]	@ (23fc <rt_sys_init+0xdc>)
    235c:	6812      	ldr	r2, [r2, #0]
    235e:	b292      	uxth	r2, r2
    2360:	f042 4200 	orr.w	r2, r2, #2147483648	@ 0x80000000
    2364:	4619      	mov	r1, r3
    2366:	4826      	ldr	r0, [pc, #152]	@ (2400 <rt_sys_init+0xe0>)
    2368:	f7ff fa4e 	bl	1808 <_init_box>
    236c:	4b25      	ldr	r3, [pc, #148]	@ (2404 <rt_sys_init+0xe4>)
    236e:	681b      	ldr	r3, [r3, #0]
    2370:	4a25      	ldr	r2, [pc, #148]	@ (2408 <rt_sys_init+0xe8>)
    2372:	8812      	ldrh	r2, [r2, #0]
    2374:	4611      	mov	r1, r2
    2376:	2208      	movs	r2, #8
    2378:	4618      	mov	r0, r3
    237a:	f7ff fa45 	bl	1808 <_init_box>
    237e:	4b23      	ldr	r3, [pc, #140]	@ (240c <rt_sys_init+0xec>)
    2380:	22ff      	movs	r2, #255	@ 0xff
    2382:	70da      	strb	r2, [r3, #3]
    2384:	4b21      	ldr	r3, [pc, #132]	@ (240c <rt_sys_init+0xec>)
    2386:	2200      	movs	r2, #0
    2388:	84da      	strh	r2, [r3, #38]	@ 0x26
    238a:	4a21      	ldr	r2, [pc, #132]	@ (2410 <rt_sys_init+0xf0>)
    238c:	2100      	movs	r1, #0
    238e:	481f      	ldr	r0, [pc, #124]	@ (240c <rt_sys_init+0xec>)
    2390:	f7ff fd44 	bl	1e1c <rt_init_context>
    2394:	4b1f      	ldr	r3, [pc, #124]	@ (2414 <rt_sys_init+0xf4>)
    2396:	2204      	movs	r2, #4
    2398:	701a      	strb	r2, [r3, #0]
    239a:	4b1e      	ldr	r3, [pc, #120]	@ (2414 <rt_sys_init+0xf4>)
    239c:	2200      	movs	r2, #0
    239e:	605a      	str	r2, [r3, #4]
    23a0:	4b1d      	ldr	r3, [pc, #116]	@ (2418 <rt_sys_init+0xf8>)
    23a2:	2204      	movs	r2, #4
    23a4:	701a      	strb	r2, [r3, #0]
    23a6:	4b1c      	ldr	r3, [pc, #112]	@ (2418 <rt_sys_init+0xf8>)
    23a8:	2200      	movs	r2, #0
    23aa:	60da      	str	r2, [r3, #12]
    23ac:	4b1a      	ldr	r3, [pc, #104]	@ (2418 <rt_sys_init+0xf8>)
    23ae:	2200      	movs	r2, #0
    23b0:	611a      	str	r2, [r3, #16]
    23b2:	4b19      	ldr	r3, [pc, #100]	@ (2418 <rt_sys_init+0xf8>)
    23b4:	2200      	movs	r2, #0
    23b6:	829a      	strh	r2, [r3, #20]
    23b8:	4b18      	ldr	r3, [pc, #96]	@ (241c <rt_sys_init+0xfc>)
    23ba:	4a14      	ldr	r2, [pc, #80]	@ (240c <rt_sys_init+0xec>)
    23bc:	601a      	str	r2, [r3, #0]
    23be:	4b17      	ldr	r3, [pc, #92]	@ (241c <rt_sys_init+0xfc>)
    23c0:	681b      	ldr	r3, [r3, #0]
    23c2:	2202      	movs	r2, #2
    23c4:	705a      	strb	r2, [r3, #1]
    23c6:	4b16      	ldr	r3, [pc, #88]	@ (2420 <rt_sys_init+0x100>)
    23c8:	2200      	movs	r2, #0
    23ca:	701a      	strb	r2, [r3, #0]
    23cc:	4b14      	ldr	r3, [pc, #80]	@ (2420 <rt_sys_init+0x100>)
    23ce:	2200      	movs	r2, #0
    23d0:	705a      	strb	r2, [r3, #1]
    23d2:	4b13      	ldr	r3, [pc, #76]	@ (2420 <rt_sys_init+0x100>)
    23d4:	4a13      	ldr	r2, [pc, #76]	@ (2424 <rt_sys_init+0x104>)
    23d6:	7812      	ldrb	r2, [r2, #0]
    23d8:	70da      	strb	r2, [r3, #3]
    23da:	f7ff fb5f 	bl	1a9c <rt_init_robin>
    23de:	bf00      	nop
    23e0:	3708      	adds	r7, #8
    23e2:	46bd      	mov	sp, r7
    23e4:	bd80      	pop	{r7, pc}
    23e6:	bf00      	nop
    23e8:	20000b64 	andcs	r0, r0, r4, ror #22
    23ec:	00004af0 	strdeq	r4, [r0], -r0
    23f0:	00004b08 	andeq	r4, r0, r8, lsl #22
    23f4:	200002f4 	strdcs	r0, [r0], -r4
    23f8:	00004b0c 	andeq	r4, r0, ip, lsl #22
    23fc:	00004af4 	strdeq	r4, [r0], -r4	@ <UNPREDICTABLE>
    2400:	20000470 	andcs	r0, r0, r0, ror r4
    2404:	20000ba8 	andcs	r0, r0, r8, lsr #23
    2408:	00004b30 	andeq	r4, r0, r0, lsr fp
    240c:	200002bc 			@ <UNDEFINED> instruction: 0x200002bc
    2410:	00002499 	muleq	r0, r9, r4
    2414:	20000274 	andcs	r0, r0, r4, ror r2
    2418:	2000028c 	andcs	r0, r0, ip, lsl #5
    241c:	200002b4 			@ <UNDEFINED> instruction: 0x200002b4
    2420:	20000ae0 	andcs	r0, r0, r0, ror #21
    2424:	00004b14 	andeq	r4, r0, r4, lsl fp

00002428 <rt_sys_start>:
    2428:	b580      	push	{r7, lr}
    242a:	af00      	add	r7, sp, #0
    242c:	f7ff fc96 	bl	1d5c <rt_svc_init>
    2430:	f7ff fc44 	bl	1cbc <os_tick_init>
    2434:	4603      	mov	r3, r0
    2436:	4a10      	ldr	r2, [pc, #64]	@ (2478 <rt_sys_start+0x50>)
    2438:	6013      	str	r3, [r2, #0]
    243a:	4b0f      	ldr	r3, [pc, #60]	@ (2478 <rt_sys_start+0x50>)
    243c:	681b      	ldr	r3, [r3, #0]
    243e:	2b00      	cmp	r3, #0
    2440:	db17      	blt.n	2472 <rt_sys_start+0x4a>
    2442:	4b0d      	ldr	r3, [pc, #52]	@ (2478 <rt_sys_start+0x50>)
    2444:	681b      	ldr	r3, [r3, #0]
    2446:	f103 4360 	add.w	r3, r3, #3758096384	@ 0xe0000000
    244a:	f503 4364 	add.w	r3, r3, #58368	@ 0xe400
    244e:	22ff      	movs	r2, #255	@ 0xff
    2450:	701a      	strb	r2, [r3, #0]
    2452:	4b09      	ldr	r3, [pc, #36]	@ (2478 <rt_sys_start+0x50>)
    2454:	681b      	ldr	r3, [r3, #0]
    2456:	f003 021f 	and.w	r2, r3, #31
    245a:	4b07      	ldr	r3, [pc, #28]	@ (2478 <rt_sys_start+0x50>)
    245c:	681b      	ldr	r3, [r3, #0]
    245e:	095b      	lsrs	r3, r3, #5
    2460:	009b      	lsls	r3, r3, #2
    2462:	f103 4360 	add.w	r3, r3, #3758096384	@ 0xe0000000
    2466:	f503 4361 	add.w	r3, r3, #57600	@ 0xe100
    246a:	2101      	movs	r1, #1
    246c:	fa01 f202 	lsl.w	r2, r1, r2
    2470:	601a      	str	r2, [r3, #0]
    2472:	bf00      	nop
    2474:	bd80      	pop	{r7, pc}
    2476:	bf00      	nop
    2478:	200002ac 	andcs	r0, r0, ip, lsr #5

0000247c <rt_dly_wait>:
    247c:	b580      	push	{r7, lr}
    247e:	b082      	sub	sp, #8
    2480:	af00      	add	r7, sp, #0
    2482:	4603      	mov	r3, r0
    2484:	80fb      	strh	r3, [r7, #6]
    2486:	88fb      	ldrh	r3, [r7, #6]
    2488:	2103      	movs	r1, #3
    248a:	4618      	mov	r0, r3
    248c:	f7ff fd52 	bl	1f34 <rt_block>
    2490:	bf00      	nop
    2492:	3708      	adds	r7, #8
    2494:	46bd      	mov	sp, r7
    2496:	bd80      	pop	{r7, pc}

00002498 <os_idle_demon>:
    2498:	b480      	push	{r7}
    249a:	af00      	add	r7, sp, #0
    249c:	bf00      	nop
    249e:	e7fd      	b.n	249c <os_idle_demon+0x4>

000024a0 <os_error>:
    24a0:	b480      	push	{r7}
    24a2:	b083      	sub	sp, #12
    24a4:	af00      	add	r7, sp, #0
    24a6:	6078      	str	r0, [r7, #4]
    24a8:	687b      	ldr	r3, [r7, #4]
    24aa:	3b01      	subs	r3, #1
    24ac:	2b03      	cmp	r3, #3
    24ae:	d80b      	bhi.n	24c8 <os_error+0x28>
    24b0:	a201      	add	r2, pc, #4	@ (adr r2, 24b8 <os_error+0x18>)
    24b2:	f852 f023 	ldr.w	pc, [r2, r3, lsl #2]
    24b6:	bf00      	nop
    24b8:	000024c9 	andeq	r2, r0, r9, asr #9
    24bc:	000024c9 	andeq	r2, r0, r9, asr #9
    24c0:	000024c9 	andeq	r2, r0, r9, asr #9
    24c4:	000024c9 	andeq	r2, r0, r9, asr #9
    24c8:	bf00      	nop
    24ca:	bf00      	nop
    24cc:	e7fd      	b.n	24ca <os_error+0x2a>
    24ce:	bf00      	nop

000024d0 <ThreadA>:
    24d0:	b580      	push	{r7, lr}
    24d2:	b084      	sub	sp, #16
    24d4:	af00      	add	r7, sp, #0
    24d6:	6078      	str	r0, [r7, #4]
    24d8:	2364      	movs	r3, #100	@ 0x64
    24da:	60fb      	str	r3, [r7, #12]
    24dc:	e008      	b.n	24f0 <ThreadA+0x20>
    24de:	4808      	ldr	r0, [pc, #32]	@ (2500 <ThreadA+0x30>)
    24e0:	f7fd ff9a 	bl	418 <printString>
    24e4:	2001      	movs	r0, #1
    24e6:	f7fe faf3 	bl	ad0 <osDelay>
    24ea:	68fb      	ldr	r3, [r7, #12]
    24ec:	3b01      	subs	r3, #1
    24ee:	60fb      	str	r3, [r7, #12]
    24f0:	68fb      	ldr	r3, [r7, #12]
    24f2:	2b00      	cmp	r3, #0
    24f4:	d1f3      	bne.n	24de <ThreadA+0xe>
    24f6:	bf00      	nop
    24f8:	bf00      	nop
    24fa:	3710      	adds	r7, #16
    24fc:	46bd      	mov	sp, r7
    24fe:	bd80      	pop	{r7, pc}
    2500:	00004b34 	andeq	r4, r0, r4, lsr fp

00002504 <createThread>:
    2504:	b580      	push	{r7, lr}
    2506:	af00      	add	r7, sp, #0
    2508:	2100      	movs	r1, #0
    250a:	4809      	ldr	r0, [pc, #36]	@ (2530 <createThread+0x2c>)
    250c:	f7fe fa86 	bl	a1c <osThreadCreate>
    2510:	4603      	mov	r3, r0
    2512:	4a08      	ldr	r2, [pc, #32]	@ (2534 <createThread+0x30>)
    2514:	6013      	str	r3, [r2, #0]
    2516:	4b07      	ldr	r3, [pc, #28]	@ (2534 <createThread+0x30>)
    2518:	681b      	ldr	r3, [r3, #0]
    251a:	2b00      	cmp	r3, #0
    251c:	d105      	bne.n	252a <createThread+0x26>
    251e:	4806      	ldr	r0, [pc, #24]	@ (2538 <createThread+0x34>)
    2520:	f7fd ff7a 	bl	418 <printString>
    2524:	f04f 33ff 	mov.w	r3, #4294967295	@ 0xffffffff
    2528:	e000      	b.n	252c <createThread+0x28>
    252a:	2300      	movs	r3, #0
    252c:	4618      	mov	r0, r3
    252e:	bd80      	pop	{r7, pc}
    2530:	00004b7c 	andeq	r4, r0, ip, ror fp
    2534:	20000bac 	andcs	r0, r0, ip, lsr #23
    2538:	00004b58 	andeq	r4, r0, r8, asr fp

0000253c <main>:
    253c:	b580      	push	{r7, lr}
    253e:	af00      	add	r7, sp, #0
    2540:	4807      	ldr	r0, [pc, #28]	@ (2560 <main+0x24>)
    2542:	f7fd ff69 	bl	418 <printString>
    2546:	f7fe f91d 	bl	784 <osKernelInitialize>
    254a:	f7ff ffdb 	bl	2504 <createThread>
    254e:	4603      	mov	r3, r0
    2550:	2b00      	cmp	r3, #0
    2552:	d101      	bne.n	2558 <main+0x1c>
    2554:	f7fe f938 	bl	7c8 <osKernelStart>
    2558:	2300      	movs	r3, #0
    255a:	4618      	mov	r0, r3
    255c:	bd80      	pop	{r7, pc}
    255e:	bf00      	nop
    2560:	00004b74 	andeq	r4, r0, r4, ror fp

00002564 <rt_set_PSP>:
    2564:	f380 8809 	msr	PSP, r0
    2568:	4770      	bx	lr

0000256a <rt_get_PSP>:
    256a:	f3ef 8009 	mrs	r0, PSP
    256e:	4770      	bx	lr

00002570 <os_set_env>:
    2570:	4668      	mov	r0, sp
    2572:	f380 8809 	msr	PSP, r0
    2576:	483f      	ldr	r0, [pc, #252]	@ (2674 <OS_Tick_Handler+0xc>)
    2578:	7800      	ldrb	r0, [r0, #0]
    257a:	07c0      	lsls	r0, r0, #31
    257c:	bf14      	ite	ne
    257e:	2002      	movne	r0, #2
    2580:	2003      	moveq	r0, #3
    2582:	f380 8814 	msr	CONTROL, r0
    2586:	4770      	bx	lr

00002588 <_alloc_box>:
    2588:	f8df c0ec 	ldr.w	ip, [pc, #236]	@ 2678 <OS_Tick_Handler+0x10>
    258c:	f3ef 8305 	mrs	r3, IPSR
    2590:	061b      	lsls	r3, r3, #24
    2592:	bf18      	it	ne
    2594:	4760      	bxne	ip
    2596:	f3ef 8314 	mrs	r3, CONTROL
    259a:	07db      	lsls	r3, r3, #31
    259c:	bf08      	it	eq
    259e:	4760      	bxeq	ip
    25a0:	df00      	svc	0
    25a2:	4770      	bx	lr

000025a4 <_free_box>:
    25a4:	f8df c0d4 	ldr.w	ip, [pc, #212]	@ 267c <OS_Tick_Handler+0x14>
    25a8:	f3ef 8305 	mrs	r3, IPSR
    25ac:	061b      	lsls	r3, r3, #24
    25ae:	bf18      	it	ne
    25b0:	4760      	bxne	ip
    25b2:	f3ef 8314 	mrs	r3, CONTROL
    25b6:	07db      	lsls	r3, r3, #31
    25b8:	bf08      	it	eq
    25ba:	4760      	bxeq	ip
    25bc:	df00      	svc	0
    25be:	4770      	bx	lr

000025c0 <SVC_Handler>:
    25c0:	f3ef 8009 	mrs	r0, PSP
    25c4:	6981      	ldr	r1, [r0, #24]
    25c6:	f811 1c02 	ldrb.w	r1, [r1, #-2]
    25ca:	b9f1      	cbnz	r1, 260a <SVC_User>
    25cc:	e890 100f 	ldmia.w	r0, {r0, r1, r2, r3, ip}
    25d0:	47e0      	blx	ip
    25d2:	f3ef 8c09 	mrs	ip, PSP
    25d6:	e88c 0007 	stmia.w	ip, {r0, r1, r2}
    25da:	4b29      	ldr	r3, [pc, #164]	@ (2680 <OS_Tick_Handler+0x18>)
    25dc:	e893 0006 	ldmia.w	r3, {r1, r2}
    25e0:	4291      	cmp	r1, r2
    25e2:	d00f      	beq.n	2604 <SVC_Exit>
    25e4:	b139      	cbz	r1, 25f6 <SVC_Next>
    25e6:	e92c 0ff0 	stmdb	ip!, {r4, r5, r6, r7, r8, r9, sl, fp}
    25ea:	f8c1 c028 	str.w	ip, [r1, #40]	@ 0x28
    25ee:	b40c      	push	{r2, r3}
    25f0:	f7ff fb9a 	bl	1d28 <rt_stk_check>
    25f4:	bc0c      	pop	{r2, r3}

000025f6 <SVC_Next>:
    25f6:	601a      	str	r2, [r3, #0]
    25f8:	f8d2 c028 	ldr.w	ip, [r2, #40]	@ 0x28
    25fc:	e8bc 0ff0 	ldmia.w	ip!, {r4, r5, r6, r7, r8, r9, sl, fp}
    2600:	f38c 8809 	msr	PSP, ip

00002604 <SVC_Exit>:
    2604:	f06f 0e02 	mvn.w	lr, #2
    2608:	4770      	bx	lr

0000260a <SVC_User>:
    260a:	b510      	push	{r4, lr}
    260c:	4a1d      	ldr	r2, [pc, #116]	@ (2684 <OS_Tick_Handler+0x1c>)
    260e:	6812      	ldr	r2, [r2, #0]
    2610:	4291      	cmp	r1, r2
    2612:	d809      	bhi.n	2628 <SVC_Done>
    2614:	4c1c      	ldr	r4, [pc, #112]	@ (2688 <OS_Tick_Handler+0x20>)
    2616:	f854 4021 	ldr.w	r4, [r4, r1, lsl #2]
    261a:	e890 100f 	ldmia.w	r0, {r0, r1, r2, r3, ip}
    261e:	47a0      	blx	r4
    2620:	f3ef 8c09 	mrs	ip, PSP
    2624:	e88c 000f 	stmia.w	ip, {r0, r1, r2, r3}

00002628 <SVC_Done>:
    2628:	bd10      	pop	{r4, pc}

0000262a <PendSV_Handler>:
    262a:	f7ff fadf 	bl	1bec <rt_pop_req>

0000262e <Sys_Switch>:
    262e:	4b14      	ldr	r3, [pc, #80]	@ (2680 <OS_Tick_Handler+0x18>)
    2630:	e893 0006 	ldmia.w	r3, {r1, r2}
    2634:	4291      	cmp	r1, r2
    2636:	d010      	beq.n	265a <Sys_Exit>
    2638:	f3ef 8c09 	mrs	ip, PSP
    263c:	e92c 0ff0 	stmdb	ip!, {r4, r5, r6, r7, r8, r9, sl, fp}
    2640:	f8c1 c028 	str.w	ip, [r1, #40]	@ 0x28
    2644:	b40c      	push	{r2, r3}
    2646:	f7ff fb6f 	bl	1d28 <rt_stk_check>
    264a:	bc0c      	pop	{r2, r3}
    264c:	601a      	str	r2, [r3, #0]
    264e:	f8d2 c028 	ldr.w	ip, [r2, #40]	@ 0x28
    2652:	e8bc 0ff0 	ldmia.w	ip!, {r4, r5, r6, r7, r8, r9, sl, fp}
    2656:	f38c 8809 	msr	PSP, ip

0000265a <Sys_Exit>:
    265a:	f06f 0e02 	mvn.w	lr, #2
    265e:	4770      	bx	lr

00002660 <SysTick_Handler>:
    2660:	f7ff fb3a 	bl	1cd8 <rt_systick>
    2664:	f7ff bfe3 	b.w	262e <Sys_Switch>

00002668 <OS_Tick_Handler>:
    2668:	f7ff fb30 	bl	1ccc <os_tick_irqack>
    266c:	f7ff fb34 	bl	1cd8 <rt_systick>
    2670:	f7ff bfdd 	b.w	262e <Sys_Switch>
    2674:	00004b00 	andeq	r4, r0, r0, lsl #22
    2678:	000018b3 			@ <UNDEFINED> instruction: 0x000018b3
    267c:	000018f5 	strdeq	r1, [r0], -r5
    2680:	200002b4 			@ <UNDEFINED> instruction: 0x200002b4
    2684:	00000000 	andeq	r0, r0, r0
    2688:	fffffffc 			@ <UNDEFINED> instruction: 0xfffffffc

0000268c <Reset_Handler>:
    268c:	f7fd fe98 	bl	3c0 <SystemInit>
    2690:	4c10      	ldr	r4, [pc, #64]	@ (26d4 <BusFault_Handler+0x4>)
    2692:	4d11      	ldr	r5, [pc, #68]	@ (26d8 <BusFault_Handler+0x8>)
    2694:	42ac      	cmp	r4, r5
    2696:	da0a      	bge.n	26ae <Reset_Handler+0x22>
    2698:	6821      	ldr	r1, [r4, #0]
    269a:	6862      	ldr	r2, [r4, #4]
    269c:	68a3      	ldr	r3, [r4, #8]
    269e:	009b      	lsls	r3, r3, #2
    26a0:	3b04      	subs	r3, #4
    26a2:	bfa2      	ittt	ge
    26a4:	58c8      	ldrge	r0, [r1, r3]
    26a6:	50d0      	strge	r0, [r2, r3]
    26a8:	e7fa      	bge.n	26a0 <Reset_Handler+0x14>
    26aa:	340c      	adds	r4, #12
    26ac:	e7f2      	b.n	2694 <Reset_Handler+0x8>
    26ae:	4b0b      	ldr	r3, [pc, #44]	@ (26dc <BusFault_Handler+0xc>)
    26b0:	4c0b      	ldr	r4, [pc, #44]	@ (26e0 <BusFault_Handler+0x10>)
    26b2:	42a3      	cmp	r3, r4
    26b4:	da09      	bge.n	26ca <Reset_Handler+0x3e>
    26b6:	6819      	ldr	r1, [r3, #0]
    26b8:	685a      	ldr	r2, [r3, #4]
    26ba:	0092      	lsls	r2, r2, #2
    26bc:	2000      	movs	r0, #0
    26be:	3a04      	subs	r2, #4
    26c0:	bfa4      	itt	ge
    26c2:	5088      	strge	r0, [r1, r2]
    26c4:	e7fb      	bge.n	26be <Reset_Handler+0x32>
    26c6:	3308      	adds	r3, #8
    26c8:	e7f3      	b.n	26b2 <Reset_Handler+0x26>
    26ca:	f7fd fe8d 	bl	3e8 <_start>

000026ce <HardFault_Handler>:
    26ce:	e7fe      	b.n	26ce <HardFault_Handler>

000026d0 <BusFault_Handler>:
    26d0:	e7fe      	b.n	26d0 <BusFault_Handler>
    26d2:	4cb40000 	ldcmi	0, cr0, [r4]
    26d6:	4cc00000 	stclmi	0, cr0, [r0], {0}
    26da:	4cc00000 	stclmi	0, cr0, [r0], {0}
    26de:	4cc00000 	stclmi	0, cr0, [r0], {0}
	...

000026e4 <selfrel_offset31>:
    26e4:	6803      	ldr	r3, [r0, #0]
    26e6:	005a      	lsls	r2, r3, #1
    26e8:	bf4c      	ite	mi
    26ea:	f043 4300 	orrmi.w	r3, r3, #2147483648	@ 0x80000000
    26ee:	f023 4300 	bicpl.w	r3, r3, #2147483648	@ 0x80000000
    26f2:	4418      	add	r0, r3
    26f4:	4770      	bx	lr
    26f6:	bf00      	nop

000026f8 <search_EIT_table>:
    26f8:	e92d 47f0 	stmdb	sp!, {r4, r5, r6, r7, r8, r9, sl, lr}
    26fc:	b341      	cbz	r1, 2750 <search_EIT_table+0x58>
    26fe:	f101 38ff 	add.w	r8, r1, #4294967295	@ 0xffffffff
    2702:	4605      	mov	r5, r0
    2704:	4616      	mov	r6, r2
    2706:	4647      	mov	r7, r8
    2708:	2400      	movs	r4, #0
    270a:	19e1      	adds	r1, r4, r7
    270c:	eb01 71d1 	add.w	r1, r1, r1, lsr #31
    2710:	1049      	asrs	r1, r1, #1
    2712:	eb05 0ac1 	add.w	sl, r5, r1, lsl #3
    2716:	4650      	mov	r0, sl
    2718:	f7ff ffe4 	bl	26e4 <selfrel_offset31>
    271c:	4588      	cmp	r8, r1
    271e:	4603      	mov	r3, r0
    2720:	ea4f 09c1 	mov.w	r9, r1, lsl #3
    2724:	d00e      	beq.n	2744 <search_EIT_table+0x4c>
    2726:	f109 0008 	add.w	r0, r9, #8
    272a:	42b3      	cmp	r3, r6
    272c:	4428      	add	r0, r5
    272e:	d80b      	bhi.n	2748 <search_EIT_table+0x50>
    2730:	f7ff ffd8 	bl	26e4 <selfrel_offset31>
    2734:	3801      	subs	r0, #1
    2736:	42b0      	cmp	r0, r6
    2738:	f101 0401 	add.w	r4, r1, #1
    273c:	d3e5      	bcc.n	270a <search_EIT_table+0x12>
    273e:	4650      	mov	r0, sl
    2740:	e8bd 87f0 	ldmia.w	sp!, {r4, r5, r6, r7, r8, r9, sl, pc}
    2744:	42b0      	cmp	r0, r6
    2746:	d9fa      	bls.n	273e <search_EIT_table+0x46>
    2748:	428c      	cmp	r4, r1
    274a:	d001      	beq.n	2750 <search_EIT_table+0x58>
    274c:	1e4f      	subs	r7, r1, #1
    274e:	e7dc      	b.n	270a <search_EIT_table+0x12>
    2750:	f04f 0a00 	mov.w	sl, #0
    2754:	4650      	mov	r0, sl
    2756:	e8bd 87f0 	ldmia.w	sp!, {r4, r5, r6, r7, r8, r9, sl, pc}
    275a:	bf00      	nop

0000275c <__gnu_unwind_get_pr_addr>:
    275c:	2801      	cmp	r0, #1
    275e:	d009      	beq.n	2774 <__gnu_unwind_get_pr_addr+0x18>
    2760:	2802      	cmp	r0, #2
    2762:	d005      	beq.n	2770 <__gnu_unwind_get_pr_addr+0x14>
    2764:	4b04      	ldr	r3, [pc, #16]	@ (2778 <__gnu_unwind_get_pr_addr+0x1c>)
    2766:	2800      	cmp	r0, #0
    2768:	bf0c      	ite	eq
    276a:	4618      	moveq	r0, r3
    276c:	2000      	movne	r0, #0
    276e:	4770      	bx	lr
    2770:	4802      	ldr	r0, [pc, #8]	@ (277c <__gnu_unwind_get_pr_addr+0x20>)
    2772:	4770      	bx	lr
    2774:	4802      	ldr	r0, [pc, #8]	@ (2780 <__gnu_unwind_get_pr_addr+0x24>)
    2776:	4770      	bx	lr
    2778:	00002e4d 	andeq	r2, r0, sp, asr #28
    277c:	00002e55 	andeq	r2, r0, r5, asr lr
    2780:	00002e51 	andeq	r2, r0, r1, asr lr

00002784 <get_eit_entry>:
    2784:	b530      	push	{r4, r5, lr}
    2786:	4b22      	ldr	r3, [pc, #136]	@ (2810 <get_eit_entry+0x8c>)
    2788:	4604      	mov	r4, r0
    278a:	b083      	sub	sp, #12
    278c:	1e8d      	subs	r5, r1, #2
    278e:	b33b      	cbz	r3, 27e0 <get_eit_entry+0x5c>
    2790:	4628      	mov	r0, r5
    2792:	a901      	add	r1, sp, #4
    2794:	f3af 8000 	nop.w
    2798:	b1e8      	cbz	r0, 27d6 <get_eit_entry+0x52>
    279a:	9901      	ldr	r1, [sp, #4]
    279c:	462a      	mov	r2, r5
    279e:	f7ff ffab 	bl	26f8 <search_EIT_table>
    27a2:	4601      	mov	r1, r0
    27a4:	b1b8      	cbz	r0, 27d6 <get_eit_entry+0x52>
    27a6:	f7ff ff9d 	bl	26e4 <selfrel_offset31>
    27aa:	684b      	ldr	r3, [r1, #4]
    27ac:	64a0      	str	r0, [r4, #72]	@ 0x48
    27ae:	2b01      	cmp	r3, #1
    27b0:	d02b      	beq.n	280a <get_eit_entry+0x86>
    27b2:	2b00      	cmp	r3, #0
    27b4:	db26      	blt.n	2804 <get_eit_entry+0x80>
    27b6:	1d08      	adds	r0, r1, #4
    27b8:	f7ff ff94 	bl	26e4 <selfrel_offset31>
    27bc:	2300      	movs	r3, #0
    27be:	6523      	str	r3, [r4, #80]	@ 0x50
    27c0:	6803      	ldr	r3, [r0, #0]
    27c2:	64e0      	str	r0, [r4, #76]	@ 0x4c
    27c4:	2b00      	cmp	r3, #0
    27c6:	db12      	blt.n	27ee <get_eit_entry+0x6a>
    27c8:	f7ff ff8c 	bl	26e4 <selfrel_offset31>
    27cc:	4603      	mov	r3, r0
    27ce:	2000      	movs	r0, #0
    27d0:	6123      	str	r3, [r4, #16]
    27d2:	b003      	add	sp, #12
    27d4:	bd30      	pop	{r4, r5, pc}
    27d6:	2300      	movs	r3, #0
    27d8:	2009      	movs	r0, #9
    27da:	6123      	str	r3, [r4, #16]
    27dc:	b003      	add	sp, #12
    27de:	bd30      	pop	{r4, r5, pc}
    27e0:	4b0c      	ldr	r3, [pc, #48]	@ (2814 <get_eit_entry+0x90>)
    27e2:	490d      	ldr	r1, [pc, #52]	@ (2818 <get_eit_entry+0x94>)
    27e4:	4618      	mov	r0, r3
    27e6:	1ac9      	subs	r1, r1, r3
    27e8:	10c9      	asrs	r1, r1, #3
    27ea:	9101      	str	r1, [sp, #4]
    27ec:	e7d6      	b.n	279c <get_eit_entry+0x18>
    27ee:	f3c3 6003 	ubfx	r0, r3, #24, #4
    27f2:	f7ff ffb3 	bl	275c <__gnu_unwind_get_pr_addr>
    27f6:	1e03      	subs	r3, r0, #0
    27f8:	bf0c      	ite	eq
    27fa:	2009      	moveq	r0, #9
    27fc:	2000      	movne	r0, #0
    27fe:	6123      	str	r3, [r4, #16]
    2800:	b003      	add	sp, #12
    2802:	bd30      	pop	{r4, r5, pc}
    2804:	2301      	movs	r3, #1
    2806:	1d08      	adds	r0, r1, #4
    2808:	e7d9      	b.n	27be <get_eit_entry+0x3a>
    280a:	2300      	movs	r3, #0
    280c:	2005      	movs	r0, #5
    280e:	e7df      	b.n	27d0 <get_eit_entry+0x4c>
    2810:	00000000 	andeq	r0, r0, r0
    2814:	00004bec 	andeq	r4, r0, ip, ror #23
    2818:	00004cb4 			@ <UNDEFINED> instruction: 0x00004cb4

0000281c <restore_non_core_regs>:
    281c:	6803      	ldr	r3, [r0, #0]
    281e:	b510      	push	{r4, lr}
    2820:	07da      	lsls	r2, r3, #31
    2822:	4604      	mov	r4, r0
    2824:	d406      	bmi.n	2834 <restore_non_core_regs+0x18>
    2826:	079b      	lsls	r3, r3, #30
    2828:	f100 0050 	add.w	r0, r0, #80	@ 0x50
    282c:	d509      	bpl.n	2842 <restore_non_core_regs+0x26>
    282e:	f000 fc9d 	bl	316c <__gnu_Unwind_Restore_VFP_D>
    2832:	6823      	ldr	r3, [r4, #0]
    2834:	0759      	lsls	r1, r3, #29
    2836:	d509      	bpl.n	284c <restore_non_core_regs+0x30>
    2838:	071a      	lsls	r2, r3, #28
    283a:	d50e      	bpl.n	285a <restore_non_core_regs+0x3e>
    283c:	06db      	lsls	r3, r3, #27
    283e:	d513      	bpl.n	2868 <restore_non_core_regs+0x4c>
    2840:	bd10      	pop	{r4, pc}
    2842:	f000 fc8b 	bl	315c <__gnu_Unwind_Restore_VFP>
    2846:	6823      	ldr	r3, [r4, #0]
    2848:	0759      	lsls	r1, r3, #29
    284a:	d4f5      	bmi.n	2838 <restore_non_core_regs+0x1c>
    284c:	f104 00d8 	add.w	r0, r4, #216	@ 0xd8
    2850:	f000 fc94 	bl	317c <__gnu_Unwind_Restore_VFP_D_16_to_31>
    2854:	6823      	ldr	r3, [r4, #0]
    2856:	071a      	lsls	r2, r3, #28
    2858:	d4f0      	bmi.n	283c <restore_non_core_regs+0x20>
    285a:	f504 70ac 	add.w	r0, r4, #344	@ 0x158
    285e:	f000 fc95 	bl	318c <__gnu_Unwind_Restore_WMMXD>
    2862:	6823      	ldr	r3, [r4, #0]
    2864:	06db      	lsls	r3, r3, #27
    2866:	d4eb      	bmi.n	2840 <restore_non_core_regs+0x24>
    2868:	f504 70ec 	add.w	r0, r4, #472	@ 0x1d8
    286c:	e8bd 4010 	ldmia.w	sp!, {r4, lr}
    2870:	f000 bcd0 	b.w	3214 <__gnu_Unwind_Restore_WMMXC>

00002874 <_Unwind_decode_typeinfo_ptr.constprop.0>:
    2874:	4603      	mov	r3, r0
    2876:	6800      	ldr	r0, [r0, #0]
    2878:	b100      	cbz	r0, 287c <_Unwind_decode_typeinfo_ptr.constprop.0+0x8>
    287a:	4418      	add	r0, r3
    287c:	4770      	bx	lr
    287e:	bf00      	nop

00002880 <__gnu_unwind_24bit.isra.0>:
    2880:	2009      	movs	r0, #9
    2882:	4770      	bx	lr

00002884 <_Unwind_DebugHook>:
    2884:	4770      	bx	lr
    2886:	bf00      	nop

00002888 <unwind_phase2>:
    2888:	b570      	push	{r4, r5, r6, lr}
    288a:	4604      	mov	r4, r0
    288c:	460e      	mov	r6, r1
    288e:	4620      	mov	r0, r4
    2890:	6c31      	ldr	r1, [r6, #64]	@ 0x40
    2892:	f7ff ff77 	bl	2784 <get_eit_entry>
    2896:	4605      	mov	r5, r0
    2898:	b998      	cbnz	r0, 28c2 <unwind_phase2+0x3a>
    289a:	f8d6 c040 	ldr.w	ip, [r6, #64]	@ 0x40
    289e:	4632      	mov	r2, r6
    28a0:	4621      	mov	r1, r4
    28a2:	2001      	movs	r0, #1
    28a4:	6923      	ldr	r3, [r4, #16]
    28a6:	f8c4 c014 	str.w	ip, [r4, #20]
    28aa:	4798      	blx	r3
    28ac:	2808      	cmp	r0, #8
    28ae:	d0ee      	beq.n	288e <unwind_phase2+0x6>
    28b0:	2807      	cmp	r0, #7
    28b2:	d106      	bne.n	28c2 <unwind_phase2+0x3a>
    28b4:	4628      	mov	r0, r5
    28b6:	6c31      	ldr	r1, [r6, #64]	@ 0x40
    28b8:	f7ff ffe4 	bl	2884 <_Unwind_DebugHook>
    28bc:	1d30      	adds	r0, r6, #4
    28be:	f000 fc41 	bl	3144 <__restore_core_regs>
    28c2:	deff      	udf	#255	@ 0xff

000028c4 <unwind_phase2_forced>:
    28c4:	e92d 47f0 	stmdb	sp!, {r4, r5, r6, r7, r8, r9, sl, lr}
    28c8:	f04f 0a00 	mov.w	sl, #0
    28cc:	f5ad 7d76 	sub.w	sp, sp, #984	@ 0x3d8
    28d0:	f10d 0e0c 	add.w	lr, sp, #12
    28d4:	f101 0c04 	add.w	ip, r1, #4
    28d8:	68c7      	ldr	r7, [r0, #12]
    28da:	f8d0 8018 	ldr.w	r8, [r0, #24]
    28de:	4606      	mov	r6, r0
    28e0:	4614      	mov	r4, r2
    28e2:	e8bc 000f 	ldmia.w	ip!, {r0, r1, r2, r3}
    28e6:	e8ae 000f 	stmia.w	lr!, {r0, r1, r2, r3}
    28ea:	e8bc 000f 	ldmia.w	ip!, {r0, r1, r2, r3}
    28ee:	e8ae 000f 	stmia.w	lr!, {r0, r1, r2, r3}
    28f2:	e8bc 000f 	ldmia.w	ip!, {r0, r1, r2, r3}
    28f6:	e8ae 000f 	stmia.w	lr!, {r0, r1, r2, r3}
    28fa:	e89c 000f 	ldmia.w	ip, {r0, r1, r2, r3}
    28fe:	ad02      	add	r5, sp, #8
    2900:	e88e 000f 	stmia.w	lr, {r0, r1, r2, r3}
    2904:	f8c5 a000 	str.w	sl, [r5]
    2908:	e021      	b.n	294e <unwind_phase2_forced+0x8a>
    290a:	6c2b      	ldr	r3, [r5, #64]	@ 0x40
    290c:	f44f 72f4 	mov.w	r2, #488	@ 0x1e8
    2910:	4629      	mov	r1, r5
    2912:	6173      	str	r3, [r6, #20]
    2914:	a87c      	add	r0, sp, #496	@ 0x1f0
    2916:	f001 f811 	bl	393c <memcpy>
    291a:	4631      	mov	r1, r6
    291c:	4650      	mov	r0, sl
    291e:	6933      	ldr	r3, [r6, #16]
    2920:	aa7c      	add	r2, sp, #496	@ 0x1f0
    2922:	4798      	blx	r3
    2924:	9c8a      	ldr	r4, [sp, #552]	@ 0x228
    2926:	4682      	mov	sl, r0
    2928:	64ac      	str	r4, [r5, #72]	@ 0x48
    292a:	2001      	movs	r0, #1
    292c:	4633      	mov	r3, r6
    292e:	4632      	mov	r2, r6
    2930:	4649      	mov	r1, r9
    2932:	e9cd 5800 	strd	r5, r8, [sp]
    2936:	47b8      	blx	r7
    2938:	4604      	mov	r4, r0
    293a:	bb30      	cbnz	r0, 298a <unwind_phase2_forced+0xc6>
    293c:	f44f 72f4 	mov.w	r2, #488	@ 0x1e8
    2940:	4628      	mov	r0, r5
    2942:	a97c      	add	r1, sp, #496	@ 0x1f0
    2944:	f000 fffa 	bl	393c <memcpy>
    2948:	f1ba 0f08 	cmp.w	sl, #8
    294c:	d11a      	bne.n	2984 <unwind_phase2_forced+0xc0>
    294e:	4630      	mov	r0, r6
    2950:	6c29      	ldr	r1, [r5, #64]	@ 0x40
    2952:	f7ff ff17 	bl	2784 <get_eit_entry>
    2956:	f104 0909 	add.w	r9, r4, #9
    295a:	fa5f fa89 	uxtb.w	sl, r9
    295e:	4604      	mov	r4, r0
    2960:	2800      	cmp	r0, #0
    2962:	d0d2      	beq.n	290a <unwind_phase2_forced+0x46>
    2964:	6ba9      	ldr	r1, [r5, #56]	@ 0x38
    2966:	4633      	mov	r3, r6
    2968:	64a9      	str	r1, [r5, #72]	@ 0x48
    296a:	4632      	mov	r2, r6
    296c:	2001      	movs	r0, #1
    296e:	e9cd 5800 	strd	r5, r8, [sp]
    2972:	f04a 0110 	orr.w	r1, sl, #16
    2976:	47b8      	blx	r7
    2978:	b938      	cbnz	r0, 298a <unwind_phase2_forced+0xc6>
    297a:	4620      	mov	r0, r4
    297c:	f50d 7d76 	add.w	sp, sp, #984	@ 0x3d8
    2980:	e8bd 87f0 	ldmia.w	sp!, {r4, r5, r6, r7, r8, r9, sl, pc}
    2984:	f1ba 0f07 	cmp.w	sl, #7
    2988:	d005      	beq.n	2996 <unwind_phase2_forced+0xd2>
    298a:	2409      	movs	r4, #9
    298c:	4620      	mov	r0, r4
    298e:	f50d 7d76 	add.w	sp, sp, #984	@ 0x3d8
    2992:	e8bd 87f0 	ldmia.w	sp!, {r4, r5, r6, r7, r8, r9, sl, pc}
    2996:	4620      	mov	r0, r4
    2998:	6c29      	ldr	r1, [r5, #64]	@ 0x40
    299a:	f7ff ff73 	bl	2884 <_Unwind_DebugHook>
    299e:	a803      	add	r0, sp, #12
    29a0:	f000 fbd0 	bl	3144 <__restore_core_regs>

000029a4 <_Unwind_GetCFA>:
    29a4:	6c80      	ldr	r0, [r0, #72]	@ 0x48
    29a6:	4770      	bx	lr

000029a8 <__gnu_Unwind_RaiseException>:
    29a8:	b5f0      	push	{r4, r5, r6, r7, lr}
    29aa:	f04f 37ff 	mov.w	r7, #4294967295	@ 0xffffffff
    29ae:	6bcb      	ldr	r3, [r1, #60]	@ 0x3c
    29b0:	b0fb      	sub	sp, #492	@ 0x1ec
    29b2:	640b      	str	r3, [r1, #64]	@ 0x40
    29b4:	ac01      	add	r4, sp, #4
    29b6:	f101 0c04 	add.w	ip, r1, #4
    29ba:	460e      	mov	r6, r1
    29bc:	4605      	mov	r5, r0
    29be:	e8bc 000f 	ldmia.w	ip!, {r0, r1, r2, r3}
    29c2:	c40f      	stmia	r4!, {r0, r1, r2, r3}
    29c4:	e8bc 000f 	ldmia.w	ip!, {r0, r1, r2, r3}
    29c8:	c40f      	stmia	r4!, {r0, r1, r2, r3}
    29ca:	e8bc 000f 	ldmia.w	ip!, {r0, r1, r2, r3}
    29ce:	c40f      	stmia	r4!, {r0, r1, r2, r3}
    29d0:	e89c 000f 	ldmia.w	ip, {r0, r1, r2, r3}
    29d4:	e884 000f 	stmia.w	r4, {r0, r1, r2, r3}
    29d8:	9700      	str	r7, [sp, #0]
    29da:	e006      	b.n	29ea <__gnu_Unwind_RaiseException+0x42>
    29dc:	466a      	mov	r2, sp
    29de:	4629      	mov	r1, r5
    29e0:	692b      	ldr	r3, [r5, #16]
    29e2:	4798      	blx	r3
    29e4:	2808      	cmp	r0, #8
    29e6:	4604      	mov	r4, r0
    29e8:	d108      	bne.n	29fc <__gnu_Unwind_RaiseException+0x54>
    29ea:	4628      	mov	r0, r5
    29ec:	9910      	ldr	r1, [sp, #64]	@ 0x40
    29ee:	f7ff fec9 	bl	2784 <get_eit_entry>
    29f2:	2800      	cmp	r0, #0
    29f4:	d0f2      	beq.n	29dc <__gnu_Unwind_RaiseException+0x34>
    29f6:	2009      	movs	r0, #9
    29f8:	b07b      	add	sp, #492	@ 0x1ec
    29fa:	bdf0      	pop	{r4, r5, r6, r7, pc}
    29fc:	4668      	mov	r0, sp
    29fe:	f7ff ff0d 	bl	281c <restore_non_core_regs>
    2a02:	2c06      	cmp	r4, #6
    2a04:	d1f7      	bne.n	29f6 <__gnu_Unwind_RaiseException+0x4e>
    2a06:	4631      	mov	r1, r6
    2a08:	4628      	mov	r0, r5
    2a0a:	f7ff ff3d 	bl	2888 <unwind_phase2>
    2a0e:	bf00      	nop

00002a10 <__gnu_Unwind_ForcedUnwind>:
    2a10:	b410      	push	{r4}
    2a12:	4614      	mov	r4, r2
    2a14:	6184      	str	r4, [r0, #24]
    2a16:	6bdc      	ldr	r4, [r3, #60]	@ 0x3c
    2a18:	60c1      	str	r1, [r0, #12]
    2a1a:	2200      	movs	r2, #0
    2a1c:	641c      	str	r4, [r3, #64]	@ 0x40
    2a1e:	4619      	mov	r1, r3
    2a20:	bc10      	pop	{r4}
    2a22:	e74f      	b.n	28c4 <unwind_phase2_forced>

00002a24 <__gnu_Unwind_Resume>:
    2a24:	b570      	push	{r4, r5, r6, lr}
    2a26:	6943      	ldr	r3, [r0, #20]
    2a28:	68c6      	ldr	r6, [r0, #12]
    2a2a:	640b      	str	r3, [r1, #64]	@ 0x40
    2a2c:	b9ae      	cbnz	r6, 2a5a <__gnu_Unwind_Resume+0x36>
    2a2e:	460a      	mov	r2, r1
    2a30:	6903      	ldr	r3, [r0, #16]
    2a32:	4604      	mov	r4, r0
    2a34:	460d      	mov	r5, r1
    2a36:	4601      	mov	r1, r0
    2a38:	2002      	movs	r0, #2
    2a3a:	4798      	blx	r3
    2a3c:	2807      	cmp	r0, #7
    2a3e:	d005      	beq.n	2a4c <__gnu_Unwind_Resume+0x28>
    2a40:	2808      	cmp	r0, #8
    2a42:	d10e      	bne.n	2a62 <__gnu_Unwind_Resume+0x3e>
    2a44:	4629      	mov	r1, r5
    2a46:	4620      	mov	r0, r4
    2a48:	f7ff ff1e 	bl	2888 <unwind_phase2>
    2a4c:	4630      	mov	r0, r6
    2a4e:	6c29      	ldr	r1, [r5, #64]	@ 0x40
    2a50:	f7ff ff18 	bl	2884 <_Unwind_DebugHook>
    2a54:	1d28      	adds	r0, r5, #4
    2a56:	f000 fb75 	bl	3144 <__restore_core_regs>
    2a5a:	2201      	movs	r2, #1
    2a5c:	f7ff ff32 	bl	28c4 <unwind_phase2_forced>
    2a60:	deff      	udf	#255	@ 0xff
    2a62:	deff      	udf	#255	@ 0xff

00002a64 <__gnu_Unwind_Resume_or_Rethrow>:
    2a64:	68c2      	ldr	r2, [r0, #12]
    2a66:	b12a      	cbz	r2, 2a74 <__gnu_Unwind_Resume_or_Rethrow+0x10>
    2a68:	f8d1 c03c 	ldr.w	ip, [r1, #60]	@ 0x3c
    2a6c:	2200      	movs	r2, #0
    2a6e:	f8c1 c040 	str.w	ip, [r1, #64]	@ 0x40
    2a72:	e727      	b.n	28c4 <unwind_phase2_forced>
    2a74:	e798      	b.n	29a8 <__gnu_Unwind_RaiseException>
    2a76:	bf00      	nop

00002a78 <_Unwind_Complete>:
    2a78:	4770      	bx	lr
    2a7a:	bf00      	nop

00002a7c <_Unwind_DeleteException>:
    2a7c:	6883      	ldr	r3, [r0, #8]
    2a7e:	4601      	mov	r1, r0
    2a80:	b10b      	cbz	r3, 2a86 <_Unwind_DeleteException+0xa>
    2a82:	2001      	movs	r0, #1
    2a84:	4718      	bx	r3
    2a86:	4770      	bx	lr

00002a88 <_Unwind_VRS_Get>:
    2a88:	2905      	cmp	r1, #5
    2a8a:	d815      	bhi.n	2ab8 <_Unwind_VRS_Get+0x30>
    2a8c:	e8df f001 	tbb	[pc, r1]
    2a90:	0314030a 	tsteq	r4, #671088640	@ 0x28000000
    2a94:	20010503 	andcs	r0, r1, r3, lsl #10
    2a98:	4770      	bx	lr
    2a9a:	6c43      	ldr	r3, [r0, #68]	@ 0x44
    2a9c:	9a00      	ldr	r2, [sp, #0]
    2a9e:	2000      	movs	r0, #0
    2aa0:	6013      	str	r3, [r2, #0]
    2aa2:	4770      	bx	lr
    2aa4:	b943      	cbnz	r3, 2ab8 <_Unwind_VRS_Get+0x30>
    2aa6:	2a0f      	cmp	r2, #15
    2aa8:	d806      	bhi.n	2ab8 <_Unwind_VRS_Get+0x30>
    2aaa:	eb00 0282 	add.w	r2, r0, r2, lsl #2
    2aae:	6853      	ldr	r3, [r2, #4]
    2ab0:	9a00      	ldr	r2, [sp, #0]
    2ab2:	2000      	movs	r0, #0
    2ab4:	6013      	str	r3, [r2, #0]
    2ab6:	4770      	bx	lr
    2ab8:	2002      	movs	r0, #2
    2aba:	4770      	bx	lr

00002abc <_Unwind_GetGR>:
    2abc:	2300      	movs	r3, #0
    2abe:	b500      	push	{lr}
    2ac0:	b085      	sub	sp, #20
    2ac2:	460a      	mov	r2, r1
    2ac4:	a903      	add	r1, sp, #12
    2ac6:	9100      	str	r1, [sp, #0]
    2ac8:	4619      	mov	r1, r3
    2aca:	f7ff ffdd 	bl	2a88 <_Unwind_VRS_Get>
    2ace:	9803      	ldr	r0, [sp, #12]
    2ad0:	b005      	add	sp, #20
    2ad2:	f85d fb04 	ldr.w	pc, [sp], #4
    2ad6:	bf00      	nop

00002ad8 <_Unwind_VRS_Set>:
    2ad8:	2905      	cmp	r1, #5
    2ada:	d815      	bhi.n	2b08 <_Unwind_VRS_Set+0x30>
    2adc:	e8df f001 	tbb	[pc, r1]
    2ae0:	0314030a 	tsteq	r4, #671088640	@ 0x28000000
    2ae4:	20010503 	andcs	r0, r1, r3, lsl #10
    2ae8:	4770      	bx	lr
    2aea:	9b00      	ldr	r3, [sp, #0]
    2aec:	681b      	ldr	r3, [r3, #0]
    2aee:	6443      	str	r3, [r0, #68]	@ 0x44
    2af0:	2000      	movs	r0, #0
    2af2:	4770      	bx	lr
    2af4:	b943      	cbnz	r3, 2b08 <_Unwind_VRS_Set+0x30>
    2af6:	2a0f      	cmp	r2, #15
    2af8:	d806      	bhi.n	2b08 <_Unwind_VRS_Set+0x30>
    2afa:	9b00      	ldr	r3, [sp, #0]
    2afc:	eb00 0282 	add.w	r2, r0, r2, lsl #2
    2b00:	681b      	ldr	r3, [r3, #0]
    2b02:	2000      	movs	r0, #0
    2b04:	6053      	str	r3, [r2, #4]
    2b06:	4770      	bx	lr
    2b08:	2002      	movs	r0, #2
    2b0a:	4770      	bx	lr

00002b0c <_Unwind_SetGR>:
    2b0c:	2300      	movs	r3, #0
    2b0e:	b510      	push	{r4, lr}
    2b10:	b084      	sub	sp, #16
    2b12:	ac03      	add	r4, sp, #12
    2b14:	9203      	str	r2, [sp, #12]
    2b16:	9400      	str	r4, [sp, #0]
    2b18:	460a      	mov	r2, r1
    2b1a:	4619      	mov	r1, r3
    2b1c:	f7ff ffdc 	bl	2ad8 <_Unwind_VRS_Set>
    2b20:	b004      	add	sp, #16
    2b22:	bd10      	pop	{r4, pc}

00002b24 <__gnu_Unwind_Backtrace>:
    2b24:	b570      	push	{r4, r5, r6, lr}
    2b26:	f04f 36ff 	mov.w	r6, #4294967295	@ 0xffffffff
    2b2a:	6bd3      	ldr	r3, [r2, #60]	@ 0x3c
    2b2c:	f5ad 7d10 	sub.w	sp, sp, #576	@ 0x240
    2b30:	6413      	str	r3, [r2, #64]	@ 0x40
    2b32:	f10d 0e5c 	add.w	lr, sp, #92	@ 0x5c
    2b36:	f102 0c04 	add.w	ip, r2, #4
    2b3a:	4605      	mov	r5, r0
    2b3c:	460c      	mov	r4, r1
    2b3e:	e8bc 000f 	ldmia.w	ip!, {r0, r1, r2, r3}
    2b42:	e8ae 000f 	stmia.w	lr!, {r0, r1, r2, r3}
    2b46:	e8bc 000f 	ldmia.w	ip!, {r0, r1, r2, r3}
    2b4a:	e8ae 000f 	stmia.w	lr!, {r0, r1, r2, r3}
    2b4e:	e8bc 000f 	ldmia.w	ip!, {r0, r1, r2, r3}
    2b52:	e8ae 000f 	stmia.w	lr!, {r0, r1, r2, r3}
    2b56:	e89c 000f 	ldmia.w	ip, {r0, r1, r2, r3}
    2b5a:	e88e 000f 	stmia.w	lr, {r0, r1, r2, r3}
    2b5e:	9616      	str	r6, [sp, #88]	@ 0x58
    2b60:	e012      	b.n	2b88 <__gnu_Unwind_Backtrace+0x64>
    2b62:	210c      	movs	r1, #12
    2b64:	a816      	add	r0, sp, #88	@ 0x58
    2b66:	466a      	mov	r2, sp
    2b68:	f7ff ffd0 	bl	2b0c <_Unwind_SetGR>
    2b6c:	4621      	mov	r1, r4
    2b6e:	a816      	add	r0, sp, #88	@ 0x58
    2b70:	47a8      	blx	r5
    2b72:	b978      	cbnz	r0, 2b94 <__gnu_Unwind_Backtrace+0x70>
    2b74:	4669      	mov	r1, sp
    2b76:	2008      	movs	r0, #8
    2b78:	9b04      	ldr	r3, [sp, #16]
    2b7a:	aa16      	add	r2, sp, #88	@ 0x58
    2b7c:	4798      	blx	r3
    2b7e:	2805      	cmp	r0, #5
    2b80:	4606      	mov	r6, r0
    2b82:	d008      	beq.n	2b96 <__gnu_Unwind_Backtrace+0x72>
    2b84:	2809      	cmp	r0, #9
    2b86:	d005      	beq.n	2b94 <__gnu_Unwind_Backtrace+0x70>
    2b88:	4668      	mov	r0, sp
    2b8a:	9926      	ldr	r1, [sp, #152]	@ 0x98
    2b8c:	f7ff fdfa 	bl	2784 <get_eit_entry>
    2b90:	2800      	cmp	r0, #0
    2b92:	d0e6      	beq.n	2b62 <__gnu_Unwind_Backtrace+0x3e>
    2b94:	2609      	movs	r6, #9
    2b96:	a816      	add	r0, sp, #88	@ 0x58
    2b98:	f7ff fe40 	bl	281c <restore_non_core_regs>
    2b9c:	4630      	mov	r0, r6
    2b9e:	f50d 7d10 	add.w	sp, sp, #576	@ 0x240
    2ba2:	bd70      	pop	{r4, r5, r6, pc}

00002ba4 <__gnu_unwind_pr_common>:
    2ba4:	e92d 4ff0 	stmdb	sp!, {r4, r5, r6, r7, r8, r9, sl, fp, lr}
    2ba8:	4616      	mov	r6, r2
    2baa:	6cca      	ldr	r2, [r1, #76]	@ 0x4c
    2bac:	460d      	mov	r5, r1
    2bae:	f852 1b04 	ldr.w	r1, [r2], #4
    2bb2:	b089      	sub	sp, #36	@ 0x24
    2bb4:	f000 0c03 	and.w	ip, r0, #3
    2bb8:	9206      	str	r2, [sp, #24]
    2bba:	2b00      	cmp	r3, #0
    2bbc:	d079      	beq.n	2cb2 <__gnu_unwind_pr_common+0x10e>
    2bbe:	2402      	movs	r4, #2
    2bc0:	0c0f      	lsrs	r7, r1, #16
    2bc2:	f88d 701d 	strb.w	r7, [sp, #29]
    2bc6:	0409      	lsls	r1, r1, #16
    2bc8:	b2ff      	uxtb	r7, r7
    2bca:	9105      	str	r1, [sp, #20]
    2bcc:	eb02 0287 	add.w	r2, r2, r7, lsl #2
    2bd0:	6d29      	ldr	r1, [r5, #80]	@ 0x50
    2bd2:	f1bc 0f02 	cmp.w	ip, #2
    2bd6:	bf08      	it	eq
    2bd8:	6baa      	ldreq	r2, [r5, #56]	@ 0x38
    2bda:	f011 0801 	ands.w	r8, r1, #1
    2bde:	f88d 401c 	strb.w	r4, [sp, #28]
    2be2:	d009      	beq.n	2bf8 <__gnu_unwind_pr_common+0x54>
    2be4:	4630      	mov	r0, r6
    2be6:	a905      	add	r1, sp, #20
    2be8:	f000 fbae 	bl	3348 <__gnu_unwind_execute>
    2bec:	2800      	cmp	r0, #0
    2bee:	d156      	bne.n	2c9e <__gnu_unwind_pr_common+0xfa>
    2bf0:	2008      	movs	r0, #8
    2bf2:	b009      	add	sp, #36	@ 0x24
    2bf4:	e8bd 8ff0 	ldmia.w	sp!, {r4, r5, r6, r7, r8, r9, sl, fp, pc}
    2bf8:	6817      	ldr	r7, [r2, #0]
    2bfa:	2f00      	cmp	r7, #0
    2bfc:	d0f2      	beq.n	2be4 <__gnu_unwind_pr_common+0x40>
    2bfe:	46e3      	mov	fp, ip
    2c00:	469a      	mov	sl, r3
    2c02:	f000 0108 	and.w	r1, r0, #8
    2c06:	e9cd 1801 	strd	r1, r8, [sp, #4]
    2c0a:	f1ba 0f02 	cmp.w	sl, #2
    2c0e:	d04c      	beq.n	2caa <__gnu_unwind_pr_common+0x106>
    2c10:	8817      	ldrh	r7, [r2, #0]
    2c12:	8854      	ldrh	r4, [r2, #2]
    2c14:	f102 0904 	add.w	r9, r2, #4
    2c18:	6caa      	ldr	r2, [r5, #72]	@ 0x48
    2c1a:	f024 0301 	bic.w	r3, r4, #1
    2c1e:	210f      	movs	r1, #15
    2c20:	4630      	mov	r0, r6
    2c22:	eb03 0802 	add.w	r8, r3, r2
    2c26:	f7ff ff49 	bl	2abc <_Unwind_GetGR>
    2c2a:	4580      	cmp	r8, r0
    2c2c:	d83b      	bhi.n	2ca6 <__gnu_unwind_pr_common+0x102>
    2c2e:	f027 0201 	bic.w	r2, r7, #1
    2c32:	eb02 0308 	add.w	r3, r2, r8
    2c36:	4283      	cmp	r3, r0
    2c38:	bf94      	ite	ls
    2c3a:	2300      	movls	r3, #0
    2c3c:	2301      	movhi	r3, #1
    2c3e:	0064      	lsls	r4, r4, #1
    2c40:	f004 0402 	and.w	r4, r4, #2
    2c44:	f007 0701 	and.w	r7, r7, #1
    2c48:	4327      	orrs	r7, r4
    2c4a:	2f01      	cmp	r7, #1
    2c4c:	d04e      	beq.n	2cec <__gnu_unwind_pr_common+0x148>
    2c4e:	2f02      	cmp	r7, #2
    2c50:	d035      	beq.n	2cbe <__gnu_unwind_pr_common+0x11a>
    2c52:	bb27      	cbnz	r7, 2c9e <__gnu_unwind_pr_common+0xfa>
    2c54:	f1bb 0f00 	cmp.w	fp, #0
    2c58:	d002      	beq.n	2c60 <__gnu_unwind_pr_common+0xbc>
    2c5a:	2b00      	cmp	r3, #0
    2c5c:	f040 80d4 	bne.w	2e08 <__gnu_unwind_pr_common+0x264>
    2c60:	f109 0204 	add.w	r2, r9, #4
    2c64:	6817      	ldr	r7, [r2, #0]
    2c66:	2f00      	cmp	r7, #0
    2c68:	d1cf      	bne.n	2c0a <__gnu_unwind_pr_common+0x66>
    2c6a:	4630      	mov	r0, r6
    2c6c:	a905      	add	r1, sp, #20
    2c6e:	f8dd 8008 	ldr.w	r8, [sp, #8]
    2c72:	f000 fb69 	bl	3348 <__gnu_unwind_execute>
    2c76:	b990      	cbnz	r0, 2c9e <__gnu_unwind_pr_common+0xfa>
    2c78:	f1b8 0f00 	cmp.w	r8, #0
    2c7c:	d0b8      	beq.n	2bf0 <__gnu_unwind_pr_common+0x4c>
    2c7e:	210f      	movs	r1, #15
    2c80:	4630      	mov	r0, r6
    2c82:	f7ff ff1b 	bl	2abc <_Unwind_GetGR>
    2c86:	210e      	movs	r1, #14
    2c88:	4602      	mov	r2, r0
    2c8a:	4630      	mov	r0, r6
    2c8c:	f7ff ff3e 	bl	2b0c <_Unwind_SetGR>
    2c90:	210f      	movs	r1, #15
    2c92:	4630      	mov	r0, r6
    2c94:	4a6c      	ldr	r2, [pc, #432]	@ (2e48 <__gnu_unwind_pr_common+0x2a4>)
    2c96:	f7ff ff39 	bl	2b0c <_Unwind_SetGR>
    2c9a:	2007      	movs	r0, #7
    2c9c:	e000      	b.n	2ca0 <__gnu_unwind_pr_common+0xfc>
    2c9e:	2009      	movs	r0, #9
    2ca0:	b009      	add	sp, #36	@ 0x24
    2ca2:	e8bd 8ff0 	ldmia.w	sp!, {r4, r5, r6, r7, r8, r9, sl, fp, pc}
    2ca6:	2300      	movs	r3, #0
    2ca8:	e7c9      	b.n	2c3e <__gnu_unwind_pr_common+0x9a>
    2caa:	6854      	ldr	r4, [r2, #4]
    2cac:	f102 0908 	add.w	r9, r2, #8
    2cb0:	e7b2      	b.n	2c18 <__gnu_unwind_pr_common+0x74>
    2cb2:	0209      	lsls	r1, r1, #8
    2cb4:	2403      	movs	r4, #3
    2cb6:	9105      	str	r1, [sp, #20]
    2cb8:	f88d 301d 	strb.w	r3, [sp, #29]
    2cbc:	e788      	b.n	2bd0 <__gnu_unwind_pr_common+0x2c>
    2cbe:	f8d9 4000 	ldr.w	r4, [r9]
    2cc2:	f024 4800 	bic.w	r8, r4, #2147483648	@ 0x80000000
    2cc6:	f1bb 0f00 	cmp.w	fp, #0
    2cca:	d147      	bne.n	2d5c <__gnu_unwind_pr_common+0x1b8>
    2ccc:	b12b      	cbz	r3, 2cda <__gnu_unwind_pr_common+0x136>
    2cce:	9b01      	ldr	r3, [sp, #4]
    2cd0:	2b00      	cmp	r3, #0
    2cd2:	d05c      	beq.n	2d8e <__gnu_unwind_pr_common+0x1ea>
    2cd4:	f1b8 0f00 	cmp.w	r8, #0
    2cd8:	d059      	beq.n	2d8e <__gnu_unwind_pr_common+0x1ea>
    2cda:	2c00      	cmp	r4, #0
    2cdc:	da01      	bge.n	2ce2 <__gnu_unwind_pr_common+0x13e>
    2cde:	f109 0904 	add.w	r9, r9, #4
    2ce2:	f108 0201 	add.w	r2, r8, #1
    2ce6:	eb09 0282 	add.w	r2, r9, r2, lsl #2
    2cea:	e7bb      	b.n	2c64 <__gnu_unwind_pr_common+0xc0>
    2cec:	f1bb 0f00 	cmp.w	fp, #0
    2cf0:	d11c      	bne.n	2d2c <__gnu_unwind_pr_common+0x188>
    2cf2:	b1c3      	cbz	r3, 2d26 <__gnu_unwind_pr_common+0x182>
    2cf4:	f8d9 3004 	ldr.w	r3, [r9, #4]
    2cf8:	f8d9 2000 	ldr.w	r2, [r9]
    2cfc:	1c99      	adds	r1, r3, #2
    2cfe:	ea4f 72d2 	mov.w	r2, r2, lsr #31
    2d02:	d0cc      	beq.n	2c9e <__gnu_unwind_pr_common+0xfa>
    2d04:	f105 0458 	add.w	r4, r5, #88	@ 0x58
    2d08:	3301      	adds	r3, #1
    2d0a:	9404      	str	r4, [sp, #16]
    2d0c:	f000 808f 	beq.w	2e2e <__gnu_unwind_pr_common+0x28a>
    2d10:	f109 0004 	add.w	r0, r9, #4
    2d14:	f7ff fdae 	bl	2874 <_Unwind_decode_typeinfo_ptr.constprop.0>
    2d18:	ab04      	add	r3, sp, #16
    2d1a:	4601      	mov	r1, r0
    2d1c:	4628      	mov	r0, r5
    2d1e:	f3af 8000 	nop.w
    2d22:	2800      	cmp	r0, #0
    2d24:	d159      	bne.n	2dda <__gnu_unwind_pr_common+0x236>
    2d26:	f109 0208 	add.w	r2, r9, #8
    2d2a:	e79b      	b.n	2c64 <__gnu_unwind_pr_common+0xc0>
    2d2c:	210d      	movs	r1, #13
    2d2e:	4630      	mov	r0, r6
    2d30:	f7ff fec4 	bl	2abc <_Unwind_GetGR>
    2d34:	6a2c      	ldr	r4, [r5, #32]
    2d36:	4284      	cmp	r4, r0
    2d38:	d1f5      	bne.n	2d26 <__gnu_unwind_pr_common+0x182>
    2d3a:	6aab      	ldr	r3, [r5, #40]	@ 0x28
    2d3c:	4599      	cmp	r9, r3
    2d3e:	d1f2      	bne.n	2d26 <__gnu_unwind_pr_common+0x182>
    2d40:	4648      	mov	r0, r9
    2d42:	f7ff fccf 	bl	26e4 <selfrel_offset31>
    2d46:	210f      	movs	r1, #15
    2d48:	4602      	mov	r2, r0
    2d4a:	4630      	mov	r0, r6
    2d4c:	f7ff fede 	bl	2b0c <_Unwind_SetGR>
    2d50:	462a      	mov	r2, r5
    2d52:	2100      	movs	r1, #0
    2d54:	4630      	mov	r0, r6
    2d56:	f7ff fed9 	bl	2b0c <_Unwind_SetGR>
    2d5a:	e79e      	b.n	2c9a <__gnu_unwind_pr_common+0xf6>
    2d5c:	210d      	movs	r1, #13
    2d5e:	4630      	mov	r0, r6
    2d60:	f7ff feac 	bl	2abc <_Unwind_GetGR>
    2d64:	6a2f      	ldr	r7, [r5, #32]
    2d66:	4287      	cmp	r7, r0
    2d68:	d1b7      	bne.n	2cda <__gnu_unwind_pr_common+0x136>
    2d6a:	6aab      	ldr	r3, [r5, #40]	@ 0x28
    2d6c:	4599      	cmp	r9, r3
    2d6e:	d1b4      	bne.n	2cda <__gnu_unwind_pr_common+0x136>
    2d70:	2400      	movs	r4, #0
    2d72:	2304      	movs	r3, #4
    2d74:	e9c5 430b 	strd	r4, r3, [r5, #44]	@ 0x2c
    2d78:	444b      	add	r3, r9
    2d7a:	f8c5 8028 	str.w	r8, [r5, #40]	@ 0x28
    2d7e:	636b      	str	r3, [r5, #52]	@ 0x34
    2d80:	f8d9 3000 	ldr.w	r3, [r9]
    2d84:	42a3      	cmp	r3, r4
    2d86:	db59      	blt.n	2e3c <__gnu_unwind_pr_common+0x298>
    2d88:	2301      	movs	r3, #1
    2d8a:	9302      	str	r3, [sp, #8]
    2d8c:	e7a9      	b.n	2ce2 <__gnu_unwind_pr_common+0x13e>
    2d8e:	f105 0358 	add.w	r3, r5, #88	@ 0x58
    2d92:	f8cd b00c 	str.w	fp, [sp, #12]
    2d96:	2400      	movs	r4, #0
    2d98:	46b3      	mov	fp, r6
    2d9a:	f109 0704 	add.w	r7, r9, #4
    2d9e:	461e      	mov	r6, r3
    2da0:	e00b      	b.n	2dba <__gnu_unwind_pr_common+0x216>
    2da2:	4638      	mov	r0, r7
    2da4:	9604      	str	r6, [sp, #16]
    2da6:	f7ff fd65 	bl	2874 <_Unwind_decode_typeinfo_ptr.constprop.0>
    2daa:	2200      	movs	r2, #0
    2dac:	4601      	mov	r1, r0
    2dae:	ab04      	add	r3, sp, #16
    2db0:	4628      	mov	r0, r5
    2db2:	f3af 8000 	nop.w
    2db6:	3704      	adds	r7, #4
    2db8:	bb00      	cbnz	r0, 2dfc <__gnu_unwind_pr_common+0x258>
    2dba:	4544      	cmp	r4, r8
    2dbc:	f104 0401 	add.w	r4, r4, #1
    2dc0:	d1ef      	bne.n	2da2 <__gnu_unwind_pr_common+0x1fe>
    2dc2:	210d      	movs	r1, #13
    2dc4:	4658      	mov	r0, fp
    2dc6:	f7ff fe79 	bl	2abc <_Unwind_GetGR>
    2dca:	4602      	mov	r2, r0
    2dcc:	9b04      	ldr	r3, [sp, #16]
    2dce:	2006      	movs	r0, #6
    2dd0:	e9c5 2308 	strd	r2, r3, [r5, #32]
    2dd4:	f8c5 9028 	str.w	r9, [r5, #40]	@ 0x28
    2dd8:	e762      	b.n	2ca0 <__gnu_unwind_pr_common+0xfc>
    2dda:	4604      	mov	r4, r0
    2ddc:	210d      	movs	r1, #13
    2dde:	4630      	mov	r0, r6
    2de0:	f7ff fe6c 	bl	2abc <_Unwind_GetGR>
    2de4:	9e04      	ldr	r6, [sp, #16]
    2de6:	2c02      	cmp	r4, #2
    2de8:	bf08      	it	eq
    2dea:	62ee      	streq	r6, [r5, #44]	@ 0x2c
    2dec:	6228      	str	r0, [r5, #32]
    2dee:	bf08      	it	eq
    2df0:	f105 062c 	addeq.w	r6, r5, #44	@ 0x2c
    2df4:	2006      	movs	r0, #6
    2df6:	e9c5 6909 	strd	r6, r9, [r5, #36]	@ 0x24
    2dfa:	e751      	b.n	2ca0 <__gnu_unwind_pr_common+0xfc>
    2dfc:	465e      	mov	r6, fp
    2dfe:	f8d9 4000 	ldr.w	r4, [r9]
    2e02:	f8dd b00c 	ldr.w	fp, [sp, #12]
    2e06:	e768      	b.n	2cda <__gnu_unwind_pr_common+0x136>
    2e08:	4648      	mov	r0, r9
    2e0a:	f7ff fc6b 	bl	26e4 <selfrel_offset31>
    2e0e:	f109 0204 	add.w	r2, r9, #4
    2e12:	4604      	mov	r4, r0
    2e14:	63aa      	str	r2, [r5, #56]	@ 0x38
    2e16:	4628      	mov	r0, r5
    2e18:	f3af 8000 	nop.w
    2e1c:	2800      	cmp	r0, #0
    2e1e:	f43f af3e 	beq.w	2c9e <__gnu_unwind_pr_common+0xfa>
    2e22:	4622      	mov	r2, r4
    2e24:	210f      	movs	r1, #15
    2e26:	4630      	mov	r0, r6
    2e28:	f7ff fe70 	bl	2b0c <_Unwind_SetGR>
    2e2c:	e735      	b.n	2c9a <__gnu_unwind_pr_common+0xf6>
    2e2e:	4630      	mov	r0, r6
    2e30:	210d      	movs	r1, #13
    2e32:	f7ff fe43 	bl	2abc <_Unwind_GetGR>
    2e36:	4626      	mov	r6, r4
    2e38:	6228      	str	r0, [r5, #32]
    2e3a:	e7db      	b.n	2df4 <__gnu_unwind_pr_common+0x250>
    2e3c:	f108 0201 	add.w	r2, r8, #1
    2e40:	eb09 0082 	add.w	r0, r9, r2, lsl #2
    2e44:	e77d      	b.n	2d42 <__gnu_unwind_pr_common+0x19e>
    2e46:	bf00      	nop
    2e48:	00000000 	andeq	r0, r0, r0

00002e4c <__aeabi_unwind_cpp_pr0>:
    2e4c:	2300      	movs	r3, #0
    2e4e:	e6a9      	b.n	2ba4 <__gnu_unwind_pr_common>

00002e50 <__aeabi_unwind_cpp_pr1>:
    2e50:	2301      	movs	r3, #1
    2e52:	e6a7      	b.n	2ba4 <__gnu_unwind_pr_common>

00002e54 <__aeabi_unwind_cpp_pr2>:
    2e54:	2302      	movs	r3, #2
    2e56:	e6a5      	b.n	2ba4 <__gnu_unwind_pr_common>

00002e58 <_Unwind_VRS_Pop>:
    2e58:	e92d 41f0 	stmdb	sp!, {r4, r5, r6, r7, r8, lr}
    2e5c:	4605      	mov	r5, r0
    2e5e:	4614      	mov	r4, r2
    2e60:	b0c4      	sub	sp, #272	@ 0x110
    2e62:	2905      	cmp	r1, #5
    2e64:	f200 80d7 	bhi.w	3016 <_Unwind_VRS_Pop+0x1be>
    2e68:	e8df f011 	tbh	[pc, r1, lsl #1]
    2e6c:	002a0012 	eoreq	r0, sl, r2, lsl r0
    2e70:	006900d5 	ldrdeq	r0, [r9], #-5	@ <UNPREDICTABLE>
    2e74:	00060090 	muleq	r6, r0, r0
    2e78:	6b83      	ldr	r3, [r0, #56]	@ 0x38
    2e7a:	2c00      	cmp	r4, #0
    2e7c:	f040 80cb 	bne.w	3016 <_Unwind_VRS_Pop+0x1be>
    2e80:	f853 2b04 	ldr.w	r2, [r3], #4
    2e84:	6442      	str	r2, [r0, #68]	@ 0x44
    2e86:	6383      	str	r3, [r0, #56]	@ 0x38
    2e88:	2000      	movs	r0, #0
    2e8a:	b044      	add	sp, #272	@ 0x110
    2e8c:	e8bd 81f0 	ldmia.w	sp!, {r4, r5, r6, r7, r8, pc}
    2e90:	2b00      	cmp	r3, #0
    2e92:	f040 80c0 	bne.w	3016 <_Unwind_VRS_Pop+0x1be>
    2e96:	f04f 0e01 	mov.w	lr, #1
    2e9a:	6b81      	ldr	r1, [r0, #56]	@ 0x38
    2e9c:	1d2a      	adds	r2, r5, #4
    2e9e:	b2a0      	uxth	r0, r4
    2ea0:	fa0e fc03 	lsl.w	ip, lr, r3
    2ea4:	ea1c 0f00 	tst.w	ip, r0
    2ea8:	bf1c      	itt	ne
    2eaa:	f851 6b04 	ldrne.w	r6, [r1], #4
    2eae:	f842 6023 	strne.w	r6, [r2, r3, lsl #2]
    2eb2:	3301      	adds	r3, #1
    2eb4:	2b10      	cmp	r3, #16
    2eb6:	d1f3      	bne.n	2ea0 <_Unwind_VRS_Pop+0x48>
    2eb8:	04a0      	lsls	r0, r4, #18
    2eba:	d4e5      	bmi.n	2e88 <_Unwind_VRS_Pop+0x30>
    2ebc:	63a9      	str	r1, [r5, #56]	@ 0x38
    2ebe:	e7e3      	b.n	2e88 <_Unwind_VRS_Pop+0x30>
    2ec0:	2b01      	cmp	r3, #1
    2ec2:	ea4f 4714 	mov.w	r7, r4, lsr #16
    2ec6:	b2a4      	uxth	r4, r4
    2ec8:	f000 8085 	beq.w	2fd6 <_Unwind_VRS_Pop+0x17e>
    2ecc:	2b05      	cmp	r3, #5
    2ece:	f040 80a2 	bne.w	3016 <_Unwind_VRS_Pop+0x1be>
    2ed2:	eb07 0804 	add.w	r8, r7, r4
    2ed6:	f1b8 0f20 	cmp.w	r8, #32
    2eda:	f200 809c 	bhi.w	3016 <_Unwind_VRS_Pop+0x1be>
    2ede:	2f0f      	cmp	r7, #15
    2ee0:	f240 809b 	bls.w	301a <_Unwind_VRS_Pop+0x1c2>
    2ee4:	2c00      	cmp	r4, #0
    2ee6:	d0cf      	beq.n	2e88 <_Unwind_VRS_Pop+0x30>
    2ee8:	6802      	ldr	r2, [r0, #0]
    2eea:	0756      	lsls	r6, r2, #29
    2eec:	f100 811a 	bmi.w	3124 <_Unwind_VRS_Pop+0x2cc>
    2ef0:	9301      	str	r3, [sp, #4]
    2ef2:	ae02      	add	r6, sp, #8
    2ef4:	4630      	mov	r0, r6
    2ef6:	f000 f945 	bl	3184 <__gnu_Unwind_Save_VFP_D_16_to_31>
    2efa:	ea4f 0c44 	mov.w	ip, r4, lsl #1
    2efe:	f1a7 0210 	sub.w	r2, r7, #16
    2f02:	6ba8      	ldr	r0, [r5, #56]	@ 0x38
    2f04:	9b01      	ldr	r3, [sp, #4]
    2f06:	f10c 3cff 	add.w	ip, ip, #4294967295	@ 0xffffffff
    2f0a:	eb06 02c2 	add.w	r2, r6, r2, lsl #3
    2f0e:	f10c 0c01 	add.w	ip, ip, #1
    2f12:	3a04      	subs	r2, #4
    2f14:	eb00 018c 	add.w	r1, r0, ip, lsl #2
    2f18:	f850 4b04 	ldr.w	r4, [r0], #4
    2f1c:	4288      	cmp	r0, r1
    2f1e:	f842 4f04 	str.w	r4, [r2, #4]!
    2f22:	d1f9      	bne.n	2f18 <_Unwind_VRS_Pop+0xc0>
    2f24:	2b01      	cmp	r3, #1
    2f26:	f000 80e0 	beq.w	30ea <_Unwind_VRS_Pop+0x292>
    2f2a:	2f0f      	cmp	r7, #15
    2f2c:	63a8      	str	r0, [r5, #56]	@ 0x38
    2f2e:	d802      	bhi.n	2f36 <_Unwind_VRS_Pop+0xde>
    2f30:	a822      	add	r0, sp, #136	@ 0x88
    2f32:	f000 f91b 	bl	316c <__gnu_Unwind_Restore_VFP_D>
    2f36:	4630      	mov	r0, r6
    2f38:	f000 f920 	bl	317c <__gnu_Unwind_Restore_VFP_D_16_to_31>
    2f3c:	e7a4      	b.n	2e88 <_Unwind_VRS_Pop+0x30>
    2f3e:	2b03      	cmp	r3, #3
    2f40:	d169      	bne.n	3016 <_Unwind_VRS_Pop+0x1be>
    2f42:	fa1f f884 	uxth.w	r8, r4
    2f46:	eb08 4314 	add.w	r3, r8, r4, lsr #16
    2f4a:	2b10      	cmp	r3, #16
    2f4c:	ea4f 4414 	mov.w	r4, r4, lsr #16
    2f50:	d861      	bhi.n	3016 <_Unwind_VRS_Pop+0x1be>
    2f52:	6803      	ldr	r3, [r0, #0]
    2f54:	0718      	lsls	r0, r3, #28
    2f56:	f100 80c0 	bmi.w	30da <_Unwind_VRS_Pop+0x282>
    2f5a:	ae22      	add	r6, sp, #136	@ 0x88
    2f5c:	4630      	mov	r0, r6
    2f5e:	f000 f937 	bl	31d0 <__gnu_Unwind_Save_WMMXD>
    2f62:	ea4f 0148 	mov.w	r1, r8, lsl #1
    2f66:	6baf      	ldr	r7, [r5, #56]	@ 0x38
    2f68:	eb06 02c4 	add.w	r2, r6, r4, lsl #3
    2f6c:	1e4b      	subs	r3, r1, #1
    2f6e:	b141      	cbz	r1, 2f82 <_Unwind_VRS_Pop+0x12a>
    2f70:	1ab8      	subs	r0, r7, r2
    2f72:	5811      	ldr	r1, [r2, r0]
    2f74:	3b01      	subs	r3, #1
    2f76:	f842 1b04 	str.w	r1, [r2], #4
    2f7a:	1c59      	adds	r1, r3, #1
    2f7c:	d1f9      	bne.n	2f72 <_Unwind_VRS_Pop+0x11a>
    2f7e:	eb07 07c8 	add.w	r7, r7, r8, lsl #3
    2f82:	4630      	mov	r0, r6
    2f84:	63af      	str	r7, [r5, #56]	@ 0x38
    2f86:	f000 f901 	bl	318c <__gnu_Unwind_Restore_WMMXD>
    2f8a:	e77d      	b.n	2e88 <_Unwind_VRS_Pop+0x30>
    2f8c:	2b00      	cmp	r3, #0
    2f8e:	d142      	bne.n	3016 <_Unwind_VRS_Pop+0x1be>
    2f90:	2c10      	cmp	r4, #16
    2f92:	d840      	bhi.n	3016 <_Unwind_VRS_Pop+0x1be>
    2f94:	6803      	ldr	r3, [r0, #0]
    2f96:	06de      	lsls	r6, r3, #27
    2f98:	f100 8097 	bmi.w	30ca <_Unwind_VRS_Pop+0x272>
    2f9c:	ae22      	add	r6, sp, #136	@ 0x88
    2f9e:	4630      	mov	r0, r6
    2fa0:	f000 f942 	bl	3228 <__gnu_Unwind_Save_WMMXC>
    2fa4:	2701      	movs	r7, #1
    2fa6:	2300      	movs	r3, #0
    2fa8:	4630      	mov	r0, r6
    2faa:	6ba9      	ldr	r1, [r5, #56]	@ 0x38
    2fac:	fa07 f203 	lsl.w	r2, r7, r3
    2fb0:	4222      	tst	r2, r4
    2fb2:	f103 0301 	add.w	r3, r3, #1
    2fb6:	d005      	beq.n	2fc4 <_Unwind_VRS_Pop+0x16c>
    2fb8:	460a      	mov	r2, r1
    2fba:	f852 cb04 	ldr.w	ip, [r2], #4
    2fbe:	4611      	mov	r1, r2
    2fc0:	f8c0 c000 	str.w	ip, [r0]
    2fc4:	2b04      	cmp	r3, #4
    2fc6:	f100 0004 	add.w	r0, r0, #4
    2fca:	d1ef      	bne.n	2fac <_Unwind_VRS_Pop+0x154>
    2fcc:	4630      	mov	r0, r6
    2fce:	63a9      	str	r1, [r5, #56]	@ 0x38
    2fd0:	f000 f920 	bl	3214 <__gnu_Unwind_Restore_WMMXC>
    2fd4:	e758      	b.n	2e88 <_Unwind_VRS_Pop+0x30>
    2fd6:	193a      	adds	r2, r7, r4
    2fd8:	2a10      	cmp	r2, #16
    2fda:	d81c      	bhi.n	3016 <_Unwind_VRS_Pop+0x1be>
    2fdc:	2f10      	cmp	r7, #16
    2fde:	d01a      	beq.n	3016 <_Unwind_VRS_Pop+0x1be>
    2fe0:	6802      	ldr	r2, [r0, #0]
    2fe2:	07d0      	lsls	r0, r2, #31
    2fe4:	d508      	bpl.n	2ff8 <_Unwind_VRS_Pop+0x1a0>
    2fe6:	4628      	mov	r0, r5
    2fe8:	f022 0203 	bic.w	r2, r2, #3
    2fec:	f840 2b50 	str.w	r2, [r0], #80
    2ff0:	9301      	str	r3, [sp, #4]
    2ff2:	f000 f8b7 	bl	3164 <__gnu_Unwind_Save_VFP>
    2ff6:	9b01      	ldr	r3, [sp, #4]
    2ff8:	ae22      	add	r6, sp, #136	@ 0x88
    2ffa:	4630      	mov	r0, r6
    2ffc:	9301      	str	r3, [sp, #4]
    2ffe:	f000 f8b1 	bl	3164 <__gnu_Unwind_Save_VFP>
    3002:	6ba9      	ldr	r1, [r5, #56]	@ 0x38
    3004:	9b01      	ldr	r3, [sp, #4]
    3006:	2c00      	cmp	r4, #0
    3008:	d158      	bne.n	30bc <_Unwind_VRS_Pop+0x264>
    300a:	3104      	adds	r1, #4
    300c:	4630      	mov	r0, r6
    300e:	63a9      	str	r1, [r5, #56]	@ 0x38
    3010:	f000 f8a4 	bl	315c <__gnu_Unwind_Restore_VFP>
    3014:	e738      	b.n	2e88 <_Unwind_VRS_Pop+0x30>
    3016:	2002      	movs	r0, #2
    3018:	e737      	b.n	2e8a <_Unwind_VRS_Pop+0x32>
    301a:	f1b8 0f10 	cmp.w	r8, #16
    301e:	6802      	ldr	r2, [r0, #0]
    3020:	d965      	bls.n	30ee <_Unwind_VRS_Pop+0x296>
    3022:	07d1      	lsls	r1, r2, #31
    3024:	d572      	bpl.n	310c <_Unwind_VRS_Pop+0x2b4>
    3026:	f022 0201 	bic.w	r2, r2, #1
    302a:	f042 0202 	orr.w	r2, r2, #2
    302e:	f840 2b50 	str.w	r2, [r0], #80
    3032:	9301      	str	r3, [sp, #4]
    3034:	f000 f89e 	bl	3174 <__gnu_Unwind_Save_VFP_D>
    3038:	682a      	ldr	r2, [r5, #0]
    303a:	9b01      	ldr	r3, [sp, #4]
    303c:	f012 0f04 	tst.w	r2, #4
    3040:	d166      	bne.n	3110 <_Unwind_VRS_Pop+0x2b8>
    3042:	ae22      	add	r6, sp, #136	@ 0x88
    3044:	4630      	mov	r0, r6
    3046:	9301      	str	r3, [sp, #4]
    3048:	f000 f894 	bl	3174 <__gnu_Unwind_Save_VFP_D>
    304c:	a802      	add	r0, sp, #8
    304e:	f000 f899 	bl	3184 <__gnu_Unwind_Save_VFP_D_16_to_31>
    3052:	f1c7 0210 	rsb	r2, r7, #16
    3056:	0052      	lsls	r2, r2, #1
    3058:	6ba9      	ldr	r1, [r5, #56]	@ 0x38
    305a:	9b01      	ldr	r3, [sp, #4]
    305c:	1e54      	subs	r4, r2, #1
    305e:	f1a8 0c10 	sub.w	ip, r8, #16
    3062:	eb06 02c7 	add.w	r2, r6, r7, lsl #3
    3066:	3401      	adds	r4, #1
    3068:	3a04      	subs	r2, #4
    306a:	eb01 0084 	add.w	r0, r1, r4, lsl #2
    306e:	f851 4b04 	ldr.w	r4, [r1], #4
    3072:	4281      	cmp	r1, r0
    3074:	f842 4f04 	str.w	r4, [r2, #4]!
    3078:	d1f9      	bne.n	306e <_Unwind_VRS_Pop+0x216>
    307a:	f1bc 0f00 	cmp.w	ip, #0
    307e:	d059      	beq.n	3134 <_Unwind_VRS_Pop+0x2dc>
    3080:	2f10      	cmp	r7, #16
    3082:	463a      	mov	r2, r7
    3084:	bf38      	it	cc
    3086:	2210      	movcc	r2, #16
    3088:	ea4f 0c4c 	mov.w	ip, ip, lsl #1
    308c:	ae02      	add	r6, sp, #8
    308e:	3a10      	subs	r2, #16
    3090:	f10c 3cff 	add.w	ip, ip, #4294967295	@ 0xffffffff
    3094:	eb06 02c2 	add.w	r2, r6, r2, lsl #3
    3098:	e739      	b.n	2f0e <_Unwind_VRS_Pop+0xb6>
    309a:	4628      	mov	r0, r5
    309c:	f022 0201 	bic.w	r2, r2, #1
    30a0:	f042 0202 	orr.w	r2, r2, #2
    30a4:	f840 2b50 	str.w	r2, [r0], #80
    30a8:	ae22      	add	r6, sp, #136	@ 0x88
    30aa:	9301      	str	r3, [sp, #4]
    30ac:	f000 f862 	bl	3174 <__gnu_Unwind_Save_VFP_D>
    30b0:	4630      	mov	r0, r6
    30b2:	f000 f85f 	bl	3174 <__gnu_Unwind_Save_VFP_D>
    30b6:	6ba9      	ldr	r1, [r5, #56]	@ 0x38
    30b8:	b324      	cbz	r4, 3104 <_Unwind_VRS_Pop+0x2ac>
    30ba:	9b01      	ldr	r3, [sp, #4]
    30bc:	0064      	lsls	r4, r4, #1
    30be:	f04f 0c00 	mov.w	ip, #0
    30c2:	3c01      	subs	r4, #1
    30c4:	eb06 02c7 	add.w	r2, r6, r7, lsl #3
    30c8:	e7cd      	b.n	3066 <_Unwind_VRS_Pop+0x20e>
    30ca:	f023 0310 	bic.w	r3, r3, #16
    30ce:	6003      	str	r3, [r0, #0]
    30d0:	f500 70ec 	add.w	r0, r0, #472	@ 0x1d8
    30d4:	f000 f8a8 	bl	3228 <__gnu_Unwind_Save_WMMXC>
    30d8:	e760      	b.n	2f9c <_Unwind_VRS_Pop+0x144>
    30da:	f023 0308 	bic.w	r3, r3, #8
    30de:	602b      	str	r3, [r5, #0]
    30e0:	f505 70ac 	add.w	r0, r5, #344	@ 0x158
    30e4:	f000 f874 	bl	31d0 <__gnu_Unwind_Save_WMMXD>
    30e8:	e737      	b.n	2f5a <_Unwind_VRS_Pop+0x102>
    30ea:	ae22      	add	r6, sp, #136	@ 0x88
    30ec:	e78d      	b.n	300a <_Unwind_VRS_Pop+0x1b2>
    30ee:	07d1      	lsls	r1, r2, #31
    30f0:	d4d3      	bmi.n	309a <_Unwind_VRS_Pop+0x242>
    30f2:	ae22      	add	r6, sp, #136	@ 0x88
    30f4:	4630      	mov	r0, r6
    30f6:	9301      	str	r3, [sp, #4]
    30f8:	f000 f83c 	bl	3174 <__gnu_Unwind_Save_VFP_D>
    30fc:	6ba9      	ldr	r1, [r5, #56]	@ 0x38
    30fe:	9b01      	ldr	r3, [sp, #4]
    3100:	2c00      	cmp	r4, #0
    3102:	d1db      	bne.n	30bc <_Unwind_VRS_Pop+0x264>
    3104:	4630      	mov	r0, r6
    3106:	f000 f831 	bl	316c <__gnu_Unwind_Restore_VFP_D>
    310a:	e6bd      	b.n	2e88 <_Unwind_VRS_Pop+0x30>
    310c:	0754      	lsls	r4, r2, #29
    310e:	d598      	bpl.n	3042 <_Unwind_VRS_Pop+0x1ea>
    3110:	4628      	mov	r0, r5
    3112:	f022 0204 	bic.w	r2, r2, #4
    3116:	f840 2bd8 	str.w	r2, [r0], #216
    311a:	9301      	str	r3, [sp, #4]
    311c:	f000 f832 	bl	3184 <__gnu_Unwind_Save_VFP_D_16_to_31>
    3120:	9b01      	ldr	r3, [sp, #4]
    3122:	e78e      	b.n	3042 <_Unwind_VRS_Pop+0x1ea>
    3124:	f022 0204 	bic.w	r2, r2, #4
    3128:	f840 2bd8 	str.w	r2, [r0], #216
    312c:	9301      	str	r3, [sp, #4]
    312e:	f000 f829 	bl	3184 <__gnu_Unwind_Save_VFP_D_16_to_31>
    3132:	e6de      	b.n	2ef2 <_Unwind_VRS_Pop+0x9a>
    3134:	2b01      	cmp	r3, #1
    3136:	f43f af68 	beq.w	300a <_Unwind_VRS_Pop+0x1b2>
    313a:	2f0f      	cmp	r7, #15
    313c:	63a9      	str	r1, [r5, #56]	@ 0x38
    313e:	f63f aea3 	bhi.w	2e88 <_Unwind_VRS_Pop+0x30>
    3142:	e7df      	b.n	3104 <_Unwind_VRS_Pop+0x2ac>

00003144 <__restore_core_regs>:
    3144:	f100 0134 	add.w	r1, r0, #52	@ 0x34
    3148:	e891 0038 	ldmia.w	r1, {r3, r4, r5}
    314c:	469c      	mov	ip, r3
    314e:	46a6      	mov	lr, r4
    3150:	f84c 5d04 	str.w	r5, [ip, #-4]!
    3154:	e890 0fff 	ldmia.w	r0, {r0, r1, r2, r3, r4, r5, r6, r7, r8, r9, sl, fp}
    3158:	46e5      	mov	sp, ip
    315a:	bd00      	pop	{pc}

0000315c <__gnu_Unwind_Restore_VFP>:
    315c:	ec90 0b21 	fldmiax	r0, {d0-d15}	@ Deprecated
    3160:	4770      	bx	lr
    3162:	bf00      	nop

00003164 <__gnu_Unwind_Save_VFP>:
    3164:	ec80 0b21 	fstmiax	r0, {d0-d15}	@ Deprecated
    3168:	4770      	bx	lr
    316a:	bf00      	nop

0000316c <__gnu_Unwind_Restore_VFP_D>:
    316c:	ec90 0b20 	vldmia	r0, {d0-d15}
    3170:	4770      	bx	lr
    3172:	bf00      	nop

00003174 <__gnu_Unwind_Save_VFP_D>:
    3174:	ec80 0b20 	vstmia	r0, {d0-d15}
    3178:	4770      	bx	lr
    317a:	bf00      	nop

0000317c <__gnu_Unwind_Restore_VFP_D_16_to_31>:
    317c:	ecd0 0b20 	vldmia	r0, {d16-d31}
    3180:	4770      	bx	lr
    3182:	bf00      	nop

00003184 <__gnu_Unwind_Save_VFP_D_16_to_31>:
    3184:	ecc0 0b20 	vstmia	r0, {d16-d31}
    3188:	4770      	bx	lr
    318a:	bf00      	nop

0000318c <__gnu_Unwind_Restore_WMMXD>:
    318c:	ecf0 0102 	ldfe	f0, [r0], #8
    3190:	ecf0 1102 	ldfe	f1, [r0], #8
    3194:	ecf0 2102 	ldfe	f2, [r0], #8
    3198:	ecf0 3102 	ldfe	f3, [r0], #8
    319c:	ecf0 4102 	ldfe	f4, [r0], #8
    31a0:	ecf0 5102 	ldfe	f5, [r0], #8
    31a4:	ecf0 6102 	ldfe	f6, [r0], #8
    31a8:	ecf0 7102 	ldfe	f7, [r0], #8
    31ac:	ecf0 8102 	ldfp	f0, [r0], #8
    31b0:	ecf0 9102 	ldfp	f1, [r0], #8
    31b4:	ecf0 a102 	ldfp	f2, [r0], #8
    31b8:	ecf0 b102 	ldfp	f3, [r0], #8
    31bc:	ecf0 c102 	ldfp	f4, [r0], #8
    31c0:	ecf0 d102 	ldfp	f5, [r0], #8
    31c4:	ecf0 e102 	ldfp	f6, [r0], #8
    31c8:	ecf0 f102 	ldfp	f7, [r0], #8
    31cc:	4770      	bx	lr
    31ce:	bf00      	nop

000031d0 <__gnu_Unwind_Save_WMMXD>:
    31d0:	ece0 0102 	stfe	f0, [r0], #8
    31d4:	ece0 1102 	stfe	f1, [r0], #8
    31d8:	ece0 2102 	stfe	f2, [r0], #8
    31dc:	ece0 3102 	stfe	f3, [r0], #8
    31e0:	ece0 4102 	stfe	f4, [r0], #8
    31e4:	ece0 5102 	stfe	f5, [r0], #8
    31e8:	ece0 6102 	stfe	f6, [r0], #8
    31ec:	ece0 7102 	stfe	f7, [r0], #8
    31f0:	ece0 8102 	stfp	f0, [r0], #8
    31f4:	ece0 9102 	stfp	f1, [r0], #8
    31f8:	ece0 a102 	stfp	f2, [r0], #8
    31fc:	ece0 b102 	stfp	f3, [r0], #8
    3200:	ece0 c102 	stfp	f4, [r0], #8
    3204:	ece0 d102 	stfp	f5, [r0], #8
    3208:	ece0 e102 	stfp	f6, [r0], #8
    320c:	ece0 f102 	stfp	f7, [r0], #8
    3210:	4770      	bx	lr
    3212:	bf00      	nop

00003214 <__gnu_Unwind_Restore_WMMXC>:
    3214:	fcb0 8101 	ldc2	1, cr8, [r0], #4
    3218:	fcb0 9101 	ldc2	1, cr9, [r0], #4
    321c:	fcb0 a101 	ldc2	1, cr10, [r0], #4
    3220:	fcb0 b101 	ldc2	1, cr11, [r0], #4
    3224:	4770      	bx	lr
    3226:	bf00      	nop

00003228 <__gnu_Unwind_Save_WMMXC>:
    3228:	fca0 8101 	stc2	1, cr8, [r0], #4
    322c:	fca0 9101 	stc2	1, cr9, [r0], #4
    3230:	fca0 a101 	stc2	1, cr10, [r0], #4
    3234:	fca0 b101 	stc2	1, cr11, [r0], #4
    3238:	4770      	bx	lr
    323a:	bf00      	nop

0000323c <_Unwind_RaiseException>:
    323c:	46ec      	mov	ip, sp
    323e:	b500      	push	{lr}
    3240:	e92d 5000 	stmdb	sp!, {ip, lr}
    3244:	e92d 1fff 	stmdb	sp!, {r0, r1, r2, r3, r4, r5, r6, r7, r8, r9, sl, fp, ip}
    3248:	f04f 0300 	mov.w	r3, #0
    324c:	e92d 000c 	stmdb	sp!, {r2, r3}
    3250:	a901      	add	r1, sp, #4
    3252:	f7ff fba9 	bl	29a8 <__gnu_Unwind_RaiseException>
    3256:	f8dd e040 	ldr.w	lr, [sp, #64]	@ 0x40
    325a:	b012      	add	sp, #72	@ 0x48
    325c:	4770      	bx	lr
    325e:	bf00      	nop

00003260 <_Unwind_Resume>:
    3260:	46ec      	mov	ip, sp
    3262:	b500      	push	{lr}
    3264:	e92d 5000 	stmdb	sp!, {ip, lr}
    3268:	e92d 1fff 	stmdb	sp!, {r0, r1, r2, r3, r4, r5, r6, r7, r8, r9, sl, fp, ip}
    326c:	f04f 0300 	mov.w	r3, #0
    3270:	e92d 000c 	stmdb	sp!, {r2, r3}
    3274:	a901      	add	r1, sp, #4
    3276:	f7ff fbd5 	bl	2a24 <__gnu_Unwind_Resume>
    327a:	f8dd e040 	ldr.w	lr, [sp, #64]	@ 0x40
    327e:	b012      	add	sp, #72	@ 0x48
    3280:	4770      	bx	lr
    3282:	bf00      	nop

00003284 <_Unwind_Resume_or_Rethrow>:
    3284:	46ec      	mov	ip, sp
    3286:	b500      	push	{lr}
    3288:	e92d 5000 	stmdb	sp!, {ip, lr}
    328c:	e92d 1fff 	stmdb	sp!, {r0, r1, r2, r3, r4, r5, r6, r7, r8, r9, sl, fp, ip}
    3290:	f04f 0300 	mov.w	r3, #0
    3294:	e92d 000c 	stmdb	sp!, {r2, r3}
    3298:	a901      	add	r1, sp, #4
    329a:	f7ff fbe3 	bl	2a64 <__gnu_Unwind_Resume_or_Rethrow>
    329e:	f8dd e040 	ldr.w	lr, [sp, #64]	@ 0x40
    32a2:	b012      	add	sp, #72	@ 0x48
    32a4:	4770      	bx	lr
    32a6:	bf00      	nop

000032a8 <_Unwind_ForcedUnwind>:
    32a8:	46ec      	mov	ip, sp
    32aa:	b500      	push	{lr}
    32ac:	e92d 5000 	stmdb	sp!, {ip, lr}
    32b0:	e92d 1fff 	stmdb	sp!, {r0, r1, r2, r3, r4, r5, r6, r7, r8, r9, sl, fp, ip}
    32b4:	f04f 0300 	mov.w	r3, #0
    32b8:	e92d 000c 	stmdb	sp!, {r2, r3}
    32bc:	ab01      	add	r3, sp, #4
    32be:	f7ff fba7 	bl	2a10 <__gnu_Unwind_ForcedUnwind>
    32c2:	f8dd e040 	ldr.w	lr, [sp, #64]	@ 0x40
    32c6:	b012      	add	sp, #72	@ 0x48
    32c8:	4770      	bx	lr
    32ca:	bf00      	nop

000032cc <_Unwind_Backtrace>:
    32cc:	46ec      	mov	ip, sp
    32ce:	b500      	push	{lr}
    32d0:	e92d 5000 	stmdb	sp!, {ip, lr}
    32d4:	e92d 1fff 	stmdb	sp!, {r0, r1, r2, r3, r4, r5, r6, r7, r8, r9, sl, fp, ip}
    32d8:	f04f 0300 	mov.w	r3, #0
    32dc:	e92d 000c 	stmdb	sp!, {r2, r3}
    32e0:	aa01      	add	r2, sp, #4
    32e2:	f7ff fc1f 	bl	2b24 <__gnu_Unwind_Backtrace>
    32e6:	f8dd e040 	ldr.w	lr, [sp, #64]	@ 0x40
    32ea:	b012      	add	sp, #72	@ 0x48
    32ec:	4770      	bx	lr
    32ee:	bf00      	nop

000032f0 <next_unwind_byte>:
    32f0:	7a02      	ldrb	r2, [r0, #8]
    32f2:	4603      	mov	r3, r0
    32f4:	b97a      	cbnz	r2, 3316 <next_unwind_byte+0x26>
    32f6:	7a42      	ldrb	r2, [r0, #9]
    32f8:	b1a2      	cbz	r2, 3324 <next_unwind_byte+0x34>
    32fa:	f04f 0c03 	mov.w	ip, #3
    32fe:	6841      	ldr	r1, [r0, #4]
    3300:	3a01      	subs	r2, #1
    3302:	7242      	strb	r2, [r0, #9]
    3304:	6808      	ldr	r0, [r1, #0]
    3306:	1d0a      	adds	r2, r1, #4
    3308:	605a      	str	r2, [r3, #4]
    330a:	0202      	lsls	r2, r0, #8
    330c:	f883 c008 	strb.w	ip, [r3, #8]
    3310:	0e00      	lsrs	r0, r0, #24
    3312:	601a      	str	r2, [r3, #0]
    3314:	4770      	bx	lr
    3316:	6800      	ldr	r0, [r0, #0]
    3318:	3a01      	subs	r2, #1
    331a:	721a      	strb	r2, [r3, #8]
    331c:	0202      	lsls	r2, r0, #8
    331e:	601a      	str	r2, [r3, #0]
    3320:	0e00      	lsrs	r0, r0, #24
    3322:	4770      	bx	lr
    3324:	20b0      	movs	r0, #176	@ 0xb0
    3326:	4770      	bx	lr

00003328 <_Unwind_GetGR.constprop.0>:
    3328:	2300      	movs	r3, #0
    332a:	b500      	push	{lr}
    332c:	b085      	sub	sp, #20
    332e:	a903      	add	r1, sp, #12
    3330:	9100      	str	r1, [sp, #0]
    3332:	220c      	movs	r2, #12
    3334:	4619      	mov	r1, r3
    3336:	f7ff fba7 	bl	2a88 <_Unwind_VRS_Get>
    333a:	9803      	ldr	r0, [sp, #12]
    333c:	b005      	add	sp, #20
    333e:	f85d fb04 	ldr.w	pc, [sp], #4
    3342:	bf00      	nop

00003344 <unwind_UCB_from_context>:
    3344:	e7f0      	b.n	3328 <_Unwind_GetGR.constprop.0>
    3346:	bf00      	nop

00003348 <__gnu_unwind_execute>:
    3348:	e92d 43f0 	stmdb	sp!, {r4, r5, r6, r7, r8, r9, lr}
    334c:	f04f 0800 	mov.w	r8, #0
    3350:	4606      	mov	r6, r0
    3352:	460d      	mov	r5, r1
    3354:	b085      	sub	sp, #20
    3356:	4628      	mov	r0, r5
    3358:	f7ff ffca 	bl	32f0 <next_unwind_byte>
    335c:	28b0      	cmp	r0, #176	@ 0xb0
    335e:	4604      	mov	r4, r0
    3360:	f000 8112 	beq.w	3588 <__gnu_unwind_execute+0x240>
    3364:	0607      	lsls	r7, r0, #24
    3366:	d55c      	bpl.n	3422 <__gnu_unwind_execute+0xda>
    3368:	f000 03f0 	and.w	r3, r0, #240	@ 0xf0
    336c:	2ba0      	cmp	r3, #160	@ 0xa0
    336e:	d01a      	beq.n	33a6 <__gnu_unwind_execute+0x5e>
    3370:	d830      	bhi.n	33d4 <__gnu_unwind_execute+0x8c>
    3372:	2b80      	cmp	r3, #128	@ 0x80
    3374:	f000 8083 	beq.w	347e <__gnu_unwind_execute+0x136>
    3378:	2b90      	cmp	r3, #144	@ 0x90
    337a:	d127      	bne.n	33cc <__gnu_unwind_execute+0x84>
    337c:	f000 030d 	and.w	r3, r0, #13
    3380:	2b0d      	cmp	r3, #13
    3382:	d023      	beq.n	33cc <__gnu_unwind_execute+0x84>
    3384:	2300      	movs	r3, #0
    3386:	af02      	add	r7, sp, #8
    3388:	4619      	mov	r1, r3
    338a:	f000 020f 	and.w	r2, r0, #15
    338e:	9700      	str	r7, [sp, #0]
    3390:	4630      	mov	r0, r6
    3392:	f7ff fb79 	bl	2a88 <_Unwind_VRS_Get>
    3396:	2300      	movs	r3, #0
    3398:	220d      	movs	r2, #13
    339a:	4619      	mov	r1, r3
    339c:	4630      	mov	r0, r6
    339e:	9700      	str	r7, [sp, #0]
    33a0:	f7ff fb9a 	bl	2ad8 <_Unwind_VRS_Set>
    33a4:	e7d7      	b.n	3356 <__gnu_unwind_execute+0xe>
    33a6:	43c3      	mvns	r3, r0
    33a8:	f44f 627f 	mov.w	r2, #4080	@ 0xff0
    33ac:	f003 0307 	and.w	r3, r3, #7
    33b0:	411a      	asrs	r2, r3
    33b2:	0701      	lsls	r1, r0, #28
    33b4:	f402 627f 	and.w	r2, r2, #4080	@ 0xff0
    33b8:	d501      	bpl.n	33be <__gnu_unwind_execute+0x76>
    33ba:	f442 4280 	orr.w	r2, r2, #16384	@ 0x4000
    33be:	2300      	movs	r3, #0
    33c0:	4630      	mov	r0, r6
    33c2:	4619      	mov	r1, r3
    33c4:	f7ff fd48 	bl	2e58 <_Unwind_VRS_Pop>
    33c8:	2800      	cmp	r0, #0
    33ca:	d0c4      	beq.n	3356 <__gnu_unwind_execute+0xe>
    33cc:	2009      	movs	r0, #9
    33ce:	b005      	add	sp, #20
    33d0:	e8bd 83f0 	ldmia.w	sp!, {r4, r5, r6, r7, r8, r9, pc}
    33d4:	2bb0      	cmp	r3, #176	@ 0xb0
    33d6:	d069      	beq.n	34ac <__gnu_unwind_execute+0x164>
    33d8:	2bc0      	cmp	r3, #192	@ 0xc0
    33da:	d13e      	bne.n	345a <__gnu_unwind_execute+0x112>
    33dc:	28c6      	cmp	r0, #198	@ 0xc6
    33de:	f000 80bf 	beq.w	3560 <__gnu_unwind_execute+0x218>
    33e2:	28c7      	cmp	r0, #199	@ 0xc7
    33e4:	f000 80d5 	beq.w	3592 <__gnu_unwind_execute+0x24a>
    33e8:	f000 03f8 	and.w	r3, r0, #248	@ 0xf8
    33ec:	2bc0      	cmp	r3, #192	@ 0xc0
    33ee:	f000 80e2 	beq.w	35b6 <__gnu_unwind_execute+0x26e>
    33f2:	28c8      	cmp	r0, #200	@ 0xc8
    33f4:	f000 80ed 	beq.w	35d2 <__gnu_unwind_execute+0x28a>
    33f8:	28c9      	cmp	r0, #201	@ 0xc9
    33fa:	d1e7      	bne.n	33cc <__gnu_unwind_execute+0x84>
    33fc:	4628      	mov	r0, r5
    33fe:	f7ff ff77 	bl	32f0 <next_unwind_byte>
    3402:	2305      	movs	r3, #5
    3404:	2101      	movs	r1, #1
    3406:	4604      	mov	r4, r0
    3408:	0322      	lsls	r2, r4, #12
    340a:	f004 040f 	and.w	r4, r4, #15
    340e:	f402 2270 	and.w	r2, r2, #983040	@ 0xf0000
    3412:	440c      	add	r4, r1
    3414:	4630      	mov	r0, r6
    3416:	4322      	orrs	r2, r4
    3418:	f7ff fd1e 	bl	2e58 <_Unwind_VRS_Pop>
    341c:	2800      	cmp	r0, #0
    341e:	d09a      	beq.n	3356 <__gnu_unwind_execute+0xe>
    3420:	e7d4      	b.n	33cc <__gnu_unwind_execute+0x84>
    3422:	0083      	lsls	r3, r0, #2
    3424:	b2db      	uxtb	r3, r3
    3426:	1d1f      	adds	r7, r3, #4
    3428:	2300      	movs	r3, #0
    342a:	f10d 0908 	add.w	r9, sp, #8
    342e:	4619      	mov	r1, r3
    3430:	220d      	movs	r2, #13
    3432:	4630      	mov	r0, r6
    3434:	f8cd 9000 	str.w	r9, [sp]
    3438:	f7ff fb26 	bl	2a88 <_Unwind_VRS_Get>
    343c:	9b02      	ldr	r3, [sp, #8]
    343e:	0660      	lsls	r0, r4, #25
    3440:	bf4c      	ite	mi
    3442:	1bdf      	submi	r7, r3, r7
    3444:	18ff      	addpl	r7, r7, r3
    3446:	2300      	movs	r3, #0
    3448:	220d      	movs	r2, #13
    344a:	4630      	mov	r0, r6
    344c:	4619      	mov	r1, r3
    344e:	f8cd 9000 	str.w	r9, [sp]
    3452:	9702      	str	r7, [sp, #8]
    3454:	f7ff fb40 	bl	2ad8 <_Unwind_VRS_Set>
    3458:	e77d      	b.n	3356 <__gnu_unwind_execute+0xe>
    345a:	f000 03f8 	and.w	r3, r0, #248	@ 0xf8
    345e:	2bd0      	cmp	r3, #208	@ 0xd0
    3460:	d1b4      	bne.n	33cc <__gnu_unwind_execute+0x84>
    3462:	f000 0207 	and.w	r2, r0, #7
    3466:	3201      	adds	r2, #1
    3468:	2305      	movs	r3, #5
    346a:	2101      	movs	r1, #1
    346c:	4630      	mov	r0, r6
    346e:	f442 2200 	orr.w	r2, r2, #524288	@ 0x80000
    3472:	f7ff fcf1 	bl	2e58 <_Unwind_VRS_Pop>
    3476:	2800      	cmp	r0, #0
    3478:	f43f af6d 	beq.w	3356 <__gnu_unwind_execute+0xe>
    347c:	e7a6      	b.n	33cc <__gnu_unwind_execute+0x84>
    347e:	4628      	mov	r0, r5
    3480:	f7ff ff36 	bl	32f0 <next_unwind_byte>
    3484:	0224      	lsls	r4, r4, #8
    3486:	4320      	orrs	r0, r4
    3488:	f5b0 4f00 	cmp.w	r0, #32768	@ 0x8000
    348c:	d09e      	beq.n	33cc <__gnu_unwind_execute+0x84>
    348e:	2300      	movs	r3, #0
    3490:	0104      	lsls	r4, r0, #4
    3492:	4619      	mov	r1, r3
    3494:	4630      	mov	r0, r6
    3496:	b2a2      	uxth	r2, r4
    3498:	f7ff fcde 	bl	2e58 <_Unwind_VRS_Pop>
    349c:	2800      	cmp	r0, #0
    349e:	d195      	bne.n	33cc <__gnu_unwind_execute+0x84>
    34a0:	f414 4f00 	tst.w	r4, #32768	@ 0x8000
    34a4:	bf18      	it	ne
    34a6:	f04f 0801 	movne.w	r8, #1
    34aa:	e754      	b.n	3356 <__gnu_unwind_execute+0xe>
    34ac:	f1a0 03b1 	sub.w	r3, r0, #177	@ 0xb1
    34b0:	2b04      	cmp	r3, #4
    34b2:	f200 80b3 	bhi.w	361c <__gnu_unwind_execute+0x2d4>
    34b6:	e8df f003 	tbb	[pc, r3]
    34ba:	0c161d49 	ldceq	13, cr1, [r6], {73}	@ 0x49
    34be:	23000003 	movwcs	r0, #3
    34c2:	aa03      	add	r2, sp, #12
    34c4:	9200      	str	r2, [sp, #0]
    34c6:	4630      	mov	r0, r6
    34c8:	220d      	movs	r2, #13
    34ca:	4619      	mov	r1, r3
    34cc:	f7ff fadc 	bl	2a88 <_Unwind_VRS_Get>
    34d0:	e741      	b.n	3356 <__gnu_unwind_execute+0xe>
    34d2:	2300      	movs	r3, #0
    34d4:	2105      	movs	r1, #5
    34d6:	4630      	mov	r0, r6
    34d8:	461a      	mov	r2, r3
    34da:	f7ff fcbd 	bl	2e58 <_Unwind_VRS_Pop>
    34de:	2800      	cmp	r0, #0
    34e0:	f43f af39 	beq.w	3356 <__gnu_unwind_execute+0xe>
    34e4:	e772      	b.n	33cc <__gnu_unwind_execute+0x84>
    34e6:	4628      	mov	r0, r5
    34e8:	f7ff ff02 	bl	32f0 <next_unwind_byte>
    34ec:	2301      	movs	r3, #1
    34ee:	4604      	mov	r4, r0
    34f0:	4619      	mov	r1, r3
    34f2:	e789      	b.n	3408 <__gnu_unwind_execute+0xc0>
    34f4:	2300      	movs	r3, #0
    34f6:	f10d 0908 	add.w	r9, sp, #8
    34fa:	220d      	movs	r2, #13
    34fc:	4619      	mov	r1, r3
    34fe:	4630      	mov	r0, r6
    3500:	f8cd 9000 	str.w	r9, [sp]
    3504:	f7ff fac0 	bl	2a88 <_Unwind_VRS_Get>
    3508:	4628      	mov	r0, r5
    350a:	f7ff fef1 	bl	32f0 <next_unwind_byte>
    350e:	0602      	lsls	r2, r0, #24
    3510:	f04f 0702 	mov.w	r7, #2
    3514:	9c02      	ldr	r4, [sp, #8]
    3516:	d50b      	bpl.n	3530 <__gnu_unwind_execute+0x1e8>
    3518:	f000 007f 	and.w	r0, r0, #127	@ 0x7f
    351c:	40b8      	lsls	r0, r7
    351e:	4404      	add	r4, r0
    3520:	4628      	mov	r0, r5
    3522:	9402      	str	r4, [sp, #8]
    3524:	f7ff fee4 	bl	32f0 <next_unwind_byte>
    3528:	0603      	lsls	r3, r0, #24
    352a:	f107 0707 	add.w	r7, r7, #7
    352e:	d4f3      	bmi.n	3518 <__gnu_unwind_execute+0x1d0>
    3530:	2300      	movs	r3, #0
    3532:	40b8      	lsls	r0, r7
    3534:	f504 7401 	add.w	r4, r4, #516	@ 0x204
    3538:	4404      	add	r4, r0
    353a:	220d      	movs	r2, #13
    353c:	4630      	mov	r0, r6
    353e:	4619      	mov	r1, r3
    3540:	f8cd 9000 	str.w	r9, [sp]
    3544:	9402      	str	r4, [sp, #8]
    3546:	f7ff fac7 	bl	2ad8 <_Unwind_VRS_Set>
    354a:	e704      	b.n	3356 <__gnu_unwind_execute+0xe>
    354c:	4628      	mov	r0, r5
    354e:	f7ff fecf 	bl	32f0 <next_unwind_byte>
    3552:	1e43      	subs	r3, r0, #1
    3554:	b2db      	uxtb	r3, r3
    3556:	2b0e      	cmp	r3, #14
    3558:	4602      	mov	r2, r0
    355a:	f67f af30 	bls.w	33be <__gnu_unwind_execute+0x76>
    355e:	e735      	b.n	33cc <__gnu_unwind_execute+0x84>
    3560:	4628      	mov	r0, r5
    3562:	f7ff fec5 	bl	32f0 <next_unwind_byte>
    3566:	4604      	mov	r4, r0
    3568:	2303      	movs	r3, #3
    356a:	0322      	lsls	r2, r4, #12
    356c:	f004 040f 	and.w	r4, r4, #15
    3570:	f402 2270 	and.w	r2, r2, #983040	@ 0xf0000
    3574:	3401      	adds	r4, #1
    3576:	4619      	mov	r1, r3
    3578:	4630      	mov	r0, r6
    357a:	4322      	orrs	r2, r4
    357c:	f7ff fc6c 	bl	2e58 <_Unwind_VRS_Pop>
    3580:	2800      	cmp	r0, #0
    3582:	f43f aee8 	beq.w	3356 <__gnu_unwind_execute+0xe>
    3586:	e721      	b.n	33cc <__gnu_unwind_execute+0x84>
    3588:	f1b8 0f00 	cmp.w	r8, #0
    358c:	d036      	beq.n	35fc <__gnu_unwind_execute+0x2b4>
    358e:	2000      	movs	r0, #0
    3590:	e71d      	b.n	33ce <__gnu_unwind_execute+0x86>
    3592:	4628      	mov	r0, r5
    3594:	f7ff feac 	bl	32f0 <next_unwind_byte>
    3598:	1e43      	subs	r3, r0, #1
    359a:	b2db      	uxtb	r3, r3
    359c:	2b0e      	cmp	r3, #14
    359e:	4602      	mov	r2, r0
    35a0:	f63f af14 	bhi.w	33cc <__gnu_unwind_execute+0x84>
    35a4:	2300      	movs	r3, #0
    35a6:	2104      	movs	r1, #4
    35a8:	4630      	mov	r0, r6
    35aa:	f7ff fc55 	bl	2e58 <_Unwind_VRS_Pop>
    35ae:	2800      	cmp	r0, #0
    35b0:	f43f aed1 	beq.w	3356 <__gnu_unwind_execute+0xe>
    35b4:	e70a      	b.n	33cc <__gnu_unwind_execute+0x84>
    35b6:	2303      	movs	r3, #3
    35b8:	f000 020f 	and.w	r2, r0, #15
    35bc:	3201      	adds	r2, #1
    35be:	4630      	mov	r0, r6
    35c0:	4619      	mov	r1, r3
    35c2:	f442 2220 	orr.w	r2, r2, #655360	@ 0xa0000
    35c6:	f7ff fc47 	bl	2e58 <_Unwind_VRS_Pop>
    35ca:	2800      	cmp	r0, #0
    35cc:	f43f aec3 	beq.w	3356 <__gnu_unwind_execute+0xe>
    35d0:	e6fc      	b.n	33cc <__gnu_unwind_execute+0x84>
    35d2:	4628      	mov	r0, r5
    35d4:	f7ff fe8c 	bl	32f0 <next_unwind_byte>
    35d8:	4602      	mov	r2, r0
    35da:	2101      	movs	r1, #1
    35dc:	f002 04f0 	and.w	r4, r2, #240	@ 0xf0
    35e0:	f002 020f 	and.w	r2, r2, #15
    35e4:	3410      	adds	r4, #16
    35e6:	440a      	add	r2, r1
    35e8:	2305      	movs	r3, #5
    35ea:	4630      	mov	r0, r6
    35ec:	ea42 3204 	orr.w	r2, r2, r4, lsl #12
    35f0:	f7ff fc32 	bl	2e58 <_Unwind_VRS_Pop>
    35f4:	2800      	cmp	r0, #0
    35f6:	f43f aeae 	beq.w	3356 <__gnu_unwind_execute+0xe>
    35fa:	e6e7      	b.n	33cc <__gnu_unwind_execute+0x84>
    35fc:	ac02      	add	r4, sp, #8
    35fe:	4643      	mov	r3, r8
    3600:	4641      	mov	r1, r8
    3602:	220e      	movs	r2, #14
    3604:	4630      	mov	r0, r6
    3606:	9400      	str	r4, [sp, #0]
    3608:	f7ff fa3e 	bl	2a88 <_Unwind_VRS_Get>
    360c:	220f      	movs	r2, #15
    360e:	4643      	mov	r3, r8
    3610:	4641      	mov	r1, r8
    3612:	4630      	mov	r0, r6
    3614:	9400      	str	r4, [sp, #0]
    3616:	f7ff fa5f 	bl	2ad8 <_Unwind_VRS_Set>
    361a:	e7b8      	b.n	358e <__gnu_unwind_execute+0x246>
    361c:	f000 03fc 	and.w	r3, r0, #252	@ 0xfc
    3620:	2bb4      	cmp	r3, #180	@ 0xb4
    3622:	f43f aed3 	beq.w	33cc <__gnu_unwind_execute+0x84>
    3626:	2301      	movs	r3, #1
    3628:	f000 0207 	and.w	r2, r0, #7
    362c:	441a      	add	r2, r3
    362e:	4630      	mov	r0, r6
    3630:	4619      	mov	r1, r3
    3632:	f442 2200 	orr.w	r2, r2, #524288	@ 0x80000
    3636:	f7ff fc0f 	bl	2e58 <_Unwind_VRS_Pop>
    363a:	2800      	cmp	r0, #0
    363c:	f43f ae8b 	beq.w	3356 <__gnu_unwind_execute+0xe>
    3640:	e6c4      	b.n	33cc <__gnu_unwind_execute+0x84>
    3642:	bf00      	nop

00003644 <__gnu_unwind_frame>:
    3644:	460b      	mov	r3, r1
    3646:	f04f 0c03 	mov.w	ip, #3
    364a:	b500      	push	{lr}
    364c:	6cc2      	ldr	r2, [r0, #76]	@ 0x4c
    364e:	4618      	mov	r0, r3
    3650:	6853      	ldr	r3, [r2, #4]
    3652:	b085      	sub	sp, #20
    3654:	3208      	adds	r2, #8
    3656:	9202      	str	r2, [sp, #8]
    3658:	a901      	add	r1, sp, #4
    365a:	0e1a      	lsrs	r2, r3, #24
    365c:	021b      	lsls	r3, r3, #8
    365e:	f88d c00c 	strb.w	ip, [sp, #12]
    3662:	9301      	str	r3, [sp, #4]
    3664:	f88d 200d 	strb.w	r2, [sp, #13]
    3668:	f7ff fe6e 	bl	3348 <__gnu_unwind_execute>
    366c:	b005      	add	sp, #20
    366e:	f85d fb04 	ldr.w	pc, [sp], #4
    3672:	bf00      	nop

00003674 <_Unwind_GetRegionStart>:
    3674:	b508      	push	{r3, lr}
    3676:	f7ff fe65 	bl	3344 <unwind_UCB_from_context>
    367a:	6c80      	ldr	r0, [r0, #72]	@ 0x48
    367c:	bd08      	pop	{r3, pc}
    367e:	bf00      	nop

00003680 <_Unwind_GetLanguageSpecificData>:
    3680:	b508      	push	{r3, lr}
    3682:	f7ff fe5f 	bl	3344 <unwind_UCB_from_context>
    3686:	6cc0      	ldr	r0, [r0, #76]	@ 0x4c
    3688:	79c3      	ldrb	r3, [r0, #7]
    368a:	eb00 0083 	add.w	r0, r0, r3, lsl #2
    368e:	3008      	adds	r0, #8
    3690:	bd08      	pop	{r3, pc}
    3692:	bf00      	nop

00003694 <memset>:
    3694:	b570      	push	{r4, r5, r6, lr}
    3696:	0786      	lsls	r6, r0, #30
    3698:	d047      	beq.n	372a <memset+0x96>
    369a:	1e54      	subs	r4, r2, #1
    369c:	2a00      	cmp	r2, #0
    369e:	d03e      	beq.n	371e <memset+0x8a>
    36a0:	4603      	mov	r3, r0
    36a2:	b2ca      	uxtb	r2, r1
    36a4:	e001      	b.n	36aa <memset+0x16>
    36a6:	3c01      	subs	r4, #1
    36a8:	d339      	bcc.n	371e <memset+0x8a>
    36aa:	f803 2b01 	strb.w	r2, [r3], #1
    36ae:	079d      	lsls	r5, r3, #30
    36b0:	d1f9      	bne.n	36a6 <memset+0x12>
    36b2:	2c03      	cmp	r4, #3
    36b4:	d92c      	bls.n	3710 <memset+0x7c>
    36b6:	b2cd      	uxtb	r5, r1
    36b8:	eb05 2505 	add.w	r5, r5, r5, lsl #8
    36bc:	2c0f      	cmp	r4, #15
    36be:	461a      	mov	r2, r3
    36c0:	eb05 4505 	add.w	r5, r5, r5, lsl #16
    36c4:	d934      	bls.n	3730 <memset+0x9c>
    36c6:	f1a4 0c10 	sub.w	ip, r4, #16
    36ca:	f02c 060f 	bic.w	r6, ip, #15
    36ce:	f103 0e10 	add.w	lr, r3, #16
    36d2:	44b6      	add	lr, r6
    36d4:	ea4f 1c1c 	mov.w	ip, ip, lsr #4
    36d8:	e9c2 5500 	strd	r5, r5, [r2]
    36dc:	e9c2 5502 	strd	r5, r5, [r2, #8]
    36e0:	3210      	adds	r2, #16
    36e2:	4572      	cmp	r2, lr
    36e4:	d1f8      	bne.n	36d8 <memset+0x44>
    36e6:	f10c 0201 	add.w	r2, ip, #1
    36ea:	f014 0f0c 	tst.w	r4, #12
    36ee:	eb03 1202 	add.w	r2, r3, r2, lsl #4
    36f2:	f004 0c0f 	and.w	ip, r4, #15
    36f6:	d013      	beq.n	3720 <memset+0x8c>
    36f8:	f1ac 0304 	sub.w	r3, ip, #4
    36fc:	f023 0303 	bic.w	r3, r3, #3
    3700:	3304      	adds	r3, #4
    3702:	4413      	add	r3, r2
    3704:	f842 5b04 	str.w	r5, [r2], #4
    3708:	4293      	cmp	r3, r2
    370a:	d1fb      	bne.n	3704 <memset+0x70>
    370c:	f00c 0403 	and.w	r4, ip, #3
    3710:	b12c      	cbz	r4, 371e <memset+0x8a>
    3712:	b2c9      	uxtb	r1, r1
    3714:	441c      	add	r4, r3
    3716:	f803 1b01 	strb.w	r1, [r3], #1
    371a:	42a3      	cmp	r3, r4
    371c:	d1fb      	bne.n	3716 <memset+0x82>
    371e:	bd70      	pop	{r4, r5, r6, pc}
    3720:	4664      	mov	r4, ip
    3722:	4613      	mov	r3, r2
    3724:	2c00      	cmp	r4, #0
    3726:	d1f4      	bne.n	3712 <memset+0x7e>
    3728:	e7f9      	b.n	371e <memset+0x8a>
    372a:	4603      	mov	r3, r0
    372c:	4614      	mov	r4, r2
    372e:	e7c0      	b.n	36b2 <memset+0x1e>
    3730:	46a4      	mov	ip, r4
    3732:	e7e1      	b.n	36f8 <memset+0x64>

00003734 <sbrk_aligned>:
    3734:	b570      	push	{r4, r5, r6, lr}
    3736:	4e11      	ldr	r6, [pc, #68]	@ (377c <sbrk_aligned+0x48>)
    3738:	4605      	mov	r5, r0
    373a:	6833      	ldr	r3, [r6, #0]
    373c:	460c      	mov	r4, r1
    373e:	b1bb      	cbz	r3, 3770 <sbrk_aligned+0x3c>
    3740:	4621      	mov	r1, r4
    3742:	4628      	mov	r0, r5
    3744:	f000 f986 	bl	3a54 <_sbrk_r>
    3748:	1c43      	adds	r3, r0, #1
    374a:	4601      	mov	r1, r0
    374c:	d00c      	beq.n	3768 <sbrk_aligned+0x34>
    374e:	1cc4      	adds	r4, r0, #3
    3750:	f024 0403 	bic.w	r4, r4, #3
    3754:	42a0      	cmp	r0, r4
    3756:	d005      	beq.n	3764 <sbrk_aligned+0x30>
    3758:	4628      	mov	r0, r5
    375a:	1a61      	subs	r1, r4, r1
    375c:	f000 f97a 	bl	3a54 <_sbrk_r>
    3760:	3001      	adds	r0, #1
    3762:	d001      	beq.n	3768 <sbrk_aligned+0x34>
    3764:	4620      	mov	r0, r4
    3766:	bd70      	pop	{r4, r5, r6, pc}
    3768:	f04f 34ff 	mov.w	r4, #4294967295	@ 0xffffffff
    376c:	4620      	mov	r0, r4
    376e:	bd70      	pop	{r4, r5, r6, pc}
    3770:	4619      	mov	r1, r3
    3772:	f000 f96f 	bl	3a54 <_sbrk_r>
    3776:	6030      	str	r0, [r6, #0]
    3778:	e7e2      	b.n	3740 <sbrk_aligned+0xc>
    377a:	bf00      	nop
    377c:	20000070 	andcs	r0, r0, r0, ror r0

00003780 <_malloc_r>:
    3780:	e92d 43f8 	stmdb	sp!, {r3, r4, r5, r6, r7, r8, r9, lr}
    3784:	1ccd      	adds	r5, r1, #3
    3786:	f025 0503 	bic.w	r5, r5, #3
    378a:	3508      	adds	r5, #8
    378c:	2d0c      	cmp	r5, #12
    378e:	bf38      	it	cc
    3790:	250c      	movcc	r5, #12
    3792:	2d00      	cmp	r5, #0
    3794:	4606      	mov	r6, r0
    3796:	db18      	blt.n	37ca <_malloc_r+0x4a>
    3798:	42a9      	cmp	r1, r5
    379a:	d816      	bhi.n	37ca <_malloc_r+0x4a>
    379c:	f8df 80dc 	ldr.w	r8, [pc, #220]	@ 387c <_malloc_r+0xfc>
    37a0:	f000 f942 	bl	3a28 <__malloc_lock>
    37a4:	f8d8 2004 	ldr.w	r2, [r8, #4]
    37a8:	b1a2      	cbz	r2, 37d4 <_malloc_r+0x54>
    37aa:	4614      	mov	r4, r2
    37ac:	e003      	b.n	37b6 <_malloc_r+0x36>
    37ae:	6863      	ldr	r3, [r4, #4]
    37b0:	4622      	mov	r2, r4
    37b2:	b17b      	cbz	r3, 37d4 <_malloc_r+0x54>
    37b4:	461c      	mov	r4, r3
    37b6:	6823      	ldr	r3, [r4, #0]
    37b8:	1b5b      	subs	r3, r3, r5
    37ba:	d4f8      	bmi.n	37ae <_malloc_r+0x2e>
    37bc:	2b0b      	cmp	r3, #11
    37be:	d81f      	bhi.n	3800 <_malloc_r+0x80>
    37c0:	4294      	cmp	r4, r2
    37c2:	6863      	ldr	r3, [r4, #4]
    37c4:	d054      	beq.n	3870 <_malloc_r+0xf0>
    37c6:	6053      	str	r3, [r2, #4]
    37c8:	e00c      	b.n	37e4 <_malloc_r+0x64>
    37ca:	230c      	movs	r3, #12
    37cc:	6033      	str	r3, [r6, #0]
    37ce:	2000      	movs	r0, #0
    37d0:	e8bd 83f8 	ldmia.w	sp!, {r3, r4, r5, r6, r7, r8, r9, pc}
    37d4:	4629      	mov	r1, r5
    37d6:	4630      	mov	r0, r6
    37d8:	f7ff ffac 	bl	3734 <sbrk_aligned>
    37dc:	1c43      	adds	r3, r0, #1
    37de:	4604      	mov	r4, r0
    37e0:	d019      	beq.n	3816 <_malloc_r+0x96>
    37e2:	6005      	str	r5, [r0, #0]
    37e4:	4630      	mov	r0, r6
    37e6:	f000 f921 	bl	3a2c <__malloc_unlock>
    37ea:	f104 000b 	add.w	r0, r4, #11
    37ee:	1d23      	adds	r3, r4, #4
    37f0:	f020 0007 	bic.w	r0, r0, #7
    37f4:	1ac2      	subs	r2, r0, r3
    37f6:	bf1c      	itt	ne
    37f8:	1a1b      	subne	r3, r3, r0
    37fa:	50a3      	strne	r3, [r4, r2]
    37fc:	e8bd 83f8 	ldmia.w	sp!, {r3, r4, r5, r6, r7, r8, r9, pc}
    3800:	1961      	adds	r1, r4, r5
    3802:	4294      	cmp	r4, r2
    3804:	6025      	str	r5, [r4, #0]
    3806:	bf14      	ite	ne
    3808:	6051      	strne	r1, [r2, #4]
    380a:	f8c8 1004 	streq.w	r1, [r8, #4]
    380e:	5163      	str	r3, [r4, r5]
    3810:	6863      	ldr	r3, [r4, #4]
    3812:	604b      	str	r3, [r1, #4]
    3814:	e7e6      	b.n	37e4 <_malloc_r+0x64>
    3816:	f8d8 7004 	ldr.w	r7, [r8, #4]
    381a:	b31f      	cbz	r7, 3864 <_malloc_r+0xe4>
    381c:	463c      	mov	r4, r7
    381e:	687f      	ldr	r7, [r7, #4]
    3820:	2f00      	cmp	r7, #0
    3822:	d1fb      	bne.n	381c <_malloc_r+0x9c>
    3824:	6823      	ldr	r3, [r4, #0]
    3826:	4639      	mov	r1, r7
    3828:	4630      	mov	r0, r6
    382a:	eb04 0903 	add.w	r9, r4, r3
    382e:	f000 f911 	bl	3a54 <_sbrk_r>
    3832:	4581      	cmp	r9, r0
    3834:	d116      	bne.n	3864 <_malloc_r+0xe4>
    3836:	6823      	ldr	r3, [r4, #0]
    3838:	4630      	mov	r0, r6
    383a:	1aed      	subs	r5, r5, r3
    383c:	4629      	mov	r1, r5
    383e:	f7ff ff79 	bl	3734 <sbrk_aligned>
    3842:	3001      	adds	r0, #1
    3844:	d00e      	beq.n	3864 <_malloc_r+0xe4>
    3846:	6823      	ldr	r3, [r4, #0]
    3848:	f8d8 2004 	ldr.w	r2, [r8, #4]
    384c:	442b      	add	r3, r5
    384e:	6023      	str	r3, [r4, #0]
    3850:	6853      	ldr	r3, [r2, #4]
    3852:	b183      	cbz	r3, 3876 <_malloc_r+0xf6>
    3854:	42a3      	cmp	r3, r4
    3856:	d003      	beq.n	3860 <_malloc_r+0xe0>
    3858:	461a      	mov	r2, r3
    385a:	685b      	ldr	r3, [r3, #4]
    385c:	429c      	cmp	r4, r3
    385e:	d1fb      	bne.n	3858 <_malloc_r+0xd8>
    3860:	2300      	movs	r3, #0
    3862:	e7b0      	b.n	37c6 <_malloc_r+0x46>
    3864:	230c      	movs	r3, #12
    3866:	4630      	mov	r0, r6
    3868:	6033      	str	r3, [r6, #0]
    386a:	f000 f8df 	bl	3a2c <__malloc_unlock>
    386e:	e7ae      	b.n	37ce <_malloc_r+0x4e>
    3870:	f8c8 3004 	str.w	r3, [r8, #4]
    3874:	e7b6      	b.n	37e4 <_malloc_r+0x64>
    3876:	f8c8 7004 	str.w	r7, [r8, #4]
    387a:	e7b3      	b.n	37e4 <_malloc_r+0x64>
    387c:	20000070 	andcs	r0, r0, r0, ror r0

00003880 <_free_r>:
    3880:	2900      	cmp	r1, #0
    3882:	d050      	beq.n	3926 <_free_r+0xa6>
    3884:	b538      	push	{r3, r4, r5, lr}
    3886:	f851 3c04 	ldr.w	r3, [r1, #-4]
    388a:	1f0c      	subs	r4, r1, #4
    388c:	2b00      	cmp	r3, #0
    388e:	bfb8      	it	lt
    3890:	18e4      	addlt	r4, r4, r3
    3892:	4605      	mov	r5, r0
    3894:	f000 f8c8 	bl	3a28 <__malloc_lock>
    3898:	4a27      	ldr	r2, [pc, #156]	@ (3938 <_free_r+0xb8>)
    389a:	6813      	ldr	r3, [r2, #0]
    389c:	b12b      	cbz	r3, 38aa <_free_r+0x2a>
    389e:	42a3      	cmp	r3, r4
    38a0:	d90c      	bls.n	38bc <_free_r+0x3c>
    38a2:	6821      	ldr	r1, [r4, #0]
    38a4:	1860      	adds	r0, r4, r1
    38a6:	4283      	cmp	r3, r0
    38a8:	d02c      	beq.n	3904 <_free_r+0x84>
    38aa:	4628      	mov	r0, r5
    38ac:	6063      	str	r3, [r4, #4]
    38ae:	6014      	str	r4, [r2, #0]
    38b0:	e8bd 4038 	ldmia.w	sp!, {r3, r4, r5, lr}
    38b4:	f000 b8ba 	b.w	3a2c <__malloc_unlock>
    38b8:	42a3      	cmp	r3, r4
    38ba:	d80f      	bhi.n	38dc <_free_r+0x5c>
    38bc:	461a      	mov	r2, r3
    38be:	685b      	ldr	r3, [r3, #4]
    38c0:	2b00      	cmp	r3, #0
    38c2:	d1f9      	bne.n	38b8 <_free_r+0x38>
    38c4:	6811      	ldr	r1, [r2, #0]
    38c6:	1850      	adds	r0, r2, r1
    38c8:	4284      	cmp	r4, r0
    38ca:	d017      	beq.n	38fc <_free_r+0x7c>
    38cc:	d32c      	bcc.n	3928 <_free_r+0xa8>
    38ce:	6063      	str	r3, [r4, #4]
    38d0:	6054      	str	r4, [r2, #4]
    38d2:	4628      	mov	r0, r5
    38d4:	e8bd 4038 	ldmia.w	sp!, {r3, r4, r5, lr}
    38d8:	f000 b8a8 	b.w	3a2c <__malloc_unlock>
    38dc:	6811      	ldr	r1, [r2, #0]
    38de:	1850      	adds	r0, r2, r1
    38e0:	42a0      	cmp	r0, r4
    38e2:	d014      	beq.n	390e <_free_r+0x8e>
    38e4:	d820      	bhi.n	3928 <_free_r+0xa8>
    38e6:	6821      	ldr	r1, [r4, #0]
    38e8:	1860      	adds	r0, r4, r1
    38ea:	4283      	cmp	r3, r0
    38ec:	d1ef      	bne.n	38ce <_free_r+0x4e>
    38ee:	6818      	ldr	r0, [r3, #0]
    38f0:	685b      	ldr	r3, [r3, #4]
    38f2:	4408      	add	r0, r1
    38f4:	e9c4 0300 	strd	r0, r3, [r4]
    38f8:	6054      	str	r4, [r2, #4]
    38fa:	e7ea      	b.n	38d2 <_free_r+0x52>
    38fc:	6823      	ldr	r3, [r4, #0]
    38fe:	440b      	add	r3, r1
    3900:	6013      	str	r3, [r2, #0]
    3902:	e7e6      	b.n	38d2 <_free_r+0x52>
    3904:	6818      	ldr	r0, [r3, #0]
    3906:	685b      	ldr	r3, [r3, #4]
    3908:	4408      	add	r0, r1
    390a:	6020      	str	r0, [r4, #0]
    390c:	e7cd      	b.n	38aa <_free_r+0x2a>
    390e:	6820      	ldr	r0, [r4, #0]
    3910:	4401      	add	r1, r0
    3912:	1850      	adds	r0, r2, r1
    3914:	4283      	cmp	r3, r0
    3916:	6011      	str	r1, [r2, #0]
    3918:	d1db      	bne.n	38d2 <_free_r+0x52>
    391a:	e9d3 0400 	ldrd	r0, r4, [r3]
    391e:	4401      	add	r1, r0
    3920:	e9c2 1400 	strd	r1, r4, [r2]
    3924:	e7d5      	b.n	38d2 <_free_r+0x52>
    3926:	4770      	bx	lr
    3928:	230c      	movs	r3, #12
    392a:	4628      	mov	r0, r5
    392c:	602b      	str	r3, [r5, #0]
    392e:	e8bd 4038 	ldmia.w	sp!, {r3, r4, r5, lr}
    3932:	f000 b87b 	b.w	3a2c <__malloc_unlock>
    3936:	bf00      	nop
    3938:	20000074 	andcs	r0, r0, r4, ror r0

0000393c <memcpy>:
    393c:	4684      	mov	ip, r0
    393e:	ea41 0300 	orr.w	r3, r1, r0
    3942:	f013 0303 	ands.w	r3, r3, #3
    3946:	d149      	bne.n	39dc <memcpy+0xa0>
    3948:	3a40      	subs	r2, #64	@ 0x40
    394a:	d323      	bcc.n	3994 <memcpy+0x58>
    394c:	680b      	ldr	r3, [r1, #0]
    394e:	6003      	str	r3, [r0, #0]
    3950:	684b      	ldr	r3, [r1, #4]
    3952:	6043      	str	r3, [r0, #4]
    3954:	688b      	ldr	r3, [r1, #8]
    3956:	6083      	str	r3, [r0, #8]
    3958:	68cb      	ldr	r3, [r1, #12]
    395a:	60c3      	str	r3, [r0, #12]
    395c:	690b      	ldr	r3, [r1, #16]
    395e:	6103      	str	r3, [r0, #16]
    3960:	694b      	ldr	r3, [r1, #20]
    3962:	6143      	str	r3, [r0, #20]
    3964:	698b      	ldr	r3, [r1, #24]
    3966:	6183      	str	r3, [r0, #24]
    3968:	69cb      	ldr	r3, [r1, #28]
    396a:	61c3      	str	r3, [r0, #28]
    396c:	6a0b      	ldr	r3, [r1, #32]
    396e:	6203      	str	r3, [r0, #32]
    3970:	6a4b      	ldr	r3, [r1, #36]	@ 0x24
    3972:	6243      	str	r3, [r0, #36]	@ 0x24
    3974:	6a8b      	ldr	r3, [r1, #40]	@ 0x28
    3976:	6283      	str	r3, [r0, #40]	@ 0x28
    3978:	6acb      	ldr	r3, [r1, #44]	@ 0x2c
    397a:	62c3      	str	r3, [r0, #44]	@ 0x2c
    397c:	6b0b      	ldr	r3, [r1, #48]	@ 0x30
    397e:	6303      	str	r3, [r0, #48]	@ 0x30
    3980:	6b4b      	ldr	r3, [r1, #52]	@ 0x34
    3982:	6343      	str	r3, [r0, #52]	@ 0x34
    3984:	6b8b      	ldr	r3, [r1, #56]	@ 0x38
    3986:	6383      	str	r3, [r0, #56]	@ 0x38
    3988:	6bcb      	ldr	r3, [r1, #60]	@ 0x3c
    398a:	63c3      	str	r3, [r0, #60]	@ 0x3c
    398c:	3040      	adds	r0, #64	@ 0x40
    398e:	3140      	adds	r1, #64	@ 0x40
    3990:	3a40      	subs	r2, #64	@ 0x40
    3992:	d2db      	bcs.n	394c <memcpy+0x10>
    3994:	3230      	adds	r2, #48	@ 0x30
    3996:	d30b      	bcc.n	39b0 <memcpy+0x74>
    3998:	680b      	ldr	r3, [r1, #0]
    399a:	6003      	str	r3, [r0, #0]
    399c:	684b      	ldr	r3, [r1, #4]
    399e:	6043      	str	r3, [r0, #4]
    39a0:	688b      	ldr	r3, [r1, #8]
    39a2:	6083      	str	r3, [r0, #8]
    39a4:	68cb      	ldr	r3, [r1, #12]
    39a6:	60c3      	str	r3, [r0, #12]
    39a8:	3010      	adds	r0, #16
    39aa:	3110      	adds	r1, #16
    39ac:	3a10      	subs	r2, #16
    39ae:	d2f3      	bcs.n	3998 <memcpy+0x5c>
    39b0:	320c      	adds	r2, #12
    39b2:	d305      	bcc.n	39c0 <memcpy+0x84>
    39b4:	f851 3b04 	ldr.w	r3, [r1], #4
    39b8:	f840 3b04 	str.w	r3, [r0], #4
    39bc:	3a04      	subs	r2, #4
    39be:	d2f9      	bcs.n	39b4 <memcpy+0x78>
    39c0:	3204      	adds	r2, #4
    39c2:	d008      	beq.n	39d6 <memcpy+0x9a>
    39c4:	07d2      	lsls	r2, r2, #31
    39c6:	bf1c      	itt	ne
    39c8:	f811 3b01 	ldrbne.w	r3, [r1], #1
    39cc:	f800 3b01 	strbne.w	r3, [r0], #1
    39d0:	d301      	bcc.n	39d6 <memcpy+0x9a>
    39d2:	880b      	ldrh	r3, [r1, #0]
    39d4:	8003      	strh	r3, [r0, #0]
    39d6:	4660      	mov	r0, ip
    39d8:	4770      	bx	lr
    39da:	bf00      	nop
    39dc:	2a08      	cmp	r2, #8
    39de:	d313      	bcc.n	3a08 <memcpy+0xcc>
    39e0:	078b      	lsls	r3, r1, #30
    39e2:	d0b1      	beq.n	3948 <memcpy+0xc>
    39e4:	f010 0303 	ands.w	r3, r0, #3
    39e8:	d0ae      	beq.n	3948 <memcpy+0xc>
    39ea:	f1c3 0304 	rsb	r3, r3, #4
    39ee:	1ad2      	subs	r2, r2, r3
    39f0:	07db      	lsls	r3, r3, #31
    39f2:	bf1c      	itt	ne
    39f4:	f811 3b01 	ldrbne.w	r3, [r1], #1
    39f8:	f800 3b01 	strbne.w	r3, [r0], #1
    39fc:	d3a4      	bcc.n	3948 <memcpy+0xc>
    39fe:	f831 3b02 	ldrh.w	r3, [r1], #2
    3a02:	f820 3b02 	strh.w	r3, [r0], #2
    3a06:	e79f      	b.n	3948 <memcpy+0xc>
    3a08:	3a04      	subs	r2, #4
    3a0a:	d3d9      	bcc.n	39c0 <memcpy+0x84>
    3a0c:	3a01      	subs	r2, #1
    3a0e:	f811 3b01 	ldrb.w	r3, [r1], #1
    3a12:	f800 3b01 	strb.w	r3, [r0], #1
    3a16:	d2f9      	bcs.n	3a0c <memcpy+0xd0>
    3a18:	780b      	ldrb	r3, [r1, #0]
    3a1a:	7003      	strb	r3, [r0, #0]
    3a1c:	784b      	ldrb	r3, [r1, #1]
    3a1e:	7043      	strb	r3, [r0, #1]
    3a20:	788b      	ldrb	r3, [r1, #2]
    3a22:	7083      	strb	r3, [r0, #2]
    3a24:	4660      	mov	r0, ip
    3a26:	4770      	bx	lr

00003a28 <__malloc_lock>:
    3a28:	4770      	bx	lr
    3a2a:	bf00      	nop

00003a2c <__malloc_unlock>:
    3a2c:	4770      	bx	lr
    3a2e:	bf00      	nop

00003a30 <exit>:
    3a30:	b508      	push	{r3, lr}
    3a32:	4b06      	ldr	r3, [pc, #24]	@ (3a4c <exit+0x1c>)
    3a34:	4604      	mov	r4, r0
    3a36:	b113      	cbz	r3, 3a3e <exit+0xe>
    3a38:	2100      	movs	r1, #0
    3a3a:	f000 fa79 	bl	3f30 <__call_exitprocs>
    3a3e:	4b04      	ldr	r3, [pc, #16]	@ (3a50 <exit+0x20>)
    3a40:	681b      	ldr	r3, [r3, #0]
    3a42:	b103      	cbz	r3, 3a46 <exit+0x16>
    3a44:	4798      	blx	r3
    3a46:	4620      	mov	r0, r4
    3a48:	f000 fb16 	bl	4078 <_exit>
    3a4c:	00003f31 	andeq	r3, r0, r1, lsr pc
    3a50:	200001b0 			@ <UNDEFINED> instruction: 0x200001b0

00003a54 <_sbrk_r>:
    3a54:	2200      	movs	r2, #0
    3a56:	b538      	push	{r3, r4, r5, lr}
    3a58:	4d06      	ldr	r5, [pc, #24]	@ (3a74 <_sbrk_r+0x20>)
    3a5a:	4604      	mov	r4, r0
    3a5c:	4608      	mov	r0, r1
    3a5e:	602a      	str	r2, [r5, #0]
    3a60:	f000 fcda 	bl	4418 <_sbrk>
    3a64:	1c43      	adds	r3, r0, #1
    3a66:	d000      	beq.n	3a6a <_sbrk_r+0x16>
    3a68:	bd38      	pop	{r3, r4, r5, pc}
    3a6a:	682b      	ldr	r3, [r5, #0]
    3a6c:	2b00      	cmp	r3, #0
    3a6e:	d0fb      	beq.n	3a68 <_sbrk_r+0x14>
    3a70:	6023      	str	r3, [r4, #0]
    3a72:	bd38      	pop	{r3, r4, r5, pc}
    3a74:	200001b4 			@ <UNDEFINED> instruction: 0x200001b4

00003a78 <__fp_lock>:
    3a78:	2000      	movs	r0, #0
    3a7a:	4770      	bx	lr

00003a7c <stdio_exit_handler>:
    3a7c:	4a02      	ldr	r2, [pc, #8]	@ (3a88 <stdio_exit_handler+0xc>)
    3a7e:	4903      	ldr	r1, [pc, #12]	@ (3a8c <stdio_exit_handler+0x10>)
    3a80:	4803      	ldr	r0, [pc, #12]	@ (3a90 <stdio_exit_handler+0x14>)
    3a82:	f000 b9d7 	b.w	3e34 <_fwalk_sglue>
    3a86:	bf00      	nop
    3a88:	20000050 	andcs	r0, r0, r0, asr r0
    3a8c:	00003db1 			@ <UNDEFINED> instruction: 0x00003db1
    3a90:	20000004 	andcs	r0, r0, r4

00003a94 <cleanup_stdio>:
    3a94:	4b0c      	ldr	r3, [pc, #48]	@ (3ac8 <cleanup_stdio+0x34>)
    3a96:	6841      	ldr	r1, [r0, #4]
    3a98:	b510      	push	{r4, lr}
    3a9a:	4299      	cmp	r1, r3
    3a9c:	4604      	mov	r4, r0
    3a9e:	d001      	beq.n	3aa4 <cleanup_stdio+0x10>
    3aa0:	f000 f986 	bl	3db0 <_fflush_r>
    3aa4:	68a1      	ldr	r1, [r4, #8]
    3aa6:	4b09      	ldr	r3, [pc, #36]	@ (3acc <cleanup_stdio+0x38>)
    3aa8:	4299      	cmp	r1, r3
    3aaa:	d002      	beq.n	3ab2 <cleanup_stdio+0x1e>
    3aac:	4620      	mov	r0, r4
    3aae:	f000 f97f 	bl	3db0 <_fflush_r>
    3ab2:	68e1      	ldr	r1, [r4, #12]
    3ab4:	4b06      	ldr	r3, [pc, #24]	@ (3ad0 <cleanup_stdio+0x3c>)
    3ab6:	4299      	cmp	r1, r3
    3ab8:	d004      	beq.n	3ac4 <cleanup_stdio+0x30>
    3aba:	4620      	mov	r0, r4
    3abc:	e8bd 4010 	ldmia.w	sp!, {r4, lr}
    3ac0:	f000 b976 	b.w	3db0 <_fflush_r>
    3ac4:	bd10      	pop	{r4, pc}
    3ac6:	bf00      	nop
    3ac8:	20000078 	andcs	r0, r0, r8, ror r0
    3acc:	200000e0 	andcs	r0, r0, r0, ror #1
    3ad0:	20000148 	andcs	r0, r0, r8, asr #2

00003ad4 <__fp_unlock>:
    3ad4:	2000      	movs	r0, #0
    3ad6:	4770      	bx	lr

00003ad8 <global_stdio_init.part.0>:
    3ad8:	e92d 43f8 	stmdb	sp!, {r3, r4, r5, r6, r7, r8, r9, lr}
    3adc:	2500      	movs	r5, #0
    3ade:	2304      	movs	r3, #4
    3ae0:	4c29      	ldr	r4, [pc, #164]	@ (3b88 <global_stdio_init.part.0+0xb0>)
    3ae2:	492a      	ldr	r1, [pc, #168]	@ (3b8c <global_stdio_init.part.0+0xb4>)
    3ae4:	2208      	movs	r2, #8
    3ae6:	f8c4 1138 	str.w	r1, [r4, #312]	@ 0x138
    3aea:	f104 005c 	add.w	r0, r4, #92	@ 0x5c
    3aee:	4629      	mov	r1, r5
    3af0:	f8df 909c 	ldr.w	r9, [pc, #156]	@ 3b90 <global_stdio_init.part.0+0xb8>
    3af4:	f8df 809c 	ldr.w	r8, [pc, #156]	@ 3b94 <global_stdio_init.part.0+0xbc>
    3af8:	4f27      	ldr	r7, [pc, #156]	@ (3b98 <global_stdio_init.part.0+0xc0>)
    3afa:	4e28      	ldr	r6, [pc, #160]	@ (3b9c <global_stdio_init.part.0+0xc4>)
    3afc:	e9c4 3503 	strd	r3, r5, [r4, #12]
    3b00:	e9c4 5500 	strd	r5, r5, [r4]
    3b04:	e9c4 5505 	strd	r5, r5, [r4, #20]
    3b08:	60a5      	str	r5, [r4, #8]
    3b0a:	6665      	str	r5, [r4, #100]	@ 0x64
    3b0c:	f7ff fdc2 	bl	3694 <memset>
    3b10:	4b23      	ldr	r3, [pc, #140]	@ (3ba0 <global_stdio_init.part.0+0xc8>)
    3b12:	2208      	movs	r2, #8
    3b14:	4629      	mov	r1, r5
    3b16:	f104 00c4 	add.w	r0, r4, #196	@ 0xc4
    3b1a:	6763      	str	r3, [r4, #116]	@ 0x74
    3b1c:	e9c4 4908 	strd	r4, r9, [r4, #32]
    3b20:	e9c4 870a 	strd	r8, r7, [r4, #40]	@ 0x28
    3b24:	e9c4 551a 	strd	r5, r5, [r4, #104]	@ 0x68
    3b28:	e9c4 551e 	strd	r5, r5, [r4, #120]	@ 0x78
    3b2c:	6326      	str	r6, [r4, #48]	@ 0x30
    3b2e:	6725      	str	r5, [r4, #112]	@ 0x70
    3b30:	f8c4 50cc 	str.w	r5, [r4, #204]	@ 0xcc
    3b34:	f8c4 5080 	str.w	r5, [r4, #128]	@ 0x80
    3b38:	f7ff fdac 	bl	3694 <memset>
    3b3c:	4b19      	ldr	r3, [pc, #100]	@ (3ba4 <global_stdio_init.part.0+0xcc>)
    3b3e:	4629      	mov	r1, r5
    3b40:	f8c4 30dc 	str.w	r3, [r4, #220]	@ 0xdc
    3b44:	2208      	movs	r2, #8
    3b46:	f104 0368 	add.w	r3, r4, #104	@ 0x68
    3b4a:	f504 7096 	add.w	r0, r4, #300	@ 0x12c
    3b4e:	f8c4 3088 	str.w	r3, [r4, #136]	@ 0x88
    3b52:	e9c4 9823 	strd	r9, r8, [r4, #140]	@ 0x8c
    3b56:	e9c4 7625 	strd	r7, r6, [r4, #148]	@ 0x94
    3b5a:	e9c4 5534 	strd	r5, r5, [r4, #208]	@ 0xd0
    3b5e:	e9c4 5538 	strd	r5, r5, [r4, #224]	@ 0xe0
